
dalyBms.elf:     file format elf32-littlearm

Sections:
Idx Name          Size      VMA       LMA       File off  Algn
  0 .isr_vector   0000010c  08000000  08000000  00001000  2**0
                  CONTENTS, ALLOC, LOAD, READONLY, DATA
  1 .text         00009e84  08000110  08000110  00001110  2**4
                  CONTENTS, ALLOC, LOAD, READONLY, CODE
  2 .rodata       0000043c  08009f98  08009f98  0000af98  2**3
                  CONTENTS, ALLOC, LOAD, READONLY, DATA
  3 .ARM.extab    00000000  0800a3d4  0800a3d4  0000c1e4  2**0
                  CONTENTS, READONLY
  4 .ARM          00000008  0800a3d4  0800a3d4  0000b3d4  2**2
                  CONTENTS, ALLOC, LOAD, READONLY, DATA
  5 .preinit_array 00000000  0800a3dc  0800a3dc  0000c1e4  2**0
                  CONTENTS, ALLOC, LOAD, DATA
  6 .init_array   00000004  0800a3dc  0800a3dc  0000b3dc  2**2
                  CONTENTS, ALLOC, LOAD, READONLY, DATA
  7 .fini_array   00000004  0800a3e0  0800a3e0  0000b3e0  2**2
                  CONTENTS, ALLOC, LOAD, READONLY, DATA
  8 .data         000001e4  20000000  0800a3e4  0000c000  2**2
                  CONTENTS, ALLOC, LOAD, DATA
  9 .bss          0000358c  200001e8  0800a5c8  0000c1e8  2**3
                  ALLOC
 10 ._user_heap_stack 00000604  20003774  0800a5c8  0000c774  2**0
                  ALLOC
 11 .ARM.attributes 00000029  00000000  00000000  0000c1e4  2**0
                  CONTENTS, READONLY
 12 .comment      00000043  00000000  00000000  0000c20d  2**0
                  CONTENTS, READONLY
 13 .debug_frame  000011c0  00000000  00000000  0000c250  2**2
                  CONTENTS, READONLY, DEBUGGING, OCTETS

Disassembly of section .text:

08000110 <__do_global_dtors_aux>:
 8000110:	b510      	push	{r4, lr}
 8000112:	4c05      	ldr	r4, [pc, #20]	@ (8000128 <__do_global_dtors_aux+0x18>)
 8000114:	7823      	ldrb	r3, [r4, #0]
 8000116:	b933      	cbnz	r3, 8000126 <__do_global_dtors_aux+0x16>
 8000118:	4b04      	ldr	r3, [pc, #16]	@ (800012c <__do_global_dtors_aux+0x1c>)
 800011a:	b113      	cbz	r3, 8000122 <__do_global_dtors_aux+0x12>
 800011c:	4804      	ldr	r0, [pc, #16]	@ (8000130 <__do_global_dtors_aux+0x20>)
 800011e:	f3af 8000 	nop.w
 8000122:	2301      	movs	r3, #1
 8000124:	7023      	strb	r3, [r4, #0]
 8000126:	bd10      	pop	{r4, pc}
 8000128:	200001e8 	.word	0x200001e8
 800012c:	00000000 	.word	0x00000000
 8000130:	08009f7c 	.word	0x08009f7c

08000134 <frame_dummy>:
 8000134:	b508      	push	{r3, lr}
 8000136:	4b03      	ldr	r3, [pc, #12]	@ (8000144 <frame_dummy+0x10>)
 8000138:	b11b      	cbz	r3, 8000142 <frame_dummy+0xe>
 800013a:	4903      	ldr	r1, [pc, #12]	@ (8000148 <frame_dummy+0x14>)
 800013c:	4803      	ldr	r0, [pc, #12]	@ (800014c <frame_dummy+0x18>)
 800013e:	f3af 8000 	nop.w
 8000142:	bd08      	pop	{r3, pc}
 8000144:	00000000 	.word	0x00000000
 8000148:	200001ec 	.word	0x200001ec
 800014c:	08009f7c 	.word	0x08009f7c

08000150 <strlen>:
 8000150:	4603      	mov	r3, r0
 8000152:	f813 2b01 	ldrb.w	r2, [r3], #1
 8000156:	2a00      	cmp	r2, #0
 8000158:	d1fb      	bne.n	8000152 <strlen+0x2>
 800015a:	1a18      	subs	r0, r3, r0
 800015c:	3801      	subs	r0, #1
 800015e:	4770      	bx	lr

08000160 <__aeabi_drsub>:
 8000160:	f081 4100 	eor.w	r1, r1, #2147483648	@ 0x80000000
 8000164:	e002      	b.n	800016c <__adddf3>
 8000166:	bf00      	nop

08000168 <__aeabi_dsub>:
 8000168:	f083 4300 	eor.w	r3, r3, #2147483648	@ 0x80000000

0800016c <__adddf3>:
 800016c:	b530      	push	{r4, r5, lr}
 800016e:	ea4f 0441 	mov.w	r4, r1, lsl #1
 8000172:	ea4f 0543 	mov.w	r5, r3, lsl #1
 8000176:	ea94 0f05 	teq	r4, r5
 800017a:	bf08      	it	eq
 800017c:	ea90 0f02 	teqeq	r0, r2
 8000180:	bf1f      	itttt	ne
 8000182:	ea54 0c00 	orrsne.w	ip, r4, r0
 8000186:	ea55 0c02 	orrsne.w	ip, r5, r2
 800018a:	ea7f 5c64 	mvnsne.w	ip, r4, asr #21
 800018e:	ea7f 5c65 	mvnsne.w	ip, r5, asr #21
 8000192:	f000 80e2 	beq.w	800035a <__adddf3+0x1ee>
 8000196:	ea4f 5454 	mov.w	r4, r4, lsr #21
 800019a:	ebd4 5555 	rsbs	r5, r4, r5, lsr #21
 800019e:	bfb8      	it	lt
 80001a0:	426d      	neglt	r5, r5
 80001a2:	dd0c      	ble.n	80001be <__adddf3+0x52>
 80001a4:	442c      	add	r4, r5
 80001a6:	ea80 0202 	eor.w	r2, r0, r2
 80001aa:	ea81 0303 	eor.w	r3, r1, r3
 80001ae:	ea82 0000 	eor.w	r0, r2, r0
 80001b2:	ea83 0101 	eor.w	r1, r3, r1
 80001b6:	ea80 0202 	eor.w	r2, r0, r2
 80001ba:	ea81 0303 	eor.w	r3, r1, r3
 80001be:	2d36      	cmp	r5, #54	@ 0x36
 80001c0:	bf88      	it	hi
 80001c2:	bd30      	pophi	{r4, r5, pc}
 80001c4:	f011 4f00 	tst.w	r1, #2147483648	@ 0x80000000
 80001c8:	ea4f 3101 	mov.w	r1, r1, lsl #12
 80001cc:	f44f 1c80 	mov.w	ip, #1048576	@ 0x100000
 80001d0:	ea4c 3111 	orr.w	r1, ip, r1, lsr #12
 80001d4:	d002      	beq.n	80001dc <__adddf3+0x70>
 80001d6:	4240      	negs	r0, r0
 80001d8:	eb61 0141 	sbc.w	r1, r1, r1, lsl #1
 80001dc:	f013 4f00 	tst.w	r3, #2147483648	@ 0x80000000
 80001e0:	ea4f 3303 	mov.w	r3, r3, lsl #12
 80001e4:	ea4c 3313 	orr.w	r3, ip, r3, lsr #12
 80001e8:	d002      	beq.n	80001f0 <__adddf3+0x84>
 80001ea:	4252      	negs	r2, r2
 80001ec:	eb63 0343 	sbc.w	r3, r3, r3, lsl #1
 80001f0:	ea94 0f05 	teq	r4, r5
 80001f4:	f000 80a7 	beq.w	8000346 <__adddf3+0x1da>
 80001f8:	f1a4 0401 	sub.w	r4, r4, #1
 80001fc:	f1d5 0e20 	rsbs	lr, r5, #32
 8000200:	db0d      	blt.n	800021e <__adddf3+0xb2>
 8000202:	fa02 fc0e 	lsl.w	ip, r2, lr
 8000206:	fa22 f205 	lsr.w	r2, r2, r5
 800020a:	1880      	adds	r0, r0, r2
 800020c:	f141 0100 	adc.w	r1, r1, #0
 8000210:	fa03 f20e 	lsl.w	r2, r3, lr
 8000214:	1880      	adds	r0, r0, r2
 8000216:	fa43 f305 	asr.w	r3, r3, r5
 800021a:	4159      	adcs	r1, r3
 800021c:	e00e      	b.n	800023c <__adddf3+0xd0>
 800021e:	f1a5 0520 	sub.w	r5, r5, #32
 8000222:	f10e 0e20 	add.w	lr, lr, #32
 8000226:	2a01      	cmp	r2, #1
 8000228:	fa03 fc0e 	lsl.w	ip, r3, lr
 800022c:	bf28      	it	cs
 800022e:	f04c 0c02 	orrcs.w	ip, ip, #2
 8000232:	fa43 f305 	asr.w	r3, r3, r5
 8000236:	18c0      	adds	r0, r0, r3
 8000238:	eb51 71e3 	adcs.w	r1, r1, r3, asr #31
 800023c:	f001 4500 	and.w	r5, r1, #2147483648	@ 0x80000000
 8000240:	d507      	bpl.n	8000252 <__adddf3+0xe6>
 8000242:	f04f 0e00 	mov.w	lr, #0
 8000246:	f1dc 0c00 	rsbs	ip, ip, #0
 800024a:	eb7e 0000 	sbcs.w	r0, lr, r0
 800024e:	eb6e 0101 	sbc.w	r1, lr, r1
 8000252:	f5b1 1f80 	cmp.w	r1, #1048576	@ 0x100000
 8000256:	d31b      	bcc.n	8000290 <__adddf3+0x124>
 8000258:	f5b1 1f00 	cmp.w	r1, #2097152	@ 0x200000
 800025c:	d30c      	bcc.n	8000278 <__adddf3+0x10c>
 800025e:	0849      	lsrs	r1, r1, #1
 8000260:	ea5f 0030 	movs.w	r0, r0, rrx
 8000264:	ea4f 0c3c 	mov.w	ip, ip, rrx
 8000268:	f104 0401 	add.w	r4, r4, #1
 800026c:	ea4f 5244 	mov.w	r2, r4, lsl #21
 8000270:	f512 0f80 	cmn.w	r2, #4194304	@ 0x400000
 8000274:	f080 809a 	bcs.w	80003ac <__adddf3+0x240>
 8000278:	f1bc 4f00 	cmp.w	ip, #2147483648	@ 0x80000000
 800027c:	bf08      	it	eq
 800027e:	ea5f 0c50 	movseq.w	ip, r0, lsr #1
 8000282:	f150 0000 	adcs.w	r0, r0, #0
 8000286:	eb41 5104 	adc.w	r1, r1, r4, lsl #20
 800028a:	ea41 0105 	orr.w	r1, r1, r5
 800028e:	bd30      	pop	{r4, r5, pc}
 8000290:	ea5f 0c4c 	movs.w	ip, ip, lsl #1
 8000294:	4140      	adcs	r0, r0
 8000296:	eb41 0101 	adc.w	r1, r1, r1
 800029a:	3c01      	subs	r4, #1
 800029c:	bf28      	it	cs
 800029e:	f5b1 1f80 	cmpcs.w	r1, #1048576	@ 0x100000
 80002a2:	d2e9      	bcs.n	8000278 <__adddf3+0x10c>
 80002a4:	f091 0f00 	teq	r1, #0
 80002a8:	bf04      	itt	eq
 80002aa:	4601      	moveq	r1, r0
 80002ac:	2000      	moveq	r0, #0
 80002ae:	fab1 f381 	clz	r3, r1
 80002b2:	bf08      	it	eq
 80002b4:	3320      	addeq	r3, #32
 80002b6:	f1a3 030b 	sub.w	r3, r3, #11
 80002ba:	f1b3 0220 	subs.w	r2, r3, #32
 80002be:	da0c      	bge.n	80002da <__adddf3+0x16e>
 80002c0:	320c      	adds	r2, #12
 80002c2:	dd08      	ble.n	80002d6 <__adddf3+0x16a>
 80002c4:	f102 0c14 	add.w	ip, r2, #20
 80002c8:	f1c2 020c 	rsb	r2, r2, #12
 80002cc:	fa01 f00c 	lsl.w	r0, r1, ip
 80002d0:	fa21 f102 	lsr.w	r1, r1, r2
 80002d4:	e00c      	b.n	80002f0 <__adddf3+0x184>
 80002d6:	f102 0214 	add.w	r2, r2, #20
 80002da:	bfd8      	it	le
 80002dc:	f1c2 0c20 	rsble	ip, r2, #32
 80002e0:	fa01 f102 	lsl.w	r1, r1, r2
 80002e4:	fa20 fc0c 	lsr.w	ip, r0, ip
 80002e8:	bfdc      	itt	le
 80002ea:	ea41 010c 	orrle.w	r1, r1, ip
 80002ee:	4090      	lslle	r0, r2
 80002f0:	1ae4      	subs	r4, r4, r3
 80002f2:	bfa2      	ittt	ge
 80002f4:	eb01 5104 	addge.w	r1, r1, r4, lsl #20
 80002f8:	4329      	orrge	r1, r5
 80002fa:	bd30      	popge	{r4, r5, pc}
 80002fc:	ea6f 0404 	mvn.w	r4, r4
 8000300:	3c1f      	subs	r4, #31
 8000302:	da1c      	bge.n	800033e <__adddf3+0x1d2>
 8000304:	340c      	adds	r4, #12
 8000306:	dc0e      	bgt.n	8000326 <__adddf3+0x1ba>
 8000308:	f104 0414 	add.w	r4, r4, #20
 800030c:	f1c4 0220 	rsb	r2, r4, #32
 8000310:	fa20 f004 	lsr.w	r0, r0, r4
 8000314:	fa01 f302 	lsl.w	r3, r1, r2
 8000318:	ea40 0003 	orr.w	r0, r0, r3
 800031c:	fa21 f304 	lsr.w	r3, r1, r4
 8000320:	ea45 0103 	orr.w	r1, r5, r3
 8000324:	bd30      	pop	{r4, r5, pc}
 8000326:	f1c4 040c 	rsb	r4, r4, #12
 800032a:	f1c4 0220 	rsb	r2, r4, #32
 800032e:	fa20 f002 	lsr.w	r0, r0, r2
 8000332:	fa01 f304 	lsl.w	r3, r1, r4
 8000336:	ea40 0003 	orr.w	r0, r0, r3
 800033a:	4629      	mov	r1, r5
 800033c:	bd30      	pop	{r4, r5, pc}
 800033e:	fa21 f004 	lsr.w	r0, r1, r4
 8000342:	4629      	mov	r1, r5
 8000344:	bd30      	pop	{r4, r5, pc}
 8000346:	f094 0f00 	teq	r4, #0
 800034a:	f483 1380 	eor.w	r3, r3, #1048576	@ 0x100000
 800034e:	bf06      	itte	eq
 8000350:	f481 1180 	eoreq.w	r1, r1, #1048576	@ 0x100000
 8000354:	3401      	addeq	r4, #1
 8000356:	3d01      	subne	r5, #1
 8000358:	e74e      	b.n	80001f8 <__adddf3+0x8c>
 800035a:	ea7f 5c64 	mvns.w	ip, r4, asr #21
 800035e:	bf18      	it	ne
 8000360:	ea7f 5c65 	mvnsne.w	ip, r5, asr #21
 8000364:	d029      	beq.n	80003ba <__adddf3+0x24e>
 8000366:	ea94 0f05 	teq	r4, r5
 800036a:	bf08      	it	eq
 800036c:	ea90 0f02 	teqeq	r0, r2
 8000370:	d005      	beq.n	800037e <__adddf3+0x212>
 8000372:	ea54 0c00 	orrs.w	ip, r4, r0
 8000376:	bf04      	itt	eq
 8000378:	4619      	moveq	r1, r3
 800037a:	4610      	moveq	r0, r2
 800037c:	bd30      	pop	{r4, r5, pc}
 800037e:	ea91 0f03 	teq	r1, r3
 8000382:	bf1e      	ittt	ne
 8000384:	2100      	movne	r1, #0
 8000386:	2000      	movne	r0, #0
 8000388:	bd30      	popne	{r4, r5, pc}
 800038a:	ea5f 5c54 	movs.w	ip, r4, lsr #21
 800038e:	d105      	bne.n	800039c <__adddf3+0x230>
 8000390:	0040      	lsls	r0, r0, #1
 8000392:	4149      	adcs	r1, r1
 8000394:	bf28      	it	cs
 8000396:	f041 4100 	orrcs.w	r1, r1, #2147483648	@ 0x80000000
 800039a:	bd30      	pop	{r4, r5, pc}
 800039c:	f514 0480 	adds.w	r4, r4, #4194304	@ 0x400000
 80003a0:	bf3c      	itt	cc
 80003a2:	f501 1180 	addcc.w	r1, r1, #1048576	@ 0x100000
 80003a6:	bd30      	popcc	{r4, r5, pc}
 80003a8:	f001 4500 	and.w	r5, r1, #2147483648	@ 0x80000000
 80003ac:	f045 41fe 	orr.w	r1, r5, #2130706432	@ 0x7f000000
 80003b0:	f441 0170 	orr.w	r1, r1, #15728640	@ 0xf00000
 80003b4:	f04f 0000 	mov.w	r0, #0
 80003b8:	bd30      	pop	{r4, r5, pc}
 80003ba:	ea7f 5c64 	mvns.w	ip, r4, asr #21
 80003be:	bf1a      	itte	ne
 80003c0:	4619      	movne	r1, r3
 80003c2:	4610      	movne	r0, r2
 80003c4:	ea7f 5c65 	mvnseq.w	ip, r5, asr #21
 80003c8:	bf1c      	itt	ne
 80003ca:	460b      	movne	r3, r1
 80003cc:	4602      	movne	r2, r0
 80003ce:	ea50 3401 	orrs.w	r4, r0, r1, lsl #12
 80003d2:	bf06      	itte	eq
 80003d4:	ea52 3503 	orrseq.w	r5, r2, r3, lsl #12
 80003d8:	ea91 0f03 	teqeq	r1, r3
 80003dc:	f441 2100 	orrne.w	r1, r1, #524288	@ 0x80000
 80003e0:	bd30      	pop	{r4, r5, pc}
 80003e2:	bf00      	nop

080003e4 <__aeabi_ui2d>:
 80003e4:	f090 0f00 	teq	r0, #0
 80003e8:	bf04      	itt	eq
 80003ea:	2100      	moveq	r1, #0
 80003ec:	4770      	bxeq	lr
 80003ee:	b530      	push	{r4, r5, lr}
 80003f0:	f44f 6480 	mov.w	r4, #1024	@ 0x400
 80003f4:	f104 0432 	add.w	r4, r4, #50	@ 0x32
 80003f8:	f04f 0500 	mov.w	r5, #0
 80003fc:	f04f 0100 	mov.w	r1, #0
 8000400:	e750      	b.n	80002a4 <__adddf3+0x138>
 8000402:	bf00      	nop

08000404 <__aeabi_i2d>:
 8000404:	f090 0f00 	teq	r0, #0
 8000408:	bf04      	itt	eq
 800040a:	2100      	moveq	r1, #0
 800040c:	4770      	bxeq	lr
 800040e:	b530      	push	{r4, r5, lr}
 8000410:	f44f 6480 	mov.w	r4, #1024	@ 0x400
 8000414:	f104 0432 	add.w	r4, r4, #50	@ 0x32
 8000418:	f010 4500 	ands.w	r5, r0, #2147483648	@ 0x80000000
 800041c:	bf48      	it	mi
 800041e:	4240      	negmi	r0, r0
 8000420:	f04f 0100 	mov.w	r1, #0
 8000424:	e73e      	b.n	80002a4 <__adddf3+0x138>
 8000426:	bf00      	nop

08000428 <__aeabi_f2d>:
 8000428:	0042      	lsls	r2, r0, #1
 800042a:	ea4f 01e2 	mov.w	r1, r2, asr #3
 800042e:	ea4f 0131 	mov.w	r1, r1, rrx
 8000432:	ea4f 7002 	mov.w	r0, r2, lsl #28
 8000436:	bf1f      	itttt	ne
 8000438:	f012 437f 	andsne.w	r3, r2, #4278190080	@ 0xff000000
 800043c:	f093 4f7f 	teqne	r3, #4278190080	@ 0xff000000
 8000440:	f081 5160 	eorne.w	r1, r1, #939524096	@ 0x38000000
 8000444:	4770      	bxne	lr
 8000446:	f032 427f 	bics.w	r2, r2, #4278190080	@ 0xff000000
 800044a:	bf08      	it	eq
 800044c:	4770      	bxeq	lr
 800044e:	f093 4f7f 	teq	r3, #4278190080	@ 0xff000000
 8000452:	bf04      	itt	eq
 8000454:	f441 2100 	orreq.w	r1, r1, #524288	@ 0x80000
 8000458:	4770      	bxeq	lr
 800045a:	b530      	push	{r4, r5, lr}
 800045c:	f44f 7460 	mov.w	r4, #896	@ 0x380
 8000460:	f001 4500 	and.w	r5, r1, #2147483648	@ 0x80000000
 8000464:	f021 4100 	bic.w	r1, r1, #2147483648	@ 0x80000000
 8000468:	e71c      	b.n	80002a4 <__adddf3+0x138>
 800046a:	bf00      	nop

0800046c <__aeabi_ul2d>:
 800046c:	ea50 0201 	orrs.w	r2, r0, r1
 8000470:	bf08      	it	eq
 8000472:	4770      	bxeq	lr
 8000474:	b530      	push	{r4, r5, lr}
 8000476:	f04f 0500 	mov.w	r5, #0
 800047a:	e00a      	b.n	8000492 <__aeabi_l2d+0x16>

0800047c <__aeabi_l2d>:
 800047c:	ea50 0201 	orrs.w	r2, r0, r1
 8000480:	bf08      	it	eq
 8000482:	4770      	bxeq	lr
 8000484:	b530      	push	{r4, r5, lr}
 8000486:	f011 4500 	ands.w	r5, r1, #2147483648	@ 0x80000000
 800048a:	d502      	bpl.n	8000492 <__aeabi_l2d+0x16>
 800048c:	4240      	negs	r0, r0
 800048e:	eb61 0141 	sbc.w	r1, r1, r1, lsl #1
 8000492:	f44f 6480 	mov.w	r4, #1024	@ 0x400
 8000496:	f104 0432 	add.w	r4, r4, #50	@ 0x32
 800049a:	ea5f 5c91 	movs.w	ip, r1, lsr #22
 800049e:	f43f aed8 	beq.w	8000252 <__adddf3+0xe6>
 80004a2:	f04f 0203 	mov.w	r2, #3
 80004a6:	ea5f 0cdc 	movs.w	ip, ip, lsr #3
 80004aa:	bf18      	it	ne
 80004ac:	3203      	addne	r2, #3
 80004ae:	ea5f 0cdc 	movs.w	ip, ip, lsr #3
 80004b2:	bf18      	it	ne
 80004b4:	3203      	addne	r2, #3
 80004b6:	eb02 02dc 	add.w	r2, r2, ip, lsr #3
 80004ba:	f1c2 0320 	rsb	r3, r2, #32
 80004be:	fa00 fc03 	lsl.w	ip, r0, r3
 80004c2:	fa20 f002 	lsr.w	r0, r0, r2
 80004c6:	fa01 fe03 	lsl.w	lr, r1, r3
 80004ca:	ea40 000e 	orr.w	r0, r0, lr
 80004ce:	fa21 f102 	lsr.w	r1, r1, r2
 80004d2:	4414      	add	r4, r2
 80004d4:	e6bd      	b.n	8000252 <__adddf3+0xe6>
 80004d6:	bf00      	nop

080004d8 <__aeabi_dmul>:
 80004d8:	b570      	push	{r4, r5, r6, lr}
 80004da:	f04f 0cff 	mov.w	ip, #255	@ 0xff
 80004de:	f44c 6ce0 	orr.w	ip, ip, #1792	@ 0x700
 80004e2:	ea1c 5411 	ands.w	r4, ip, r1, lsr #20
 80004e6:	bf1d      	ittte	ne
 80004e8:	ea1c 5513 	andsne.w	r5, ip, r3, lsr #20
 80004ec:	ea94 0f0c 	teqne	r4, ip
 80004f0:	ea95 0f0c 	teqne	r5, ip
 80004f4:	f000 f8de 	bleq	80006b4 <__aeabi_dmul+0x1dc>
 80004f8:	442c      	add	r4, r5
 80004fa:	ea81 0603 	eor.w	r6, r1, r3
 80004fe:	ea21 514c 	bic.w	r1, r1, ip, lsl #21
 8000502:	ea23 534c 	bic.w	r3, r3, ip, lsl #21
 8000506:	ea50 3501 	orrs.w	r5, r0, r1, lsl #12
 800050a:	bf18      	it	ne
 800050c:	ea52 3503 	orrsne.w	r5, r2, r3, lsl #12
 8000510:	f441 1180 	orr.w	r1, r1, #1048576	@ 0x100000
 8000514:	f443 1380 	orr.w	r3, r3, #1048576	@ 0x100000
 8000518:	d038      	beq.n	800058c <__aeabi_dmul+0xb4>
 800051a:	fba0 ce02 	umull	ip, lr, r0, r2
 800051e:	f04f 0500 	mov.w	r5, #0
 8000522:	fbe1 e502 	umlal	lr, r5, r1, r2
 8000526:	f006 4200 	and.w	r2, r6, #2147483648	@ 0x80000000
 800052a:	fbe0 e503 	umlal	lr, r5, r0, r3
 800052e:	f04f 0600 	mov.w	r6, #0
 8000532:	fbe1 5603 	umlal	r5, r6, r1, r3
 8000536:	f09c 0f00 	teq	ip, #0
 800053a:	bf18      	it	ne
 800053c:	f04e 0e01 	orrne.w	lr, lr, #1
 8000540:	f1a4 04ff 	sub.w	r4, r4, #255	@ 0xff
 8000544:	f5b6 7f00 	cmp.w	r6, #512	@ 0x200
 8000548:	f564 7440 	sbc.w	r4, r4, #768	@ 0x300
 800054c:	d204      	bcs.n	8000558 <__aeabi_dmul+0x80>
 800054e:	ea5f 0e4e 	movs.w	lr, lr, lsl #1
 8000552:	416d      	adcs	r5, r5
 8000554:	eb46 0606 	adc.w	r6, r6, r6
 8000558:	ea42 21c6 	orr.w	r1, r2, r6, lsl #11
 800055c:	ea41 5155 	orr.w	r1, r1, r5, lsr #21
 8000560:	ea4f 20c5 	mov.w	r0, r5, lsl #11
 8000564:	ea40 505e 	orr.w	r0, r0, lr, lsr #21
 8000568:	ea4f 2ece 	mov.w	lr, lr, lsl #11
 800056c:	f1b4 0cfd 	subs.w	ip, r4, #253	@ 0xfd
 8000570:	bf88      	it	hi
 8000572:	f5bc 6fe0 	cmphi.w	ip, #1792	@ 0x700
 8000576:	d81e      	bhi.n	80005b6 <__aeabi_dmul+0xde>
 8000578:	f1be 4f00 	cmp.w	lr, #2147483648	@ 0x80000000
 800057c:	bf08      	it	eq
 800057e:	ea5f 0e50 	movseq.w	lr, r0, lsr #1
 8000582:	f150 0000 	adcs.w	r0, r0, #0
 8000586:	eb41 5104 	adc.w	r1, r1, r4, lsl #20
 800058a:	bd70      	pop	{r4, r5, r6, pc}
 800058c:	f006 4600 	and.w	r6, r6, #2147483648	@ 0x80000000
 8000590:	ea46 0101 	orr.w	r1, r6, r1
 8000594:	ea40 0002 	orr.w	r0, r0, r2
 8000598:	ea81 0103 	eor.w	r1, r1, r3
 800059c:	ebb4 045c 	subs.w	r4, r4, ip, lsr #1
 80005a0:	bfc2      	ittt	gt
 80005a2:	ebd4 050c 	rsbsgt	r5, r4, ip
 80005a6:	ea41 5104 	orrgt.w	r1, r1, r4, lsl #20
 80005aa:	bd70      	popgt	{r4, r5, r6, pc}
 80005ac:	f441 1180 	orr.w	r1, r1, #1048576	@ 0x100000
 80005b0:	f04f 0e00 	mov.w	lr, #0
 80005b4:	3c01      	subs	r4, #1
 80005b6:	f300 80ab 	bgt.w	8000710 <__aeabi_dmul+0x238>
 80005ba:	f114 0f36 	cmn.w	r4, #54	@ 0x36
 80005be:	bfde      	ittt	le
 80005c0:	2000      	movle	r0, #0
 80005c2:	f001 4100 	andle.w	r1, r1, #2147483648	@ 0x80000000
 80005c6:	bd70      	pople	{r4, r5, r6, pc}
 80005c8:	f1c4 0400 	rsb	r4, r4, #0
 80005cc:	3c20      	subs	r4, #32
 80005ce:	da35      	bge.n	800063c <__aeabi_dmul+0x164>
 80005d0:	340c      	adds	r4, #12
 80005d2:	dc1b      	bgt.n	800060c <__aeabi_dmul+0x134>
 80005d4:	f104 0414 	add.w	r4, r4, #20
 80005d8:	f1c4 0520 	rsb	r5, r4, #32
 80005dc:	fa00 f305 	lsl.w	r3, r0, r5
 80005e0:	fa20 f004 	lsr.w	r0, r0, r4
 80005e4:	fa01 f205 	lsl.w	r2, r1, r5
 80005e8:	ea40 0002 	orr.w	r0, r0, r2
 80005ec:	f001 4200 	and.w	r2, r1, #2147483648	@ 0x80000000
 80005f0:	f021 4100 	bic.w	r1, r1, #2147483648	@ 0x80000000
 80005f4:	eb10 70d3 	adds.w	r0, r0, r3, lsr #31
 80005f8:	fa21 f604 	lsr.w	r6, r1, r4
 80005fc:	eb42 0106 	adc.w	r1, r2, r6
 8000600:	ea5e 0e43 	orrs.w	lr, lr, r3, lsl #1
 8000604:	bf08      	it	eq
 8000606:	ea20 70d3 	biceq.w	r0, r0, r3, lsr #31
 800060a:	bd70      	pop	{r4, r5, r6, pc}
 800060c:	f1c4 040c 	rsb	r4, r4, #12
 8000610:	f1c4 0520 	rsb	r5, r4, #32
 8000614:	fa00 f304 	lsl.w	r3, r0, r4
 8000618:	fa20 f005 	lsr.w	r0, r0, r5
 800061c:	fa01 f204 	lsl.w	r2, r1, r4
 8000620:	ea40 0002 	orr.w	r0, r0, r2
 8000624:	f001 4100 	and.w	r1, r1, #2147483648	@ 0x80000000
 8000628:	eb10 70d3 	adds.w	r0, r0, r3, lsr #31
 800062c:	f141 0100 	adc.w	r1, r1, #0
 8000630:	ea5e 0e43 	orrs.w	lr, lr, r3, lsl #1
 8000634:	bf08      	it	eq
 8000636:	ea20 70d3 	biceq.w	r0, r0, r3, lsr #31
 800063a:	bd70      	pop	{r4, r5, r6, pc}
 800063c:	f1c4 0520 	rsb	r5, r4, #32
 8000640:	fa00 f205 	lsl.w	r2, r0, r5
 8000644:	ea4e 0e02 	orr.w	lr, lr, r2
 8000648:	fa20 f304 	lsr.w	r3, r0, r4
 800064c:	fa01 f205 	lsl.w	r2, r1, r5
 8000650:	ea43 0302 	orr.w	r3, r3, r2
 8000654:	fa21 f004 	lsr.w	r0, r1, r4
 8000658:	f001 4100 	and.w	r1, r1, #2147483648	@ 0x80000000
 800065c:	fa21 f204 	lsr.w	r2, r1, r4
 8000660:	ea20 0002 	bic.w	r0, r0, r2
 8000664:	eb00 70d3 	add.w	r0, r0, r3, lsr #31
 8000668:	ea5e 0e43 	orrs.w	lr, lr, r3, lsl #1
 800066c:	bf08      	it	eq
 800066e:	ea20 70d3 	biceq.w	r0, r0, r3, lsr #31
 8000672:	bd70      	pop	{r4, r5, r6, pc}
 8000674:	f094 0f00 	teq	r4, #0
 8000678:	d10f      	bne.n	800069a <__aeabi_dmul+0x1c2>
 800067a:	f001 4600 	and.w	r6, r1, #2147483648	@ 0x80000000
 800067e:	0040      	lsls	r0, r0, #1
 8000680:	eb41 0101 	adc.w	r1, r1, r1
 8000684:	f411 1f80 	tst.w	r1, #1048576	@ 0x100000
 8000688:	bf08      	it	eq
 800068a:	3c01      	subeq	r4, #1
 800068c:	d0f7      	beq.n	800067e <__aeabi_dmul+0x1a6>
 800068e:	ea41 0106 	orr.w	r1, r1, r6
 8000692:	f095 0f00 	teq	r5, #0
 8000696:	bf18      	it	ne
 8000698:	4770      	bxne	lr
 800069a:	f003 4600 	and.w	r6, r3, #2147483648	@ 0x80000000
 800069e:	0052      	lsls	r2, r2, #1
 80006a0:	eb43 0303 	adc.w	r3, r3, r3
 80006a4:	f413 1f80 	tst.w	r3, #1048576	@ 0x100000
 80006a8:	bf08      	it	eq
 80006aa:	3d01      	subeq	r5, #1
 80006ac:	d0f7      	beq.n	800069e <__aeabi_dmul+0x1c6>
 80006ae:	ea43 0306 	orr.w	r3, r3, r6
 80006b2:	4770      	bx	lr
 80006b4:	ea94 0f0c 	teq	r4, ip
 80006b8:	ea0c 5513 	and.w	r5, ip, r3, lsr #20
 80006bc:	bf18      	it	ne
 80006be:	ea95 0f0c 	teqne	r5, ip
 80006c2:	d00c      	beq.n	80006de <__aeabi_dmul+0x206>
 80006c4:	ea50 0641 	orrs.w	r6, r0, r1, lsl #1
 80006c8:	bf18      	it	ne
 80006ca:	ea52 0643 	orrsne.w	r6, r2, r3, lsl #1
 80006ce:	d1d1      	bne.n	8000674 <__aeabi_dmul+0x19c>
 80006d0:	ea81 0103 	eor.w	r1, r1, r3
 80006d4:	f001 4100 	and.w	r1, r1, #2147483648	@ 0x80000000
 80006d8:	f04f 0000 	mov.w	r0, #0
 80006dc:	bd70      	pop	{r4, r5, r6, pc}
 80006de:	ea50 0641 	orrs.w	r6, r0, r1, lsl #1
 80006e2:	bf06      	itte	eq
 80006e4:	4610      	moveq	r0, r2
 80006e6:	4619      	moveq	r1, r3
 80006e8:	ea52 0643 	orrsne.w	r6, r2, r3, lsl #1
 80006ec:	d019      	beq.n	8000722 <__aeabi_dmul+0x24a>
 80006ee:	ea94 0f0c 	teq	r4, ip
 80006f2:	d102      	bne.n	80006fa <__aeabi_dmul+0x222>
 80006f4:	ea50 3601 	orrs.w	r6, r0, r1, lsl #12
 80006f8:	d113      	bne.n	8000722 <__aeabi_dmul+0x24a>
 80006fa:	ea95 0f0c 	teq	r5, ip
 80006fe:	d105      	bne.n	800070c <__aeabi_dmul+0x234>
 8000700:	ea52 3603 	orrs.w	r6, r2, r3, lsl #12
 8000704:	bf1c      	itt	ne
 8000706:	4610      	movne	r0, r2
 8000708:	4619      	movne	r1, r3
 800070a:	d10a      	bne.n	8000722 <__aeabi_dmul+0x24a>
 800070c:	ea81 0103 	eor.w	r1, r1, r3
 8000710:	f001 4100 	and.w	r1, r1, #2147483648	@ 0x80000000
 8000714:	f041 41fe 	orr.w	r1, r1, #2130706432	@ 0x7f000000
 8000718:	f441 0170 	orr.w	r1, r1, #15728640	@ 0xf00000
 800071c:	f04f 0000 	mov.w	r0, #0
 8000720:	bd70      	pop	{r4, r5, r6, pc}
 8000722:	f041 41fe 	orr.w	r1, r1, #2130706432	@ 0x7f000000
 8000726:	f441 0178 	orr.w	r1, r1, #16252928	@ 0xf80000
 800072a:	bd70      	pop	{r4, r5, r6, pc}

0800072c <__aeabi_ddiv>:
 800072c:	b570      	push	{r4, r5, r6, lr}
 800072e:	f04f 0cff 	mov.w	ip, #255	@ 0xff
 8000732:	f44c 6ce0 	orr.w	ip, ip, #1792	@ 0x700
 8000736:	ea1c 5411 	ands.w	r4, ip, r1, lsr #20
 800073a:	bf1d      	ittte	ne
 800073c:	ea1c 5513 	andsne.w	r5, ip, r3, lsr #20
 8000740:	ea94 0f0c 	teqne	r4, ip
 8000744:	ea95 0f0c 	teqne	r5, ip
 8000748:	f000 f8a7 	bleq	800089a <__aeabi_ddiv+0x16e>
 800074c:	eba4 0405 	sub.w	r4, r4, r5
 8000750:	ea81 0e03 	eor.w	lr, r1, r3
 8000754:	ea52 3503 	orrs.w	r5, r2, r3, lsl #12
 8000758:	ea4f 3101 	mov.w	r1, r1, lsl #12
 800075c:	f000 8088 	beq.w	8000870 <__aeabi_ddiv+0x144>
 8000760:	ea4f 3303 	mov.w	r3, r3, lsl #12
 8000764:	f04f 5580 	mov.w	r5, #268435456	@ 0x10000000
 8000768:	ea45 1313 	orr.w	r3, r5, r3, lsr #4
 800076c:	ea43 6312 	orr.w	r3, r3, r2, lsr #24
 8000770:	ea4f 2202 	mov.w	r2, r2, lsl #8
 8000774:	ea45 1511 	orr.w	r5, r5, r1, lsr #4
 8000778:	ea45 6510 	orr.w	r5, r5, r0, lsr #24
 800077c:	ea4f 2600 	mov.w	r6, r0, lsl #8
 8000780:	f00e 4100 	and.w	r1, lr, #2147483648	@ 0x80000000
 8000784:	429d      	cmp	r5, r3
 8000786:	bf08      	it	eq
 8000788:	4296      	cmpeq	r6, r2
 800078a:	f144 04fd 	adc.w	r4, r4, #253	@ 0xfd
 800078e:	f504 7440 	add.w	r4, r4, #768	@ 0x300
 8000792:	d202      	bcs.n	800079a <__aeabi_ddiv+0x6e>
 8000794:	085b      	lsrs	r3, r3, #1
 8000796:	ea4f 0232 	mov.w	r2, r2, rrx
 800079a:	1ab6      	subs	r6, r6, r2
 800079c:	eb65 0503 	sbc.w	r5, r5, r3
 80007a0:	085b      	lsrs	r3, r3, #1
 80007a2:	ea4f 0232 	mov.w	r2, r2, rrx
 80007a6:	f44f 1080 	mov.w	r0, #1048576	@ 0x100000
 80007aa:	f44f 2c00 	mov.w	ip, #524288	@ 0x80000
 80007ae:	ebb6 0e02 	subs.w	lr, r6, r2
 80007b2:	eb75 0e03 	sbcs.w	lr, r5, r3
 80007b6:	bf22      	ittt	cs
 80007b8:	1ab6      	subcs	r6, r6, r2
 80007ba:	4675      	movcs	r5, lr
 80007bc:	ea40 000c 	orrcs.w	r0, r0, ip
 80007c0:	085b      	lsrs	r3, r3, #1
 80007c2:	ea4f 0232 	mov.w	r2, r2, rrx
 80007c6:	ebb6 0e02 	subs.w	lr, r6, r2
 80007ca:	eb75 0e03 	sbcs.w	lr, r5, r3
 80007ce:	bf22      	ittt	cs
 80007d0:	1ab6      	subcs	r6, r6, r2
 80007d2:	4675      	movcs	r5, lr
 80007d4:	ea40 005c 	orrcs.w	r0, r0, ip, lsr #1
 80007d8:	085b      	lsrs	r3, r3, #1
 80007da:	ea4f 0232 	mov.w	r2, r2, rrx
 80007de:	ebb6 0e02 	subs.w	lr, r6, r2
 80007e2:	eb75 0e03 	sbcs.w	lr, r5, r3
 80007e6:	bf22      	ittt	cs
 80007e8:	1ab6      	subcs	r6, r6, r2
 80007ea:	4675      	movcs	r5, lr
 80007ec:	ea40 009c 	orrcs.w	r0, r0, ip, lsr #2
 80007f0:	085b      	lsrs	r3, r3, #1
 80007f2:	ea4f 0232 	mov.w	r2, r2, rrx
 80007f6:	ebb6 0e02 	subs.w	lr, r6, r2
 80007fa:	eb75 0e03 	sbcs.w	lr, r5, r3
 80007fe:	bf22      	ittt	cs
 8000800:	1ab6      	subcs	r6, r6, r2
 8000802:	4675      	movcs	r5, lr
 8000804:	ea40 00dc 	orrcs.w	r0, r0, ip, lsr #3
 8000808:	ea55 0e06 	orrs.w	lr, r5, r6
 800080c:	d018      	beq.n	8000840 <__aeabi_ddiv+0x114>
 800080e:	ea4f 1505 	mov.w	r5, r5, lsl #4
 8000812:	ea45 7516 	orr.w	r5, r5, r6, lsr #28
 8000816:	ea4f 1606 	mov.w	r6, r6, lsl #4
 800081a:	ea4f 03c3 	mov.w	r3, r3, lsl #3
 800081e:	ea43 7352 	orr.w	r3, r3, r2, lsr #29
 8000822:	ea4f 02c2 	mov.w	r2, r2, lsl #3
 8000826:	ea5f 1c1c 	movs.w	ip, ip, lsr #4
 800082a:	d1c0      	bne.n	80007ae <__aeabi_ddiv+0x82>
 800082c:	f411 1f80 	tst.w	r1, #1048576	@ 0x100000
 8000830:	d10b      	bne.n	800084a <__aeabi_ddiv+0x11e>
 8000832:	ea41 0100 	orr.w	r1, r1, r0
 8000836:	f04f 0000 	mov.w	r0, #0
 800083a:	f04f 4c00 	mov.w	ip, #2147483648	@ 0x80000000
 800083e:	e7b6      	b.n	80007ae <__aeabi_ddiv+0x82>
 8000840:	f411 1f80 	tst.w	r1, #1048576	@ 0x100000
 8000844:	bf04      	itt	eq
 8000846:	4301      	orreq	r1, r0
 8000848:	2000      	moveq	r0, #0
 800084a:	f1b4 0cfd 	subs.w	ip, r4, #253	@ 0xfd
 800084e:	bf88      	it	hi
 8000850:	f5bc 6fe0 	cmphi.w	ip, #1792	@ 0x700
 8000854:	f63f aeaf 	bhi.w	80005b6 <__aeabi_dmul+0xde>
 8000858:	ebb5 0c03 	subs.w	ip, r5, r3
 800085c:	bf04      	itt	eq
 800085e:	ebb6 0c02 	subseq.w	ip, r6, r2
 8000862:	ea5f 0c50 	movseq.w	ip, r0, lsr #1
 8000866:	f150 0000 	adcs.w	r0, r0, #0
 800086a:	eb41 5104 	adc.w	r1, r1, r4, lsl #20
 800086e:	bd70      	pop	{r4, r5, r6, pc}
 8000870:	f00e 4e00 	and.w	lr, lr, #2147483648	@ 0x80000000
 8000874:	ea4e 3111 	orr.w	r1, lr, r1, lsr #12
 8000878:	eb14 045c 	adds.w	r4, r4, ip, lsr #1
 800087c:	bfc2      	ittt	gt
 800087e:	ebd4 050c 	rsbsgt	r5, r4, ip
 8000882:	ea41 5104 	orrgt.w	r1, r1, r4, lsl #20
 8000886:	bd70      	popgt	{r4, r5, r6, pc}
 8000888:	f441 1180 	orr.w	r1, r1, #1048576	@ 0x100000
 800088c:	f04f 0e00 	mov.w	lr, #0
 8000890:	3c01      	subs	r4, #1
 8000892:	e690      	b.n	80005b6 <__aeabi_dmul+0xde>
 8000894:	ea45 0e06 	orr.w	lr, r5, r6
 8000898:	e68d      	b.n	80005b6 <__aeabi_dmul+0xde>
 800089a:	ea0c 5513 	and.w	r5, ip, r3, lsr #20
 800089e:	ea94 0f0c 	teq	r4, ip
 80008a2:	bf08      	it	eq
 80008a4:	ea95 0f0c 	teqeq	r5, ip
 80008a8:	f43f af3b 	beq.w	8000722 <__aeabi_dmul+0x24a>
 80008ac:	ea94 0f0c 	teq	r4, ip
 80008b0:	d10a      	bne.n	80008c8 <__aeabi_ddiv+0x19c>
 80008b2:	ea50 3401 	orrs.w	r4, r0, r1, lsl #12
 80008b6:	f47f af34 	bne.w	8000722 <__aeabi_dmul+0x24a>
 80008ba:	ea95 0f0c 	teq	r5, ip
 80008be:	f47f af25 	bne.w	800070c <__aeabi_dmul+0x234>
 80008c2:	4610      	mov	r0, r2
 80008c4:	4619      	mov	r1, r3
 80008c6:	e72c      	b.n	8000722 <__aeabi_dmul+0x24a>
 80008c8:	ea95 0f0c 	teq	r5, ip
 80008cc:	d106      	bne.n	80008dc <__aeabi_ddiv+0x1b0>
 80008ce:	ea52 3503 	orrs.w	r5, r2, r3, lsl #12
 80008d2:	f43f aefd 	beq.w	80006d0 <__aeabi_dmul+0x1f8>
 80008d6:	4610      	mov	r0, r2
 80008d8:	4619      	mov	r1, r3
 80008da:	e722      	b.n	8000722 <__aeabi_dmul+0x24a>
 80008dc:	ea50 0641 	orrs.w	r6, r0, r1, lsl #1
 80008e0:	bf18      	it	ne
 80008e2:	ea52 0643 	orrsne.w	r6, r2, r3, lsl #1
 80008e6:	f47f aec5 	bne.w	8000674 <__aeabi_dmul+0x19c>
 80008ea:	ea50 0441 	orrs.w	r4, r0, r1, lsl #1
 80008ee:	f47f af0d 	bne.w	800070c <__aeabi_dmul+0x234>
 80008f2:	ea52 0543 	orrs.w	r5, r2, r3, lsl #1
 80008f6:	f47f aeeb 	bne.w	80006d0 <__aeabi_dmul+0x1f8>
 80008fa:	e712      	b.n	8000722 <__aeabi_dmul+0x24a>

080008fc <__gedf2>:
 80008fc:	f04f 3cff 	mov.w	ip, #4294967295
 8000900:	e006      	b.n	8000910 <__cmpdf2+0x4>
 8000902:	bf00      	nop

08000904 <__ledf2>:
 8000904:	f04f 0c01 	mov.w	ip, #1
 8000908:	e002      	b.n	8000910 <__cmpdf2+0x4>
 800090a:	bf00      	nop

0800090c <__cmpdf2>:
 800090c:	f04f 0c01 	mov.w	ip, #1
 8000910:	f84d cd04 	str.w	ip, [sp, #-4]!
 8000914:	ea4f 0c41 	mov.w	ip, r1, lsl #1
 8000918:	ea7f 5c6c 	mvns.w	ip, ip, asr #21
 800091c:	ea4f 0c43 	mov.w	ip, r3, lsl #1
 8000920:	bf18      	it	ne
 8000922:	ea7f 5c6c 	mvnsne.w	ip, ip, asr #21
 8000926:	d01b      	beq.n	8000960 <__cmpdf2+0x54>
 8000928:	b001      	add	sp, #4
 800092a:	ea50 0c41 	orrs.w	ip, r0, r1, lsl #1
 800092e:	bf0c      	ite	eq
 8000930:	ea52 0c43 	orrseq.w	ip, r2, r3, lsl #1
 8000934:	ea91 0f03 	teqne	r1, r3
 8000938:	bf02      	ittt	eq
 800093a:	ea90 0f02 	teqeq	r0, r2
 800093e:	2000      	moveq	r0, #0
 8000940:	4770      	bxeq	lr
 8000942:	f110 0f00 	cmn.w	r0, #0
 8000946:	ea91 0f03 	teq	r1, r3
 800094a:	bf58      	it	pl
 800094c:	4299      	cmppl	r1, r3
 800094e:	bf08      	it	eq
 8000950:	4290      	cmpeq	r0, r2
 8000952:	bf2c      	ite	cs
 8000954:	17d8      	asrcs	r0, r3, #31
 8000956:	ea6f 70e3 	mvncc.w	r0, r3, asr #31
 800095a:	f040 0001 	orr.w	r0, r0, #1
 800095e:	4770      	bx	lr
 8000960:	ea4f 0c41 	mov.w	ip, r1, lsl #1
 8000964:	ea7f 5c6c 	mvns.w	ip, ip, asr #21
 8000968:	d102      	bne.n	8000970 <__cmpdf2+0x64>
 800096a:	ea50 3c01 	orrs.w	ip, r0, r1, lsl #12
 800096e:	d107      	bne.n	8000980 <__cmpdf2+0x74>
 8000970:	ea4f 0c43 	mov.w	ip, r3, lsl #1
 8000974:	ea7f 5c6c 	mvns.w	ip, ip, asr #21
 8000978:	d1d6      	bne.n	8000928 <__cmpdf2+0x1c>
 800097a:	ea52 3c03 	orrs.w	ip, r2, r3, lsl #12
 800097e:	d0d3      	beq.n	8000928 <__cmpdf2+0x1c>
 8000980:	f85d 0b04 	ldr.w	r0, [sp], #4
 8000984:	4770      	bx	lr
 8000986:	bf00      	nop

08000988 <__aeabi_cdrcmple>:
 8000988:	4684      	mov	ip, r0
 800098a:	4610      	mov	r0, r2
 800098c:	4662      	mov	r2, ip
 800098e:	468c      	mov	ip, r1
 8000990:	4619      	mov	r1, r3
 8000992:	4663      	mov	r3, ip
 8000994:	e000      	b.n	8000998 <__aeabi_cdcmpeq>
 8000996:	bf00      	nop

08000998 <__aeabi_cdcmpeq>:
 8000998:	b501      	push	{r0, lr}
 800099a:	f7ff ffb7 	bl	800090c <__cmpdf2>
 800099e:	2800      	cmp	r0, #0
 80009a0:	bf48      	it	mi
 80009a2:	f110 0f00 	cmnmi.w	r0, #0
 80009a6:	bd01      	pop	{r0, pc}

080009a8 <__aeabi_dcmpeq>:
 80009a8:	f84d ed08 	str.w	lr, [sp, #-8]!
 80009ac:	f7ff fff4 	bl	8000998 <__aeabi_cdcmpeq>
 80009b0:	bf0c      	ite	eq
 80009b2:	2001      	moveq	r0, #1
 80009b4:	2000      	movne	r0, #0
 80009b6:	f85d fb08 	ldr.w	pc, [sp], #8
 80009ba:	bf00      	nop

080009bc <__aeabi_dcmplt>:
 80009bc:	f84d ed08 	str.w	lr, [sp, #-8]!
 80009c0:	f7ff ffea 	bl	8000998 <__aeabi_cdcmpeq>
 80009c4:	bf34      	ite	cc
 80009c6:	2001      	movcc	r0, #1
 80009c8:	2000      	movcs	r0, #0
 80009ca:	f85d fb08 	ldr.w	pc, [sp], #8
 80009ce:	bf00      	nop

080009d0 <__aeabi_dcmple>:
 80009d0:	f84d ed08 	str.w	lr, [sp, #-8]!
 80009d4:	f7ff ffe0 	bl	8000998 <__aeabi_cdcmpeq>
 80009d8:	bf94      	ite	ls
 80009da:	2001      	movls	r0, #1
 80009dc:	2000      	movhi	r0, #0
 80009de:	f85d fb08 	ldr.w	pc, [sp], #8
 80009e2:	bf00      	nop

080009e4 <__aeabi_dcmpge>:
 80009e4:	f84d ed08 	str.w	lr, [sp, #-8]!
 80009e8:	f7ff ffce 	bl	8000988 <__aeabi_cdrcmple>
 80009ec:	bf94      	ite	ls
 80009ee:	2001      	movls	r0, #1
 80009f0:	2000      	movhi	r0, #0
 80009f2:	f85d fb08 	ldr.w	pc, [sp], #8
 80009f6:	bf00      	nop

080009f8 <__aeabi_dcmpgt>:
 80009f8:	f84d ed08 	str.w	lr, [sp, #-8]!
 80009fc:	f7ff ffc4 	bl	8000988 <__aeabi_cdrcmple>
 8000a00:	bf34      	ite	cc
 8000a02:	2001      	movcc	r0, #1
 8000a04:	2000      	movcs	r0, #0
 8000a06:	f85d fb08 	ldr.w	pc, [sp], #8
 8000a0a:	bf00      	nop

08000a0c <__aeabi_dcmpun>:
 8000a0c:	ea4f 0c41 	mov.w	ip, r1, lsl #1
 8000a10:	ea7f 5c6c 	mvns.w	ip, ip, asr #21
 8000a14:	d102      	bne.n	8000a1c <__aeabi_dcmpun+0x10>
 8000a16:	ea50 3c01 	orrs.w	ip, r0, r1, lsl #12
 8000a1a:	d10a      	bne.n	8000a32 <__aeabi_dcmpun+0x26>
 8000a1c:	ea4f 0c43 	mov.w	ip, r3, lsl #1
 8000a20:	ea7f 5c6c 	mvns.w	ip, ip, asr #21
 8000a24:	d102      	bne.n	8000a2c <__aeabi_dcmpun+0x20>
 8000a26:	ea52 3c03 	orrs.w	ip, r2, r3, lsl #12
 8000a2a:	d102      	bne.n	8000a32 <__aeabi_dcmpun+0x26>
 8000a2c:	f04f 0000 	mov.w	r0, #0
 8000a30:	4770      	bx	lr
 8000a32:	f04f 0001 	mov.w	r0, #1
 8000a36:	4770      	bx	lr

08000a38 <__aeabi_d2iz>:
 8000a38:	ea4f 0241 	mov.w	r2, r1, lsl #1
 8000a3c:	f512 1200 	adds.w	r2, r2, #2097152	@ 0x200000
 8000a40:	d215      	bcs.n	8000a6e <__aeabi_d2iz+0x36>
 8000a42:	d511      	bpl.n	8000a68 <__aeabi_d2iz+0x30>
 8000a44:	f46f 7378 	mvn.w	r3, #992	@ 0x3e0
 8000a48:	ebb3 5262 	subs.w	r2, r3, r2, asr #21
 8000a4c:	d912      	bls.n	8000a74 <__aeabi_d2iz+0x3c>
 8000a4e:	ea4f 23c1 	mov.w	r3, r1, lsl #11
 8000a52:	f043 4300 	orr.w	r3, r3, #2147483648	@ 0x80000000
 8000a56:	ea43 5350 	orr.w	r3, r3, r0, lsr #21
 8000a5a:	f011 4f00 	tst.w	r1, #2147483648	@ 0x80000000
 8000a5e:	fa23 f002 	lsr.w	r0, r3, r2
 8000a62:	bf18      	it	ne
 8000a64:	4240      	negne	r0, r0
 8000a66:	4770      	bx	lr
 8000a68:	f04f 0000 	mov.w	r0, #0
 8000a6c:	4770      	bx	lr
 8000a6e:	ea50 3001 	orrs.w	r0, r0, r1, lsl #12
 8000a72:	d105      	bne.n	8000a80 <__aeabi_d2iz+0x48>
 8000a74:	f011 4000 	ands.w	r0, r1, #2147483648	@ 0x80000000
 8000a78:	bf08      	it	eq
 8000a7a:	f06f 4000 	mvneq.w	r0, #2147483648	@ 0x80000000
 8000a7e:	4770      	bx	lr
 8000a80:	f04f 0000 	mov.w	r0, #0
 8000a84:	4770      	bx	lr
 8000a86:	bf00      	nop

08000a88 <__aeabi_frsub>:
 8000a88:	f080 4000 	eor.w	r0, r0, #2147483648	@ 0x80000000
 8000a8c:	e002      	b.n	8000a94 <__addsf3>
 8000a8e:	bf00      	nop

08000a90 <__aeabi_fsub>:
 8000a90:	f081 4100 	eor.w	r1, r1, #2147483648	@ 0x80000000

08000a94 <__addsf3>:
 8000a94:	0042      	lsls	r2, r0, #1
 8000a96:	bf1f      	itttt	ne
 8000a98:	ea5f 0341 	movsne.w	r3, r1, lsl #1
 8000a9c:	ea92 0f03 	teqne	r2, r3
 8000aa0:	ea7f 6c22 	mvnsne.w	ip, r2, asr #24
 8000aa4:	ea7f 6c23 	mvnsne.w	ip, r3, asr #24
 8000aa8:	d06a      	beq.n	8000b80 <__addsf3+0xec>
 8000aaa:	ea4f 6212 	mov.w	r2, r2, lsr #24
 8000aae:	ebd2 6313 	rsbs	r3, r2, r3, lsr #24
 8000ab2:	bfc1      	itttt	gt
 8000ab4:	18d2      	addgt	r2, r2, r3
 8000ab6:	4041      	eorgt	r1, r0
 8000ab8:	4048      	eorgt	r0, r1
 8000aba:	4041      	eorgt	r1, r0
 8000abc:	bfb8      	it	lt
 8000abe:	425b      	neglt	r3, r3
 8000ac0:	2b19      	cmp	r3, #25
 8000ac2:	bf88      	it	hi
 8000ac4:	4770      	bxhi	lr
 8000ac6:	f010 4f00 	tst.w	r0, #2147483648	@ 0x80000000
 8000aca:	f440 0000 	orr.w	r0, r0, #8388608	@ 0x800000
 8000ace:	f020 407f 	bic.w	r0, r0, #4278190080	@ 0xff000000
 8000ad2:	bf18      	it	ne
 8000ad4:	4240      	negne	r0, r0
 8000ad6:	f011 4f00 	tst.w	r1, #2147483648	@ 0x80000000
 8000ada:	f441 0100 	orr.w	r1, r1, #8388608	@ 0x800000
 8000ade:	f021 417f 	bic.w	r1, r1, #4278190080	@ 0xff000000
 8000ae2:	bf18      	it	ne
 8000ae4:	4249      	negne	r1, r1
 8000ae6:	ea92 0f03 	teq	r2, r3
 8000aea:	d03f      	beq.n	8000b6c <__addsf3+0xd8>
 8000aec:	f1a2 0201 	sub.w	r2, r2, #1
 8000af0:	fa41 fc03 	asr.w	ip, r1, r3
 8000af4:	eb10 000c 	adds.w	r0, r0, ip
 8000af8:	f1c3 0320 	rsb	r3, r3, #32
 8000afc:	fa01 f103 	lsl.w	r1, r1, r3
 8000b00:	f000 4300 	and.w	r3, r0, #2147483648	@ 0x80000000
 8000b04:	d502      	bpl.n	8000b0c <__addsf3+0x78>
 8000b06:	4249      	negs	r1, r1
 8000b08:	eb60 0040 	sbc.w	r0, r0, r0, lsl #1
 8000b0c:	f5b0 0f00 	cmp.w	r0, #8388608	@ 0x800000
 8000b10:	d313      	bcc.n	8000b3a <__addsf3+0xa6>
 8000b12:	f1b0 7f80 	cmp.w	r0, #16777216	@ 0x1000000
 8000b16:	d306      	bcc.n	8000b26 <__addsf3+0x92>
 8000b18:	0840      	lsrs	r0, r0, #1
 8000b1a:	ea4f 0131 	mov.w	r1, r1, rrx
 8000b1e:	f102 0201 	add.w	r2, r2, #1
 8000b22:	2afe      	cmp	r2, #254	@ 0xfe
 8000b24:	d251      	bcs.n	8000bca <__addsf3+0x136>
 8000b26:	f1b1 4f00 	cmp.w	r1, #2147483648	@ 0x80000000
 8000b2a:	eb40 50c2 	adc.w	r0, r0, r2, lsl #23
 8000b2e:	bf08      	it	eq
 8000b30:	f020 0001 	biceq.w	r0, r0, #1
 8000b34:	ea40 0003 	orr.w	r0, r0, r3
 8000b38:	4770      	bx	lr
 8000b3a:	0049      	lsls	r1, r1, #1
 8000b3c:	eb40 0000 	adc.w	r0, r0, r0
 8000b40:	3a01      	subs	r2, #1
 8000b42:	bf28      	it	cs
 8000b44:	f5b0 0f00 	cmpcs.w	r0, #8388608	@ 0x800000
 8000b48:	d2ed      	bcs.n	8000b26 <__addsf3+0x92>
 8000b4a:	fab0 fc80 	clz	ip, r0
 8000b4e:	f1ac 0c08 	sub.w	ip, ip, #8
 8000b52:	ebb2 020c 	subs.w	r2, r2, ip
 8000b56:	fa00 f00c 	lsl.w	r0, r0, ip
 8000b5a:	bfaa      	itet	ge
 8000b5c:	eb00 50c2 	addge.w	r0, r0, r2, lsl #23
 8000b60:	4252      	neglt	r2, r2
 8000b62:	4318      	orrge	r0, r3
 8000b64:	bfbc      	itt	lt
 8000b66:	40d0      	lsrlt	r0, r2
 8000b68:	4318      	orrlt	r0, r3
 8000b6a:	4770      	bx	lr
 8000b6c:	f092 0f00 	teq	r2, #0
 8000b70:	f481 0100 	eor.w	r1, r1, #8388608	@ 0x800000
 8000b74:	bf06      	itte	eq
 8000b76:	f480 0000 	eoreq.w	r0, r0, #8388608	@ 0x800000
 8000b7a:	3201      	addeq	r2, #1
 8000b7c:	3b01      	subne	r3, #1
 8000b7e:	e7b5      	b.n	8000aec <__addsf3+0x58>
 8000b80:	ea4f 0341 	mov.w	r3, r1, lsl #1
 8000b84:	ea7f 6c22 	mvns.w	ip, r2, asr #24
 8000b88:	bf18      	it	ne
 8000b8a:	ea7f 6c23 	mvnsne.w	ip, r3, asr #24
 8000b8e:	d021      	beq.n	8000bd4 <__addsf3+0x140>
 8000b90:	ea92 0f03 	teq	r2, r3
 8000b94:	d004      	beq.n	8000ba0 <__addsf3+0x10c>
 8000b96:	f092 0f00 	teq	r2, #0
 8000b9a:	bf08      	it	eq
 8000b9c:	4608      	moveq	r0, r1
 8000b9e:	4770      	bx	lr
 8000ba0:	ea90 0f01 	teq	r0, r1
 8000ba4:	bf1c      	itt	ne
 8000ba6:	2000      	movne	r0, #0
 8000ba8:	4770      	bxne	lr
 8000baa:	f012 4f7f 	tst.w	r2, #4278190080	@ 0xff000000
 8000bae:	d104      	bne.n	8000bba <__addsf3+0x126>
 8000bb0:	0040      	lsls	r0, r0, #1
 8000bb2:	bf28      	it	cs
 8000bb4:	f040 4000 	orrcs.w	r0, r0, #2147483648	@ 0x80000000
 8000bb8:	4770      	bx	lr
 8000bba:	f112 7200 	adds.w	r2, r2, #33554432	@ 0x2000000
 8000bbe:	bf3c      	itt	cc
 8000bc0:	f500 0000 	addcc.w	r0, r0, #8388608	@ 0x800000
 8000bc4:	4770      	bxcc	lr
 8000bc6:	f000 4300 	and.w	r3, r0, #2147483648	@ 0x80000000
 8000bca:	f043 40fe 	orr.w	r0, r3, #2130706432	@ 0x7f000000
 8000bce:	f440 0000 	orr.w	r0, r0, #8388608	@ 0x800000
 8000bd2:	4770      	bx	lr
 8000bd4:	ea7f 6222 	mvns.w	r2, r2, asr #24
 8000bd8:	bf16      	itet	ne
 8000bda:	4608      	movne	r0, r1
 8000bdc:	ea7f 6323 	mvnseq.w	r3, r3, asr #24
 8000be0:	4601      	movne	r1, r0
 8000be2:	0242      	lsls	r2, r0, #9
 8000be4:	bf06      	itte	eq
 8000be6:	ea5f 2341 	movseq.w	r3, r1, lsl #9
 8000bea:	ea90 0f01 	teqeq	r0, r1
 8000bee:	f440 0080 	orrne.w	r0, r0, #4194304	@ 0x400000
 8000bf2:	4770      	bx	lr

08000bf4 <__aeabi_ui2f>:
 8000bf4:	f04f 0300 	mov.w	r3, #0
 8000bf8:	e004      	b.n	8000c04 <__aeabi_i2f+0x8>
 8000bfa:	bf00      	nop

08000bfc <__aeabi_i2f>:
 8000bfc:	f010 4300 	ands.w	r3, r0, #2147483648	@ 0x80000000
 8000c00:	bf48      	it	mi
 8000c02:	4240      	negmi	r0, r0
 8000c04:	ea5f 0c00 	movs.w	ip, r0
 8000c08:	bf08      	it	eq
 8000c0a:	4770      	bxeq	lr
 8000c0c:	f043 4396 	orr.w	r3, r3, #1258291200	@ 0x4b000000
 8000c10:	4601      	mov	r1, r0
 8000c12:	f04f 0000 	mov.w	r0, #0
 8000c16:	e01c      	b.n	8000c52 <__aeabi_l2f+0x2a>

08000c18 <__aeabi_ul2f>:
 8000c18:	ea50 0201 	orrs.w	r2, r0, r1
 8000c1c:	bf08      	it	eq
 8000c1e:	4770      	bxeq	lr
 8000c20:	f04f 0300 	mov.w	r3, #0
 8000c24:	e00a      	b.n	8000c3c <__aeabi_l2f+0x14>
 8000c26:	bf00      	nop

08000c28 <__aeabi_l2f>:
 8000c28:	ea50 0201 	orrs.w	r2, r0, r1
 8000c2c:	bf08      	it	eq
 8000c2e:	4770      	bxeq	lr
 8000c30:	f011 4300 	ands.w	r3, r1, #2147483648	@ 0x80000000
 8000c34:	d502      	bpl.n	8000c3c <__aeabi_l2f+0x14>
 8000c36:	4240      	negs	r0, r0
 8000c38:	eb61 0141 	sbc.w	r1, r1, r1, lsl #1
 8000c3c:	ea5f 0c01 	movs.w	ip, r1
 8000c40:	bf02      	ittt	eq
 8000c42:	4684      	moveq	ip, r0
 8000c44:	4601      	moveq	r1, r0
 8000c46:	2000      	moveq	r0, #0
 8000c48:	f043 43b6 	orr.w	r3, r3, #1526726656	@ 0x5b000000
 8000c4c:	bf08      	it	eq
 8000c4e:	f1a3 5380 	subeq.w	r3, r3, #268435456	@ 0x10000000
 8000c52:	f5a3 0300 	sub.w	r3, r3, #8388608	@ 0x800000
 8000c56:	fabc f28c 	clz	r2, ip
 8000c5a:	3a08      	subs	r2, #8
 8000c5c:	eba3 53c2 	sub.w	r3, r3, r2, lsl #23
 8000c60:	db10      	blt.n	8000c84 <__aeabi_l2f+0x5c>
 8000c62:	fa01 fc02 	lsl.w	ip, r1, r2
 8000c66:	4463      	add	r3, ip
 8000c68:	fa00 fc02 	lsl.w	ip, r0, r2
 8000c6c:	f1c2 0220 	rsb	r2, r2, #32
 8000c70:	f1bc 4f00 	cmp.w	ip, #2147483648	@ 0x80000000
 8000c74:	fa20 f202 	lsr.w	r2, r0, r2
 8000c78:	eb43 0002 	adc.w	r0, r3, r2
 8000c7c:	bf08      	it	eq
 8000c7e:	f020 0001 	biceq.w	r0, r0, #1
 8000c82:	4770      	bx	lr
 8000c84:	f102 0220 	add.w	r2, r2, #32
 8000c88:	fa01 fc02 	lsl.w	ip, r1, r2
 8000c8c:	f1c2 0220 	rsb	r2, r2, #32
 8000c90:	ea50 004c 	orrs.w	r0, r0, ip, lsl #1
 8000c94:	fa21 f202 	lsr.w	r2, r1, r2
 8000c98:	eb43 0002 	adc.w	r0, r3, r2
 8000c9c:	bf08      	it	eq
 8000c9e:	ea20 70dc 	biceq.w	r0, r0, ip, lsr #31
 8000ca2:	4770      	bx	lr

08000ca4 <__aeabi_fmul>:
 8000ca4:	f04f 0cff 	mov.w	ip, #255	@ 0xff
 8000ca8:	ea1c 52d0 	ands.w	r2, ip, r0, lsr #23
 8000cac:	bf1e      	ittt	ne
 8000cae:	ea1c 53d1 	andsne.w	r3, ip, r1, lsr #23
 8000cb2:	ea92 0f0c 	teqne	r2, ip
 8000cb6:	ea93 0f0c 	teqne	r3, ip
 8000cba:	d06f      	beq.n	8000d9c <__aeabi_fmul+0xf8>
 8000cbc:	441a      	add	r2, r3
 8000cbe:	ea80 0c01 	eor.w	ip, r0, r1
 8000cc2:	0240      	lsls	r0, r0, #9
 8000cc4:	bf18      	it	ne
 8000cc6:	ea5f 2141 	movsne.w	r1, r1, lsl #9
 8000cca:	d01e      	beq.n	8000d0a <__aeabi_fmul+0x66>
 8000ccc:	f04f 6300 	mov.w	r3, #134217728	@ 0x8000000
 8000cd0:	ea43 1050 	orr.w	r0, r3, r0, lsr #5
 8000cd4:	ea43 1151 	orr.w	r1, r3, r1, lsr #5
 8000cd8:	fba0 3101 	umull	r3, r1, r0, r1
 8000cdc:	f00c 4000 	and.w	r0, ip, #2147483648	@ 0x80000000
 8000ce0:	f5b1 0f00 	cmp.w	r1, #8388608	@ 0x800000
 8000ce4:	bf3e      	ittt	cc
 8000ce6:	0049      	lslcc	r1, r1, #1
 8000ce8:	ea41 71d3 	orrcc.w	r1, r1, r3, lsr #31
 8000cec:	005b      	lslcc	r3, r3, #1
 8000cee:	ea40 0001 	orr.w	r0, r0, r1
 8000cf2:	f162 027f 	sbc.w	r2, r2, #127	@ 0x7f
 8000cf6:	2afd      	cmp	r2, #253	@ 0xfd
 8000cf8:	d81d      	bhi.n	8000d36 <__aeabi_fmul+0x92>
 8000cfa:	f1b3 4f00 	cmp.w	r3, #2147483648	@ 0x80000000
 8000cfe:	eb40 50c2 	adc.w	r0, r0, r2, lsl #23
 8000d02:	bf08      	it	eq
 8000d04:	f020 0001 	biceq.w	r0, r0, #1
 8000d08:	4770      	bx	lr
 8000d0a:	f090 0f00 	teq	r0, #0
 8000d0e:	f00c 4c00 	and.w	ip, ip, #2147483648	@ 0x80000000
 8000d12:	bf08      	it	eq
 8000d14:	0249      	lsleq	r1, r1, #9
 8000d16:	ea4c 2050 	orr.w	r0, ip, r0, lsr #9
 8000d1a:	ea40 2051 	orr.w	r0, r0, r1, lsr #9
 8000d1e:	3a7f      	subs	r2, #127	@ 0x7f
 8000d20:	bfc2      	ittt	gt
 8000d22:	f1d2 03ff 	rsbsgt	r3, r2, #255	@ 0xff
 8000d26:	ea40 50c2 	orrgt.w	r0, r0, r2, lsl #23
 8000d2a:	4770      	bxgt	lr
 8000d2c:	f440 0000 	orr.w	r0, r0, #8388608	@ 0x800000
 8000d30:	f04f 0300 	mov.w	r3, #0
 8000d34:	3a01      	subs	r2, #1
 8000d36:	dc5d      	bgt.n	8000df4 <__aeabi_fmul+0x150>
 8000d38:	f112 0f19 	cmn.w	r2, #25
 8000d3c:	bfdc      	itt	le
 8000d3e:	f000 4000 	andle.w	r0, r0, #2147483648	@ 0x80000000
 8000d42:	4770      	bxle	lr
 8000d44:	f1c2 0200 	rsb	r2, r2, #0
 8000d48:	0041      	lsls	r1, r0, #1
 8000d4a:	fa21 f102 	lsr.w	r1, r1, r2
 8000d4e:	f1c2 0220 	rsb	r2, r2, #32
 8000d52:	fa00 fc02 	lsl.w	ip, r0, r2
 8000d56:	ea5f 0031 	movs.w	r0, r1, rrx
 8000d5a:	f140 0000 	adc.w	r0, r0, #0
 8000d5e:	ea53 034c 	orrs.w	r3, r3, ip, lsl #1
 8000d62:	bf08      	it	eq
 8000d64:	ea20 70dc 	biceq.w	r0, r0, ip, lsr #31
 8000d68:	4770      	bx	lr
 8000d6a:	f092 0f00 	teq	r2, #0
 8000d6e:	f000 4c00 	and.w	ip, r0, #2147483648	@ 0x80000000
 8000d72:	bf02      	ittt	eq
 8000d74:	0040      	lsleq	r0, r0, #1
 8000d76:	f410 0f00 	tsteq.w	r0, #8388608	@ 0x800000
 8000d7a:	3a01      	subeq	r2, #1
 8000d7c:	d0f9      	beq.n	8000d72 <__aeabi_fmul+0xce>
 8000d7e:	ea40 000c 	orr.w	r0, r0, ip
 8000d82:	f093 0f00 	teq	r3, #0
 8000d86:	f001 4c00 	and.w	ip, r1, #2147483648	@ 0x80000000
 8000d8a:	bf02      	ittt	eq
 8000d8c:	0049      	lsleq	r1, r1, #1
 8000d8e:	f411 0f00 	tsteq.w	r1, #8388608	@ 0x800000
 8000d92:	3b01      	subeq	r3, #1
 8000d94:	d0f9      	beq.n	8000d8a <__aeabi_fmul+0xe6>
 8000d96:	ea41 010c 	orr.w	r1, r1, ip
 8000d9a:	e78f      	b.n	8000cbc <__aeabi_fmul+0x18>
 8000d9c:	ea0c 53d1 	and.w	r3, ip, r1, lsr #23
 8000da0:	ea92 0f0c 	teq	r2, ip
 8000da4:	bf18      	it	ne
 8000da6:	ea93 0f0c 	teqne	r3, ip
 8000daa:	d00a      	beq.n	8000dc2 <__aeabi_fmul+0x11e>
 8000dac:	f030 4c00 	bics.w	ip, r0, #2147483648	@ 0x80000000
 8000db0:	bf18      	it	ne
 8000db2:	f031 4c00 	bicsne.w	ip, r1, #2147483648	@ 0x80000000
 8000db6:	d1d8      	bne.n	8000d6a <__aeabi_fmul+0xc6>
 8000db8:	ea80 0001 	eor.w	r0, r0, r1
 8000dbc:	f000 4000 	and.w	r0, r0, #2147483648	@ 0x80000000
 8000dc0:	4770      	bx	lr
 8000dc2:	f090 0f00 	teq	r0, #0
 8000dc6:	bf17      	itett	ne
 8000dc8:	f090 4f00 	teqne	r0, #2147483648	@ 0x80000000
 8000dcc:	4608      	moveq	r0, r1
 8000dce:	f091 0f00 	teqne	r1, #0
 8000dd2:	f091 4f00 	teqne	r1, #2147483648	@ 0x80000000
 8000dd6:	d014      	beq.n	8000e02 <__aeabi_fmul+0x15e>
 8000dd8:	ea92 0f0c 	teq	r2, ip
 8000ddc:	d101      	bne.n	8000de2 <__aeabi_fmul+0x13e>
 8000dde:	0242      	lsls	r2, r0, #9
 8000de0:	d10f      	bne.n	8000e02 <__aeabi_fmul+0x15e>
 8000de2:	ea93 0f0c 	teq	r3, ip
 8000de6:	d103      	bne.n	8000df0 <__aeabi_fmul+0x14c>
 8000de8:	024b      	lsls	r3, r1, #9
 8000dea:	bf18      	it	ne
 8000dec:	4608      	movne	r0, r1
 8000dee:	d108      	bne.n	8000e02 <__aeabi_fmul+0x15e>
 8000df0:	ea80 0001 	eor.w	r0, r0, r1
 8000df4:	f000 4000 	and.w	r0, r0, #2147483648	@ 0x80000000
 8000df8:	f040 40fe 	orr.w	r0, r0, #2130706432	@ 0x7f000000
 8000dfc:	f440 0000 	orr.w	r0, r0, #8388608	@ 0x800000
 8000e00:	4770      	bx	lr
 8000e02:	f040 40fe 	orr.w	r0, r0, #2130706432	@ 0x7f000000
 8000e06:	f440 0040 	orr.w	r0, r0, #12582912	@ 0xc00000
 8000e0a:	4770      	bx	lr

08000e0c <__aeabi_fdiv>:
 8000e0c:	f04f 0cff 	mov.w	ip, #255	@ 0xff
 8000e10:	ea1c 52d0 	ands.w	r2, ip, r0, lsr #23
 8000e14:	bf1e      	ittt	ne
 8000e16:	ea1c 53d1 	andsne.w	r3, ip, r1, lsr #23
 8000e1a:	ea92 0f0c 	teqne	r2, ip
 8000e1e:	ea93 0f0c 	teqne	r3, ip
 8000e22:	d069      	beq.n	8000ef8 <__aeabi_fdiv+0xec>
 8000e24:	eba2 0203 	sub.w	r2, r2, r3
 8000e28:	ea80 0c01 	eor.w	ip, r0, r1
 8000e2c:	0249      	lsls	r1, r1, #9
 8000e2e:	ea4f 2040 	mov.w	r0, r0, lsl #9
 8000e32:	d037      	beq.n	8000ea4 <__aeabi_fdiv+0x98>
 8000e34:	f04f 5380 	mov.w	r3, #268435456	@ 0x10000000
 8000e38:	ea43 1111 	orr.w	r1, r3, r1, lsr #4
 8000e3c:	ea43 1310 	orr.w	r3, r3, r0, lsr #4
 8000e40:	f00c 4000 	and.w	r0, ip, #2147483648	@ 0x80000000
 8000e44:	428b      	cmp	r3, r1
 8000e46:	bf38      	it	cc
 8000e48:	005b      	lslcc	r3, r3, #1
 8000e4a:	f142 027d 	adc.w	r2, r2, #125	@ 0x7d
 8000e4e:	f44f 0c00 	mov.w	ip, #8388608	@ 0x800000
 8000e52:	428b      	cmp	r3, r1
 8000e54:	bf24      	itt	cs
 8000e56:	1a5b      	subcs	r3, r3, r1
 8000e58:	ea40 000c 	orrcs.w	r0, r0, ip
 8000e5c:	ebb3 0f51 	cmp.w	r3, r1, lsr #1
 8000e60:	bf24      	itt	cs
 8000e62:	eba3 0351 	subcs.w	r3, r3, r1, lsr #1
 8000e66:	ea40 005c 	orrcs.w	r0, r0, ip, lsr #1
 8000e6a:	ebb3 0f91 	cmp.w	r3, r1, lsr #2
 8000e6e:	bf24      	itt	cs
 8000e70:	eba3 0391 	subcs.w	r3, r3, r1, lsr #2
 8000e74:	ea40 009c 	orrcs.w	r0, r0, ip, lsr #2
 8000e78:	ebb3 0fd1 	cmp.w	r3, r1, lsr #3
 8000e7c:	bf24      	itt	cs
 8000e7e:	eba3 03d1 	subcs.w	r3, r3, r1, lsr #3
 8000e82:	ea40 00dc 	orrcs.w	r0, r0, ip, lsr #3
 8000e86:	011b      	lsls	r3, r3, #4
 8000e88:	bf18      	it	ne
 8000e8a:	ea5f 1c1c 	movsne.w	ip, ip, lsr #4
 8000e8e:	d1e0      	bne.n	8000e52 <__aeabi_fdiv+0x46>
 8000e90:	2afd      	cmp	r2, #253	@ 0xfd
 8000e92:	f63f af50 	bhi.w	8000d36 <__aeabi_fmul+0x92>
 8000e96:	428b      	cmp	r3, r1
 8000e98:	eb40 50c2 	adc.w	r0, r0, r2, lsl #23
 8000e9c:	bf08      	it	eq
 8000e9e:	f020 0001 	biceq.w	r0, r0, #1
 8000ea2:	4770      	bx	lr
 8000ea4:	f00c 4c00 	and.w	ip, ip, #2147483648	@ 0x80000000
 8000ea8:	ea4c 2050 	orr.w	r0, ip, r0, lsr #9
 8000eac:	327f      	adds	r2, #127	@ 0x7f
 8000eae:	bfc2      	ittt	gt
 8000eb0:	f1d2 03ff 	rsbsgt	r3, r2, #255	@ 0xff
 8000eb4:	ea40 50c2 	orrgt.w	r0, r0, r2, lsl #23
 8000eb8:	4770      	bxgt	lr
 8000eba:	f440 0000 	orr.w	r0, r0, #8388608	@ 0x800000
 8000ebe:	f04f 0300 	mov.w	r3, #0
 8000ec2:	3a01      	subs	r2, #1
 8000ec4:	e737      	b.n	8000d36 <__aeabi_fmul+0x92>
 8000ec6:	f092 0f00 	teq	r2, #0
 8000eca:	f000 4c00 	and.w	ip, r0, #2147483648	@ 0x80000000
 8000ece:	bf02      	ittt	eq
 8000ed0:	0040      	lsleq	r0, r0, #1
 8000ed2:	f410 0f00 	tsteq.w	r0, #8388608	@ 0x800000
 8000ed6:	3a01      	subeq	r2, #1
 8000ed8:	d0f9      	beq.n	8000ece <__aeabi_fdiv+0xc2>
 8000eda:	ea40 000c 	orr.w	r0, r0, ip
 8000ede:	f093 0f00 	teq	r3, #0
 8000ee2:	f001 4c00 	and.w	ip, r1, #2147483648	@ 0x80000000
 8000ee6:	bf02      	ittt	eq
 8000ee8:	0049      	lsleq	r1, r1, #1
 8000eea:	f411 0f00 	tsteq.w	r1, #8388608	@ 0x800000
 8000eee:	3b01      	subeq	r3, #1
 8000ef0:	d0f9      	beq.n	8000ee6 <__aeabi_fdiv+0xda>
 8000ef2:	ea41 010c 	orr.w	r1, r1, ip
 8000ef6:	e795      	b.n	8000e24 <__aeabi_fdiv+0x18>
 8000ef8:	ea0c 53d1 	and.w	r3, ip, r1, lsr #23
 8000efc:	ea92 0f0c 	teq	r2, ip
 8000f00:	d108      	bne.n	8000f14 <__aeabi_fdiv+0x108>
 8000f02:	0242      	lsls	r2, r0, #9
 8000f04:	f47f af7d 	bne.w	8000e02 <__aeabi_fmul+0x15e>
 8000f08:	ea93 0f0c 	teq	r3, ip
 8000f0c:	f47f af70 	bne.w	8000df0 <__aeabi_fmul+0x14c>
 8000f10:	4608      	mov	r0, r1
 8000f12:	e776      	b.n	8000e02 <__aeabi_fmul+0x15e>
 8000f14:	ea93 0f0c 	teq	r3, ip
 8000f18:	d104      	bne.n	8000f24 <__aeabi_fdiv+0x118>
 8000f1a:	024b      	lsls	r3, r1, #9
 8000f1c:	f43f af4c 	beq.w	8000db8 <__aeabi_fmul+0x114>
 8000f20:	4608      	mov	r0, r1
 8000f22:	e76e      	b.n	8000e02 <__aeabi_fmul+0x15e>
 8000f24:	f030 4c00 	bics.w	ip, r0, #2147483648	@ 0x80000000
 8000f28:	bf18      	it	ne
 8000f2a:	f031 4c00 	bicsne.w	ip, r1, #2147483648	@ 0x80000000
 8000f2e:	d1ca      	bne.n	8000ec6 <__aeabi_fdiv+0xba>
 8000f30:	f030 4200 	bics.w	r2, r0, #2147483648	@ 0x80000000
 8000f34:	f47f af5c 	bne.w	8000df0 <__aeabi_fmul+0x14c>
 8000f38:	f031 4300 	bics.w	r3, r1, #2147483648	@ 0x80000000
 8000f3c:	f47f af3c 	bne.w	8000db8 <__aeabi_fmul+0x114>
 8000f40:	e75f      	b.n	8000e02 <__aeabi_fmul+0x15e>
 8000f42:	bf00      	nop

08000f44 <__gesf2>:
 8000f44:	f04f 3cff 	mov.w	ip, #4294967295
 8000f48:	e006      	b.n	8000f58 <__cmpsf2+0x4>
 8000f4a:	bf00      	nop

08000f4c <__lesf2>:
 8000f4c:	f04f 0c01 	mov.w	ip, #1
 8000f50:	e002      	b.n	8000f58 <__cmpsf2+0x4>
 8000f52:	bf00      	nop

08000f54 <__cmpsf2>:
 8000f54:	f04f 0c01 	mov.w	ip, #1
 8000f58:	f84d cd04 	str.w	ip, [sp, #-4]!
 8000f5c:	ea4f 0240 	mov.w	r2, r0, lsl #1
 8000f60:	ea4f 0341 	mov.w	r3, r1, lsl #1
 8000f64:	ea7f 6c22 	mvns.w	ip, r2, asr #24
 8000f68:	bf18      	it	ne
 8000f6a:	ea7f 6c23 	mvnsne.w	ip, r3, asr #24
 8000f6e:	d011      	beq.n	8000f94 <__cmpsf2+0x40>
 8000f70:	b001      	add	sp, #4
 8000f72:	ea52 0c53 	orrs.w	ip, r2, r3, lsr #1
 8000f76:	bf18      	it	ne
 8000f78:	ea90 0f01 	teqne	r0, r1
 8000f7c:	bf58      	it	pl
 8000f7e:	ebb2 0003 	subspl.w	r0, r2, r3
 8000f82:	bf88      	it	hi
 8000f84:	17c8      	asrhi	r0, r1, #31
 8000f86:	bf38      	it	cc
 8000f88:	ea6f 70e1 	mvncc.w	r0, r1, asr #31
 8000f8c:	bf18      	it	ne
 8000f8e:	f040 0001 	orrne.w	r0, r0, #1
 8000f92:	4770      	bx	lr
 8000f94:	ea7f 6c22 	mvns.w	ip, r2, asr #24
 8000f98:	d102      	bne.n	8000fa0 <__cmpsf2+0x4c>
 8000f9a:	ea5f 2c40 	movs.w	ip, r0, lsl #9
 8000f9e:	d105      	bne.n	8000fac <__cmpsf2+0x58>
 8000fa0:	ea7f 6c23 	mvns.w	ip, r3, asr #24
 8000fa4:	d1e4      	bne.n	8000f70 <__cmpsf2+0x1c>
 8000fa6:	ea5f 2c41 	movs.w	ip, r1, lsl #9
 8000faa:	d0e1      	beq.n	8000f70 <__cmpsf2+0x1c>
 8000fac:	f85d 0b04 	ldr.w	r0, [sp], #4
 8000fb0:	4770      	bx	lr
 8000fb2:	bf00      	nop

08000fb4 <__aeabi_cfrcmple>:
 8000fb4:	4684      	mov	ip, r0
 8000fb6:	4608      	mov	r0, r1
 8000fb8:	4661      	mov	r1, ip
 8000fba:	e7ff      	b.n	8000fbc <__aeabi_cfcmpeq>

08000fbc <__aeabi_cfcmpeq>:
 8000fbc:	b50f      	push	{r0, r1, r2, r3, lr}
 8000fbe:	f7ff ffc9 	bl	8000f54 <__cmpsf2>
 8000fc2:	2800      	cmp	r0, #0
 8000fc4:	bf48      	it	mi
 8000fc6:	f110 0f00 	cmnmi.w	r0, #0
 8000fca:	bd0f      	pop	{r0, r1, r2, r3, pc}

08000fcc <__aeabi_fcmpeq>:
 8000fcc:	f84d ed08 	str.w	lr, [sp, #-8]!
 8000fd0:	f7ff fff4 	bl	8000fbc <__aeabi_cfcmpeq>
 8000fd4:	bf0c      	ite	eq
 8000fd6:	2001      	moveq	r0, #1
 8000fd8:	2000      	movne	r0, #0
 8000fda:	f85d fb08 	ldr.w	pc, [sp], #8
 8000fde:	bf00      	nop

08000fe0 <__aeabi_fcmplt>:
 8000fe0:	f84d ed08 	str.w	lr, [sp, #-8]!
 8000fe4:	f7ff ffea 	bl	8000fbc <__aeabi_cfcmpeq>
 8000fe8:	bf34      	ite	cc
 8000fea:	2001      	movcc	r0, #1
 8000fec:	2000      	movcs	r0, #0
 8000fee:	f85d fb08 	ldr.w	pc, [sp], #8
 8000ff2:	bf00      	nop

08000ff4 <__aeabi_fcmple>:
 8000ff4:	f84d ed08 	str.w	lr, [sp, #-8]!
 8000ff8:	f7ff ffe0 	bl	8000fbc <__aeabi_cfcmpeq>
 8000ffc:	bf94      	ite	ls
 8000ffe:	2001      	movls	r0, #1
 8001000:	2000      	movhi	r0, #0
 8001002:	f85d fb08 	ldr.w	pc, [sp], #8
 8001006:	bf00      	nop

08001008 <__aeabi_fcmpge>:
 8001008:	f84d ed08 	str.w	lr, [sp, #-8]!
 800100c:	f7ff ffd2 	bl	8000fb4 <__aeabi_cfrcmple>
 8001010:	bf94      	ite	ls
 8001012:	2001      	movls	r0, #1
 8001014:	2000      	movhi	r0, #0
 8001016:	f85d fb08 	ldr.w	pc, [sp], #8
 800101a:	bf00      	nop

0800101c <__aeabi_fcmpgt>:
 800101c:	f84d ed08 	str.w	lr, [sp, #-8]!
 8001020:	f7ff ffc8 	bl	8000fb4 <__aeabi_cfrcmple>
 8001024:	bf34      	ite	cc
 8001026:	2001      	movcc	r0, #1
 8001028:	2000      	movcs	r0, #0
 800102a:	f85d fb08 	ldr.w	pc, [sp], #8
 800102e:	bf00      	nop

08001030 <__aeabi_f2uiz>:
 8001030:	0042      	lsls	r2, r0, #1
 8001032:	d20e      	bcs.n	8001052 <__aeabi_f2uiz+0x22>
 8001034:	f1b2 4ffe 	cmp.w	r2, #2130706432	@ 0x7f000000
 8001038:	d30b      	bcc.n	8001052 <__aeabi_f2uiz+0x22>
 800103a:	f04f 039e 	mov.w	r3, #158	@ 0x9e
 800103e:	ebb3 6212 	subs.w	r2, r3, r2, lsr #24
 8001042:	d409      	bmi.n	8001058 <__aeabi_f2uiz+0x28>
 8001044:	ea4f 2300 	mov.w	r3, r0, lsl #8
 8001048:	f043 4300 	orr.w	r3, r3, #2147483648	@ 0x80000000
 800104c:	fa23 f002 	lsr.w	r0, r3, r2
 8001050:	4770      	bx	lr
 8001052:	f04f 0000 	mov.w	r0, #0
 8001056:	4770      	bx	lr
 8001058:	f112 0f61 	cmn.w	r2, #97	@ 0x61
 800105c:	d101      	bne.n	8001062 <__aeabi_f2uiz+0x32>
 800105e:	0242      	lsls	r2, r0, #9
 8001060:	d102      	bne.n	8001068 <__aeabi_f2uiz+0x38>
 8001062:	f04f 30ff 	mov.w	r0, #4294967295
 8001066:	4770      	bx	lr
 8001068:	f04f 0000 	mov.w	r0, #0
 800106c:	4770      	bx	lr
 800106e:	bf00      	nop

08001070 <ChargeControl_CheckSK60XConditions>:
 8001070:	b510      	push	{r4, lr}
 8001072:	4c07      	ldr	r4, [pc, #28]	@ (8001090 <ChargeControl_CheckSK60XConditions+0x20>)
 8001074:	8960      	ldrh	r0, [r4, #10]
 8001076:	f7ff fdc1 	bl	8000bfc <__aeabi_i2f>
 800107a:	4906      	ldr	r1, [pc, #24]	@ (8001094 <ChargeControl_CheckSK60XConditions+0x24>)
 800107c:	f7ff ffc4 	bl	8001008 <__aeabi_fcmpge>
 8001080:	b120      	cbz	r0, 800108c <ChargeControl_CheckSK60XConditions+0x1c>
 8001082:	88a0      	ldrh	r0, [r4, #4]
 8001084:	8823      	ldrh	r3, [r4, #0]
 8001086:	1ac3      	subs	r3, r0, r3
 8001088:	4258      	negs	r0, r3
 800108a:	4158      	adcs	r0, r3
 800108c:	bd10      	pop	{r4, pc}
 800108e:	bf00      	nop
 8001090:	200009d6 	.word	0x200009d6
 8001094:	41c00000 	.word	0x41c00000

08001098 <ChargeControl_SetChargeRelay>:
 8001098:	4b05      	ldr	r3, [pc, #20]	@ (80010b0 <ChargeControl_SetChargeRelay+0x18>)
 800109a:	4602      	mov	r2, r0
 800109c:	7859      	ldrb	r1, [r3, #1]
 800109e:	4281      	cmp	r1, r0
 80010a0:	d004      	beq.n	80010ac <ChargeControl_SetChargeRelay+0x14>
 80010a2:	7058      	strb	r0, [r3, #1]
 80010a4:	2102      	movs	r1, #2
 80010a6:	4803      	ldr	r0, [pc, #12]	@ (80010b4 <ChargeControl_SetChargeRelay+0x1c>)
 80010a8:	f002 b96a 	b.w	8003380 <HAL_GPIO_WritePin>
 80010ac:	4770      	bx	lr
 80010ae:	bf00      	nop
 80010b0:	20000204 	.word	0x20000204
 80010b4:	40010c00 	.word	0x40010c00

080010b8 <ChargeControl_HandleRequest>:
 80010b8:	4a04      	ldr	r2, [pc, #16]	@ (80010cc <ChargeControl_HandleRequest+0x14>)
 80010ba:	7811      	ldrb	r1, [r2, #0]
 80010bc:	4281      	cmp	r1, r0
 80010be:	d004      	beq.n	80010ca <ChargeControl_HandleRequest+0x12>
 80010c0:	7010      	strb	r0, [r2, #0]
 80010c2:	b910      	cbnz	r0, 80010ca <ChargeControl_HandleRequest+0x12>
 80010c4:	7090      	strb	r0, [r2, #2]
 80010c6:	f7ff bfe7 	b.w	8001098 <ChargeControl_SetChargeRelay>
 80010ca:	4770      	bx	lr
 80010cc:	20000204 	.word	0x20000204

080010d0 <ChargeControl_GetChargeStateForModbus>:
 80010d0:	4b02      	ldr	r3, [pc, #8]	@ (80010dc <ChargeControl_GetChargeStateForModbus+0xc>)
 80010d2:	7818      	ldrb	r0, [r3, #0]
 80010d4:	b100      	cbz	r0, 80010d8 <ChargeControl_GetChargeStateForModbus+0x8>
 80010d6:	7898      	ldrb	r0, [r3, #2]
 80010d8:	4770      	bx	lr
 80010da:	bf00      	nop
 80010dc:	20000204 	.word	0x20000204

080010e0 <ChargeControl_Process>:
 80010e0:	b538      	push	{r3, r4, r5, lr}
 80010e2:	f001 ff8f 	bl	8003004 <HAL_GetTick>
 80010e6:	4c1b      	ldr	r4, [pc, #108]	@ (8001154 <ChargeControl_Process+0x74>)
 80010e8:	6863      	ldr	r3, [r4, #4]
 80010ea:	78a5      	ldrb	r5, [r4, #2]
 80010ec:	1ac3      	subs	r3, r0, r3
 80010ee:	2b63      	cmp	r3, #99	@ 0x63
 80010f0:	d801      	bhi.n	80010f6 <ChargeControl_Process+0x16>
 80010f2:	4628      	mov	r0, r5
 80010f4:	bd38      	pop	{r3, r4, r5, pc}
 80010f6:	2d01      	cmp	r5, #1
 80010f8:	6060      	str	r0, [r4, #4]
 80010fa:	d008      	beq.n	800110e <ChargeControl_Process+0x2e>
 80010fc:	2d02      	cmp	r5, #2
 80010fe:	d01b      	beq.n	8001138 <ChargeControl_Process+0x58>
 8001100:	b95d      	cbnz	r5, 800111a <ChargeControl_Process+0x3a>
 8001102:	7823      	ldrb	r3, [r4, #0]
 8001104:	b14b      	cbz	r3, 800111a <ChargeControl_Process+0x3a>
 8001106:	f001 fce1 	bl	8002acc <SK60X_Read_Data>
 800110a:	2301      	movs	r3, #1
 800110c:	e012      	b.n	8001134 <ChargeControl_Process+0x54>
 800110e:	7823      	ldrb	r3, [r4, #0]
 8001110:	b92b      	cbnz	r3, 800111e <ChargeControl_Process+0x3e>
 8001112:	2000      	movs	r0, #0
 8001114:	70a0      	strb	r0, [r4, #2]
 8001116:	f7ff ffbf 	bl	8001098 <ChargeControl_SetChargeRelay>
 800111a:	78a0      	ldrb	r0, [r4, #2]
 800111c:	e7ea      	b.n	80010f4 <ChargeControl_Process+0x14>
 800111e:	f001 fcd5 	bl	8002acc <SK60X_Read_Data>
 8001122:	f7ff ffa5 	bl	8001070 <ChargeControl_CheckSK60XConditions>
 8001126:	70e0      	strb	r0, [r4, #3]
 8001128:	2800      	cmp	r0, #0
 800112a:	d0f6      	beq.n	800111a <ChargeControl_Process+0x3a>
 800112c:	4628      	mov	r0, r5
 800112e:	f7ff ffb3 	bl	8001098 <ChargeControl_SetChargeRelay>
 8001132:	2302      	movs	r3, #2
 8001134:	70a3      	strb	r3, [r4, #2]
 8001136:	e7f0      	b.n	800111a <ChargeControl_Process+0x3a>
 8001138:	7823      	ldrb	r3, [r4, #0]
 800113a:	2b00      	cmp	r3, #0
 800113c:	d0e9      	beq.n	8001112 <ChargeControl_Process+0x32>
 800113e:	f001 fcc5 	bl	8002acc <SK60X_Read_Data>
 8001142:	f7ff ff95 	bl	8001070 <ChargeControl_CheckSK60XConditions>
 8001146:	70e0      	strb	r0, [r4, #3]
 8001148:	2800      	cmp	r0, #0
 800114a:	d1e6      	bne.n	800111a <ChargeControl_Process+0x3a>
 800114c:	f7ff ffa4 	bl	8001098 <ChargeControl_SetChargeRelay>
 8001150:	e7db      	b.n	800110a <ChargeControl_Process+0x2a>
 8001152:	bf00      	nop
 8001154:	20000204 	.word	0x20000204

08001158 <DalyBMS_Request>:
 8001158:	b510      	push	{r4, lr}
 800115a:	2300      	movs	r3, #0
 800115c:	24a5      	movs	r4, #165	@ 0xa5
 800115e:	4910      	ldr	r1, [pc, #64]	@ (80011a0 <DalyBMS_Request+0x48>)
 8001160:	1f0a      	subs	r2, r1, #4
 8001162:	600b      	str	r3, [r1, #0]
 8001164:	604b      	str	r3, [r1, #4]
 8001166:	720b      	strb	r3, [r1, #8]
 8001168:	f801 4c04 	strb.w	r4, [r1, #-4]
 800116c:	2140      	movs	r1, #64	@ 0x40
 800116e:	7051      	strb	r1, [r2, #1]
 8001170:	2108      	movs	r1, #8
 8001172:	7090      	strb	r0, [r2, #2]
 8001174:	70d1      	strb	r1, [r2, #3]
 8001176:	4610      	mov	r0, r2
 8001178:	4619      	mov	r1, r3
 800117a:	f812 4b01 	ldrb.w	r4, [r2], #1
 800117e:	3301      	adds	r3, #1
 8001180:	4421      	add	r1, r4
 8001182:	2b0b      	cmp	r3, #11
 8001184:	b2c9      	uxtb	r1, r1
 8001186:	d1f8      	bne.n	800117a <DalyBMS_Request+0x22>
 8001188:	7301      	strb	r1, [r0, #12]
 800118a:	2364      	movs	r3, #100	@ 0x64
 800118c:	220d      	movs	r2, #13
 800118e:	4905      	ldr	r1, [pc, #20]	@ (80011a4 <DalyBMS_Request+0x4c>)
 8001190:	4805      	ldr	r0, [pc, #20]	@ (80011a8 <DalyBMS_Request+0x50>)
 8001192:	f004 f8c0 	bl	8005316 <HAL_UART_Transmit>
 8001196:	fab0 f080 	clz	r0, r0
 800119a:	0940      	lsrs	r0, r0, #5
 800119c:	bd10      	pop	{r4, pc}
 800119e:	bf00      	nop
 80011a0:	2000035f 	.word	0x2000035f
 80011a4:	2000035b 	.word	0x2000035b
 80011a8:	200006ac 	.word	0x200006ac

080011ac <DalyBMS_Recive>:
 80011ac:	b5f8      	push	{r3, r4, r5, r6, r7, lr}
 80011ae:	2234      	movs	r2, #52	@ 0x34
 80011b0:	4604      	mov	r4, r0
 80011b2:	2100      	movs	r1, #0
 80011b4:	481b      	ldr	r0, [pc, #108]	@ (8001224 <DalyBMS_Recive+0x78>)
 80011b6:	f006 ffb2 	bl	800811e <memset>
 80011ba:	2234      	movs	r2, #52	@ 0x34
 80011bc:	2100      	movs	r1, #0
 80011be:	481a      	ldr	r0, [pc, #104]	@ (8001228 <DalyBMS_Recive+0x7c>)
 80011c0:	f006 ffad 	bl	800811e <memset>
 80011c4:	220d      	movs	r2, #13
 80011c6:	23c8      	movs	r3, #200	@ 0xc8
 80011c8:	4362      	muls	r2, r4
 80011ca:	4916      	ldr	r1, [pc, #88]	@ (8001224 <DalyBMS_Recive+0x78>)
 80011cc:	4817      	ldr	r0, [pc, #92]	@ (800122c <DalyBMS_Recive+0x80>)
 80011ce:	f004 f8f0 	bl	80053b2 <HAL_UART_Receive>
 80011d2:	4603      	mov	r3, r0
 80011d4:	b928      	cbnz	r0, 80011e2 <DalyBMS_Recive+0x36>
 80011d6:	4914      	ldr	r1, [pc, #80]	@ (8001228 <DalyBMS_Recive+0x7c>)
 80011d8:	4812      	ldr	r0, [pc, #72]	@ (8001224 <DalyBMS_Recive+0x78>)
 80011da:	429c      	cmp	r4, r3
 80011dc:	d803      	bhi.n	80011e6 <DalyBMS_Recive+0x3a>
 80011de:	2001      	movs	r0, #1
 80011e0:	e000      	b.n	80011e4 <DalyBMS_Recive+0x38>
 80011e2:	2000      	movs	r0, #0
 80011e4:	bdf8      	pop	{r3, r4, r5, r6, r7, pc}
 80011e6:	460f      	mov	r7, r1
 80011e8:	4602      	mov	r2, r0
 80011ea:	460d      	mov	r5, r1
 80011ec:	f100 060c 	add.w	r6, r0, #12
 80011f0:	f852 cb04 	ldr.w	ip, [r2], #4
 80011f4:	42b2      	cmp	r2, r6
 80011f6:	f845 cb04 	str.w	ip, [r5], #4
 80011fa:	d1f9      	bne.n	80011f0 <DalyBMS_Recive+0x44>
 80011fc:	7812      	ldrb	r2, [r2, #0]
 80011fe:	460e      	mov	r6, r1
 8001200:	702a      	strb	r2, [r5, #0]
 8001202:	2200      	movs	r2, #0
 8001204:	4615      	mov	r5, r2
 8001206:	f816 cb01 	ldrb.w	ip, [r6], #1
 800120a:	3501      	adds	r5, #1
 800120c:	4462      	add	r2, ip
 800120e:	2d0c      	cmp	r5, #12
 8001210:	b2d2      	uxtb	r2, r2
 8001212:	d1f8      	bne.n	8001206 <DalyBMS_Recive+0x5a>
 8001214:	7b3d      	ldrb	r5, [r7, #12]
 8001216:	310d      	adds	r1, #13
 8001218:	4295      	cmp	r5, r2
 800121a:	f100 000d 	add.w	r0, r0, #13
 800121e:	d1e0      	bne.n	80011e2 <DalyBMS_Recive+0x36>
 8001220:	3301      	adds	r3, #1
 8001222:	e7da      	b.n	80011da <DalyBMS_Recive+0x2e>
 8001224:	200002f3 	.word	0x200002f3
 8001228:	20000327 	.word	0x20000327
 800122c:	200006ac 	.word	0x200006ac

08001230 <DalyBMS_Get_Pack_Data>:
 8001230:	b5f8      	push	{r3, r4, r5, r6, r7, lr}
 8001232:	2090      	movs	r0, #144	@ 0x90
 8001234:	f7ff ff90 	bl	8001158 <DalyBMS_Request>
 8001238:	b910      	cbnz	r0, 8001240 <DalyBMS_Get_Pack_Data+0x10>
 800123a:	2500      	movs	r5, #0
 800123c:	4628      	mov	r0, r5
 800123e:	bdf8      	pop	{r3, r4, r5, r6, r7, pc}
 8001240:	2001      	movs	r0, #1
 8001242:	f7ff ffb3 	bl	80011ac <DalyBMS_Recive>
 8001246:	4605      	mov	r5, r0
 8001248:	2800      	cmp	r0, #0
 800124a:	d0f6      	beq.n	800123a <DalyBMS_Get_Pack_Data+0xa>
 800124c:	4f12      	ldr	r7, [pc, #72]	@ (8001298 <DalyBMS_Get_Pack_Data+0x68>)
 800124e:	893c      	ldrh	r4, [r7, #8]
 8001250:	ba64      	rev16	r4, r4
 8001252:	b2a4      	uxth	r4, r4
 8001254:	f5a4 44ea 	sub.w	r4, r4, #29952	@ 0x7500
 8001258:	3c30      	subs	r4, #48	@ 0x30
 800125a:	4620      	mov	r0, r4
 800125c:	f7ff fcce 	bl	8000bfc <__aeabi_i2f>
 8001260:	490e      	ldr	r1, [pc, #56]	@ (800129c <DalyBMS_Get_Pack_Data+0x6c>)
 8001262:	f7ff fdd3 	bl	8000e0c <__aeabi_fdiv>
 8001266:	490e      	ldr	r1, [pc, #56]	@ (80012a0 <DalyBMS_Get_Pack_Data+0x70>)
 8001268:	f7ff feb0 	bl	8000fcc <__aeabi_fcmpeq>
 800126c:	2800      	cmp	r0, #0
 800126e:	d1e4      	bne.n	800123a <DalyBMS_Get_Pack_Data+0xa>
 8001270:	897e      	ldrh	r6, [r7, #10]
 8001272:	ba76      	rev16	r6, r6
 8001274:	b2b0      	uxth	r0, r6
 8001276:	f7ff fcc1 	bl	8000bfc <__aeabi_i2f>
 800127a:	4908      	ldr	r1, [pc, #32]	@ (800129c <DalyBMS_Get_Pack_Data+0x6c>)
 800127c:	f7ff fdc6 	bl	8000e0c <__aeabi_fdiv>
 8001280:	4908      	ldr	r1, [pc, #32]	@ (80012a4 <DalyBMS_Get_Pack_Data+0x74>)
 8001282:	f7ff fecb 	bl	800101c <__aeabi_fcmpgt>
 8001286:	2800      	cmp	r0, #0
 8001288:	d1d7      	bne.n	800123a <DalyBMS_Get_Pack_Data+0xa>
 800128a:	88ba      	ldrh	r2, [r7, #4]
 800128c:	4b06      	ldr	r3, [pc, #24]	@ (80012a8 <DalyBMS_Get_Pack_Data+0x78>)
 800128e:	ba52      	rev16	r2, r2
 8001290:	821a      	strh	r2, [r3, #16]
 8001292:	825c      	strh	r4, [r3, #18]
 8001294:	829e      	strh	r6, [r3, #20]
 8001296:	e7d1      	b.n	800123c <DalyBMS_Get_Pack_Data+0xc>
 8001298:	20000327 	.word	0x20000327
 800129c:	41200000 	.word	0x41200000
 80012a0:	c53b8000 	.word	0xc53b8000
 80012a4:	42c80000 	.word	0x42c80000
 80012a8:	20000218 	.word	0x20000218

080012ac <DalyBMS_Get_Min_Max_Cell_Voltage>:
 80012ac:	b510      	push	{r4, lr}
 80012ae:	2091      	movs	r0, #145	@ 0x91
 80012b0:	f7ff ff52 	bl	8001158 <DalyBMS_Request>
 80012b4:	b908      	cbnz	r0, 80012ba <DalyBMS_Get_Min_Max_Cell_Voltage+0xe>
 80012b6:	2000      	movs	r0, #0
 80012b8:	bd10      	pop	{r4, pc}
 80012ba:	2001      	movs	r0, #1
 80012bc:	f7ff ff76 	bl	80011ac <DalyBMS_Recive>
 80012c0:	2800      	cmp	r0, #0
 80012c2:	d0f8      	beq.n	80012b6 <DalyBMS_Get_Min_Max_Cell_Voltage+0xa>
 80012c4:	4c07      	ldr	r4, [pc, #28]	@ (80012e4 <DalyBMS_Get_Min_Max_Cell_Voltage+0x38>)
 80012c6:	4a08      	ldr	r2, [pc, #32]	@ (80012e8 <DalyBMS_Get_Min_Max_Cell_Voltage+0x3c>)
 80012c8:	79a1      	ldrb	r1, [r4, #6]
 80012ca:	88a3      	ldrh	r3, [r4, #4]
 80012cc:	7691      	strb	r1, [r2, #26]
 80012ce:	f8b4 1007 	ldrh.w	r1, [r4, #7]
 80012d2:	ba5b      	rev16	r3, r3
 80012d4:	ba49      	rev16	r1, r1
 80012d6:	7a64      	ldrb	r4, [r4, #9]
 80012d8:	82d3      	strh	r3, [r2, #22]
 80012da:	1a5b      	subs	r3, r3, r1
 80012dc:	8311      	strh	r1, [r2, #24]
 80012de:	76d4      	strb	r4, [r2, #27]
 80012e0:	7713      	strb	r3, [r2, #28]
 80012e2:	e7e9      	b.n	80012b8 <DalyBMS_Get_Min_Max_Cell_Voltage+0xc>
 80012e4:	20000327 	.word	0x20000327
 80012e8:	20000218 	.word	0x20000218

080012ec <DalyBMS_Get_Pack_Temperature>:
 80012ec:	b508      	push	{r3, lr}
 80012ee:	2092      	movs	r0, #146	@ 0x92
 80012f0:	f7ff ff32 	bl	8001158 <DalyBMS_Request>
 80012f4:	b908      	cbnz	r0, 80012fa <DalyBMS_Get_Pack_Temperature+0xe>
 80012f6:	2000      	movs	r0, #0
 80012f8:	bd08      	pop	{r3, pc}
 80012fa:	2001      	movs	r0, #1
 80012fc:	f7ff ff56 	bl	80011ac <DalyBMS_Recive>
 8001300:	2800      	cmp	r0, #0
 8001302:	d0f8      	beq.n	80012f6 <DalyBMS_Get_Pack_Temperature+0xa>
 8001304:	4a05      	ldr	r2, [pc, #20]	@ (800131c <DalyBMS_Get_Pack_Temperature+0x30>)
 8001306:	7913      	ldrb	r3, [r2, #4]
 8001308:	7992      	ldrb	r2, [r2, #6]
 800130a:	4413      	add	r3, r2
 800130c:	3b50      	subs	r3, #80	@ 0x50
 800130e:	4a04      	ldr	r2, [pc, #16]	@ (8001320 <DalyBMS_Get_Pack_Temperature+0x34>)
 8001310:	eb03 73d3 	add.w	r3, r3, r3, lsr #31
 8001314:	105b      	asrs	r3, r3, #1
 8001316:	7753      	strb	r3, [r2, #29]
 8001318:	e7ee      	b.n	80012f8 <DalyBMS_Get_Pack_Temperature+0xc>
 800131a:	bf00      	nop
 800131c:	20000327 	.word	0x20000327
 8001320:	20000218 	.word	0x20000218

08001324 <DalyBMS_Get_Charge_Discharge_Status>:
 8001324:	b508      	push	{r3, lr}
 8001326:	2093      	movs	r0, #147	@ 0x93
 8001328:	f7ff ff16 	bl	8001158 <DalyBMS_Request>
 800132c:	b908      	cbnz	r0, 8001332 <DalyBMS_Get_Charge_Discharge_Status+0xe>
 800132e:	2000      	movs	r0, #0
 8001330:	bd08      	pop	{r3, pc}
 8001332:	2001      	movs	r0, #1
 8001334:	f7ff ff3a 	bl	80011ac <DalyBMS_Recive>
 8001338:	2800      	cmp	r0, #0
 800133a:	d0f8      	beq.n	800132e <DalyBMS_Get_Charge_Discharge_Status+0xa>
 800133c:	490d      	ldr	r1, [pc, #52]	@ (8001374 <DalyBMS_Get_Charge_Discharge_Status+0x50>)
 800133e:	4b0e      	ldr	r3, [pc, #56]	@ (8001378 <DalyBMS_Get_Charge_Discharge_Status+0x54>)
 8001340:	790a      	ldrb	r2, [r1, #4]
 8001342:	2a01      	cmp	r2, #1
 8001344:	d002      	beq.n	800134c <DalyBMS_Get_Charge_Discharge_Status+0x28>
 8001346:	2a02      	cmp	r2, #2
 8001348:	d000      	beq.n	800134c <DalyBMS_Get_Charge_Discharge_Status+0x28>
 800134a:	b902      	cbnz	r2, 800134e <DalyBMS_Get_Charge_Discharge_Status+0x2a>
 800134c:	779a      	strb	r2, [r3, #30]
 800134e:	794a      	ldrb	r2, [r1, #5]
 8001350:	3a00      	subs	r2, #0
 8001352:	bf18      	it	ne
 8001354:	2201      	movne	r2, #1
 8001356:	77da      	strb	r2, [r3, #31]
 8001358:	798a      	ldrb	r2, [r1, #6]
 800135a:	3a00      	subs	r2, #0
 800135c:	bf18      	it	ne
 800135e:	2201      	movne	r2, #1
 8001360:	f883 2020 	strb.w	r2, [r3, #32]
 8001364:	79ca      	ldrb	r2, [r1, #7]
 8001366:	f883 2021 	strb.w	r2, [r3, #33]	@ 0x21
 800136a:	894a      	ldrh	r2, [r1, #10]
 800136c:	ba52      	rev16	r2, r2
 800136e:	845a      	strh	r2, [r3, #34]	@ 0x22
 8001370:	e7de      	b.n	8001330 <DalyBMS_Get_Charge_Discharge_Status+0xc>
 8001372:	bf00      	nop
 8001374:	20000327 	.word	0x20000327
 8001378:	20000218 	.word	0x20000218

0800137c <DalyBMS_Get_Status_Info>:
 800137c:	b508      	push	{r3, lr}
 800137e:	2094      	movs	r0, #148	@ 0x94
 8001380:	f7ff feea 	bl	8001158 <DalyBMS_Request>
 8001384:	b908      	cbnz	r0, 800138a <DalyBMS_Get_Status_Info+0xe>
 8001386:	2000      	movs	r0, #0
 8001388:	bd08      	pop	{r3, pc}
 800138a:	2001      	movs	r0, #1
 800138c:	f7ff ff0e 	bl	80011ac <DalyBMS_Recive>
 8001390:	2800      	cmp	r0, #0
 8001392:	d0f8      	beq.n	8001386 <DalyBMS_Get_Status_Info+0xa>
 8001394:	4a0b      	ldr	r2, [pc, #44]	@ (80013c4 <DalyBMS_Get_Status_Info+0x48>)
 8001396:	4b0c      	ldr	r3, [pc, #48]	@ (80013c8 <DalyBMS_Get_Status_Info+0x4c>)
 8001398:	7911      	ldrb	r1, [r2, #4]
 800139a:	f883 1024 	strb.w	r1, [r3, #36]	@ 0x24
 800139e:	7951      	ldrb	r1, [r2, #5]
 80013a0:	f883 1025 	strb.w	r1, [r3, #37]	@ 0x25
 80013a4:	7991      	ldrb	r1, [r2, #6]
 80013a6:	3900      	subs	r1, #0
 80013a8:	bf18      	it	ne
 80013aa:	2101      	movne	r1, #1
 80013ac:	f883 1026 	strb.w	r1, [r3, #38]	@ 0x26
 80013b0:	79d1      	ldrb	r1, [r2, #7]
 80013b2:	7a92      	ldrb	r2, [r2, #10]
 80013b4:	3900      	subs	r1, #0
 80013b6:	bf18      	it	ne
 80013b8:	2101      	movne	r1, #1
 80013ba:	f883 2028 	strb.w	r2, [r3, #40]	@ 0x28
 80013be:	f883 1027 	strb.w	r1, [r3, #39]	@ 0x27
 80013c2:	e7e1      	b.n	8001388 <DalyBMS_Get_Status_Info+0xc>
 80013c4:	20000327 	.word	0x20000327
 80013c8:	20000218 	.word	0x20000218

080013cc <DalyBMS_Get_Cell_Voltages>:
 80013cc:	b5f8      	push	{r3, r4, r5, r6, r7, lr}
 80013ce:	4d28      	ldr	r5, [pc, #160]	@ (8001470 <DalyBMS_Get_Cell_Voltages+0xa4>)
 80013d0:	f895 3024 	ldrb.w	r3, [r5, #36]	@ 0x24
 80013d4:	3b01      	subs	r3, #1
 80013d6:	2b0f      	cmp	r3, #15
 80013d8:	d847      	bhi.n	800146a <DalyBMS_Get_Cell_Voltages+0x9e>
 80013da:	2095      	movs	r0, #149	@ 0x95
 80013dc:	f7ff febc 	bl	8001158 <DalyBMS_Request>
 80013e0:	b908      	cbnz	r0, 80013e6 <DalyBMS_Get_Cell_Voltages+0x1a>
 80013e2:	2001      	movs	r0, #1
 80013e4:	bdf8      	pop	{r3, r4, r5, r6, r7, pc}
 80013e6:	2303      	movs	r3, #3
 80013e8:	f895 4024 	ldrb.w	r4, [r5, #36]	@ 0x24
 80013ec:	3402      	adds	r4, #2
 80013ee:	fbb4 f4f3 	udiv	r4, r4, r3
 80013f2:	b2e4      	uxtb	r4, r4
 80013f4:	4620      	mov	r0, r4
 80013f6:	f7ff fed9 	bl	80011ac <DalyBMS_Recive>
 80013fa:	b3b0      	cbz	r0, 800146a <DalyBMS_Get_Cell_Voltages+0x9e>
 80013fc:	2600      	movs	r6, #0
 80013fe:	4633      	mov	r3, r6
 8001400:	f895 7024 	ldrb.w	r7, [r5, #36]	@ 0x24
 8001404:	4a1b      	ldr	r2, [pc, #108]	@ (8001474 <DalyBMS_Get_Cell_Voltages+0xa8>)
 8001406:	b2f1      	uxtb	r1, r6
 8001408:	428c      	cmp	r4, r1
 800140a:	d9ea      	bls.n	80013e2 <DalyBMS_Get_Cell_Voltages+0x16>
 800140c:	429f      	cmp	r7, r3
 800140e:	d91e      	bls.n	800144e <DalyBMS_Get_Cell_Voltages+0x82>
 8001410:	f892 e005 	ldrb.w	lr, [r2, #5]
 8001414:	f892 c006 	ldrb.w	ip, [r2, #6]
 8001418:	1c58      	adds	r0, r3, #1
 800141a:	b2c0      	uxtb	r0, r0
 800141c:	eb05 0143 	add.w	r1, r5, r3, lsl #1
 8001420:	ea4c 2c0e 	orr.w	ip, ip, lr, lsl #8
 8001424:	4287      	cmp	r7, r0
 8001426:	f8a1 c02a 	strh.w	ip, [r1, #42]	@ 0x2a
 800142a:	d90f      	bls.n	800144c <DalyBMS_Get_Cell_Voltages+0x80>
 800142c:	f892 e007 	ldrb.w	lr, [r2, #7]
 8001430:	f892 c008 	ldrb.w	ip, [r2, #8]
 8001434:	1c99      	adds	r1, r3, #2
 8001436:	b2c9      	uxtb	r1, r1
 8001438:	eb05 0040 	add.w	r0, r5, r0, lsl #1
 800143c:	ea4c 2c0e 	orr.w	ip, ip, lr, lsl #8
 8001440:	428f      	cmp	r7, r1
 8001442:	f8a0 c02a 	strh.w	ip, [r0, #42]	@ 0x2a
 8001446:	d805      	bhi.n	8001454 <DalyBMS_Get_Cell_Voltages+0x88>
 8001448:	460b      	mov	r3, r1
 800144a:	e000      	b.n	800144e <DalyBMS_Get_Cell_Voltages+0x82>
 800144c:	4603      	mov	r3, r0
 800144e:	3601      	adds	r6, #1
 8001450:	320d      	adds	r2, #13
 8001452:	e7d8      	b.n	8001406 <DalyBMS_Get_Cell_Voltages+0x3a>
 8001454:	f892 c009 	ldrb.w	ip, [r2, #9]
 8001458:	7a90      	ldrb	r0, [r2, #10]
 800145a:	3303      	adds	r3, #3
 800145c:	eb05 0141 	add.w	r1, r5, r1, lsl #1
 8001460:	ea40 200c 	orr.w	r0, r0, ip, lsl #8
 8001464:	b2db      	uxtb	r3, r3
 8001466:	8548      	strh	r0, [r1, #42]	@ 0x2a
 8001468:	e7f1      	b.n	800144e <DalyBMS_Get_Cell_Voltages+0x82>
 800146a:	2000      	movs	r0, #0
 800146c:	e7ba      	b.n	80013e4 <DalyBMS_Get_Cell_Voltages+0x18>
 800146e:	bf00      	nop
 8001470:	20000218 	.word	0x20000218
 8001474:	20000327 	.word	0x20000327

08001478 <DalyBMS_Get_Cell_Temperatures>:
 8001478:	b538      	push	{r3, r4, r5, lr}
 800147a:	4c10      	ldr	r4, [pc, #64]	@ (80014bc <DalyBMS_Get_Cell_Temperatures+0x44>)
 800147c:	f894 3025 	ldrb.w	r3, [r4, #37]	@ 0x25
 8001480:	3b01      	subs	r3, #1
 8001482:	2b03      	cmp	r3, #3
 8001484:	d901      	bls.n	800148a <DalyBMS_Get_Cell_Temperatures+0x12>
 8001486:	2000      	movs	r0, #0
 8001488:	bd38      	pop	{r3, r4, r5, pc}
 800148a:	2096      	movs	r0, #150	@ 0x96
 800148c:	f7ff fe64 	bl	8001158 <DalyBMS_Request>
 8001490:	2800      	cmp	r0, #0
 8001492:	d0f8      	beq.n	8001486 <DalyBMS_Get_Cell_Temperatures+0xe>
 8001494:	2001      	movs	r0, #1
 8001496:	f7ff fe89 	bl	80011ac <DalyBMS_Recive>
 800149a:	2800      	cmp	r0, #0
 800149c:	d0f3      	beq.n	8001486 <DalyBMS_Get_Cell_Temperatures+0xe>
 800149e:	2300      	movs	r3, #0
 80014a0:	4907      	ldr	r1, [pc, #28]	@ (80014c0 <DalyBMS_Get_Cell_Temperatures+0x48>)
 80014a2:	f894 5025 	ldrb.w	r5, [r4, #37]	@ 0x25
 80014a6:	3489      	adds	r4, #137	@ 0x89
 80014a8:	b2da      	uxtb	r2, r3
 80014aa:	4295      	cmp	r5, r2
 80014ac:	d9ec      	bls.n	8001488 <DalyBMS_Get_Cell_Temperatures+0x10>
 80014ae:	f811 2f01 	ldrb.w	r2, [r1, #1]!
 80014b2:	3301      	adds	r3, #1
 80014b4:	3a28      	subs	r2, #40	@ 0x28
 80014b6:	f804 2f01 	strb.w	r2, [r4, #1]!
 80014ba:	e7f5      	b.n	80014a8 <DalyBMS_Get_Cell_Temperatures+0x30>
 80014bc:	20000218 	.word	0x20000218
 80014c0:	2000032b 	.word	0x2000032b

080014c4 <DalyBMS_Get_Cell_Balance_State>:
 80014c4:	e92d 43f8 	stmdb	sp!, {r3, r4, r5, r6, r7, r8, r9, lr}
 80014c8:	4d1e      	ldr	r5, [pc, #120]	@ (8001544 <DalyBMS_Get_Cell_Balance_State+0x80>)
 80014ca:	f895 3024 	ldrb.w	r3, [r5, #36]	@ 0x24
 80014ce:	3b01      	subs	r3, #1
 80014d0:	2b0f      	cmp	r3, #15
 80014d2:	d902      	bls.n	80014da <DalyBMS_Get_Cell_Balance_State+0x16>
 80014d4:	2000      	movs	r0, #0
 80014d6:	e8bd 83f8 	ldmia.w	sp!, {r3, r4, r5, r6, r7, r8, r9, pc}
 80014da:	2097      	movs	r0, #151	@ 0x97
 80014dc:	f7ff fe3c 	bl	8001158 <DalyBMS_Request>
 80014e0:	2800      	cmp	r0, #0
 80014e2:	d0f7      	beq.n	80014d4 <DalyBMS_Get_Cell_Balance_State+0x10>
 80014e4:	2001      	movs	r0, #1
 80014e6:	f7ff fe61 	bl	80011ac <DalyBMS_Recive>
 80014ea:	2800      	cmp	r0, #0
 80014ec:	d0f2      	beq.n	80014d4 <DalyBMS_Get_Cell_Balance_State+0x10>
 80014ee:	2300      	movs	r3, #0
 80014f0:	2206      	movs	r2, #6
 80014f2:	461c      	mov	r4, r3
 80014f4:	f895 e024 	ldrb.w	lr, [r5, #36]	@ 0x24
 80014f8:	f8df c04c 	ldr.w	ip, [pc, #76]	@ 8001548 <DalyBMS_Get_Cell_Balance_State+0x84>
 80014fc:	2600      	movs	r6, #0
 80014fe:	f104 0799 	add.w	r7, r4, #153	@ 0x99
 8001502:	f81c 8f01 	ldrb.w	r8, [ip, #1]!
 8001506:	442f      	add	r7, r5
 8001508:	45a6      	cmp	lr, r4
 800150a:	d911      	bls.n	8001530 <DalyBMS_Get_Cell_Balance_State+0x6c>
 800150c:	fa48 f106 	asr.w	r1, r8, r6
 8001510:	f001 0901 	and.w	r9, r1, #1
 8001514:	07c9      	lsls	r1, r1, #31
 8001516:	bf48      	it	mi
 8001518:	3301      	addmi	r3, #1
 800151a:	f106 0601 	add.w	r6, r6, #1
 800151e:	f104 0401 	add.w	r4, r4, #1
 8001522:	bf48      	it	mi
 8001524:	b2db      	uxtbmi	r3, r3
 8001526:	2e08      	cmp	r6, #8
 8001528:	b2e4      	uxtb	r4, r4
 800152a:	f807 9f01 	strb.w	r9, [r7, #1]!
 800152e:	d1eb      	bne.n	8001508 <DalyBMS_Get_Cell_Balance_State+0x44>
 8001530:	3a01      	subs	r2, #1
 8001532:	f012 02ff 	ands.w	r2, r2, #255	@ 0xff
 8001536:	d1e1      	bne.n	80014fc <DalyBMS_Get_Cell_Balance_State+0x38>
 8001538:	3b00      	subs	r3, #0
 800153a:	bf18      	it	ne
 800153c:	2301      	movne	r3, #1
 800153e:	f885 30ca 	strb.w	r3, [r5, #202]	@ 0xca
 8001542:	e7c8      	b.n	80014d6 <DalyBMS_Get_Cell_Balance_State+0x12>
 8001544:	20000218 	.word	0x20000218
 8001548:	2000032a 	.word	0x2000032a

0800154c <DalyBMS_Get_Failure_Codes>:
 800154c:	b538      	push	{r3, r4, r5, lr}
 800154e:	2098      	movs	r0, #152	@ 0x98
 8001550:	f7ff fe02 	bl	8001158 <DalyBMS_Request>
 8001554:	b908      	cbnz	r0, 800155a <DalyBMS_Get_Failure_Codes+0xe>
 8001556:	2000      	movs	r0, #0
 8001558:	bd38      	pop	{r3, r4, r5, pc}
 800155a:	2001      	movs	r0, #1
 800155c:	f7ff fe26 	bl	80011ac <DalyBMS_Recive>
 8001560:	2800      	cmp	r0, #0
 8001562:	d0f8      	beq.n	8001556 <DalyBMS_Get_Failure_Codes+0xa>
 8001564:	2400      	movs	r4, #0
 8001566:	2500      	movs	r5, #0
 8001568:	49b8      	ldr	r1, [pc, #736]	@ (800184c <DalyBMS_Get_Failure_Codes+0x300>)
 800156a:	4bb9      	ldr	r3, [pc, #740]	@ (8001850 <DalyBMS_Get_Failure_Codes+0x304>)
 800156c:	790a      	ldrb	r2, [r1, #4]
 800156e:	e9c3 4534 	strd	r4, r5, [r3, #208]	@ 0xd0
 8001572:	0794      	lsls	r4, r2, #30
 8001574:	f140 8124 	bpl.w	80017c0 <DalyBMS_Get_Failure_Codes+0x274>
 8001578:	2401      	movs	r4, #1
 800157a:	2500      	movs	r5, #0
 800157c:	e9c3 4534 	strd	r4, r5, [r3, #208]	@ 0xd0
 8001580:	0714      	lsls	r4, r2, #28
 8001582:	f140 8122 	bpl.w	80017ca <DalyBMS_Get_Failure_Codes+0x27e>
 8001586:	f8d3 40d0 	ldr.w	r4, [r3, #208]	@ 0xd0
 800158a:	f044 0404 	orr.w	r4, r4, #4
 800158e:	f8c3 40d0 	str.w	r4, [r3, #208]	@ 0xd0
 8001592:	0694      	lsls	r4, r2, #26
 8001594:	f140 8121 	bpl.w	80017da <DalyBMS_Get_Failure_Codes+0x28e>
 8001598:	f8d3 40d0 	ldr.w	r4, [r3, #208]	@ 0xd0
 800159c:	f044 0410 	orr.w	r4, r4, #16
 80015a0:	f8c3 40d0 	str.w	r4, [r3, #208]	@ 0xd0
 80015a4:	09d4      	lsrs	r4, r2, #7
 80015a6:	f000 8120 	beq.w	80017ea <DalyBMS_Get_Failure_Codes+0x29e>
 80015aa:	f8d3 20d0 	ldr.w	r2, [r3, #208]	@ 0xd0
 80015ae:	f042 0240 	orr.w	r2, r2, #64	@ 0x40
 80015b2:	f8c3 20d0 	str.w	r2, [r3, #208]	@ 0xd0
 80015b6:	794a      	ldrb	r2, [r1, #5]
 80015b8:	0794      	lsls	r4, r2, #30
 80015ba:	f140 811e 	bpl.w	80017fa <DalyBMS_Get_Failure_Codes+0x2ae>
 80015be:	f8d3 40d0 	ldr.w	r4, [r3, #208]	@ 0xd0
 80015c2:	f444 7480 	orr.w	r4, r4, #256	@ 0x100
 80015c6:	f8c3 40d0 	str.w	r4, [r3, #208]	@ 0xd0
 80015ca:	0714      	lsls	r4, r2, #28
 80015cc:	f140 811d 	bpl.w	800180a <DalyBMS_Get_Failure_Codes+0x2be>
 80015d0:	f8d3 40d0 	ldr.w	r4, [r3, #208]	@ 0xd0
 80015d4:	f444 6480 	orr.w	r4, r4, #1024	@ 0x400
 80015d8:	f8c3 40d0 	str.w	r4, [r3, #208]	@ 0xd0
 80015dc:	0694      	lsls	r4, r2, #26
 80015de:	f140 811c 	bpl.w	800181a <DalyBMS_Get_Failure_Codes+0x2ce>
 80015e2:	f8d3 40d0 	ldr.w	r4, [r3, #208]	@ 0xd0
 80015e6:	f444 5480 	orr.w	r4, r4, #4096	@ 0x1000
 80015ea:	f8c3 40d0 	str.w	r4, [r3, #208]	@ 0xd0
 80015ee:	09d4      	lsrs	r4, r2, #7
 80015f0:	f000 811b 	beq.w	800182a <DalyBMS_Get_Failure_Codes+0x2de>
 80015f4:	f8d3 20d0 	ldr.w	r2, [r3, #208]	@ 0xd0
 80015f8:	f442 4280 	orr.w	r2, r2, #16384	@ 0x4000
 80015fc:	f8c3 20d0 	str.w	r2, [r3, #208]	@ 0xd0
 8001600:	798a      	ldrb	r2, [r1, #6]
 8001602:	0794      	lsls	r4, r2, #30
 8001604:	f140 8119 	bpl.w	800183a <DalyBMS_Get_Failure_Codes+0x2ee>
 8001608:	f8d3 40d0 	ldr.w	r4, [r3, #208]	@ 0xd0
 800160c:	f444 3480 	orr.w	r4, r4, #65536	@ 0x10000
 8001610:	f8c3 40d0 	str.w	r4, [r3, #208]	@ 0xd0
 8001614:	0714      	lsls	r4, r2, #28
 8001616:	f140 811d 	bpl.w	8001854 <DalyBMS_Get_Failure_Codes+0x308>
 800161a:	f8d3 40d0 	ldr.w	r4, [r3, #208]	@ 0xd0
 800161e:	f444 2480 	orr.w	r4, r4, #262144	@ 0x40000
 8001622:	f8c3 40d0 	str.w	r4, [r3, #208]	@ 0xd0
 8001626:	0694      	lsls	r4, r2, #26
 8001628:	f140 811c 	bpl.w	8001864 <DalyBMS_Get_Failure_Codes+0x318>
 800162c:	f8d3 40d0 	ldr.w	r4, [r3, #208]	@ 0xd0
 8001630:	f444 1480 	orr.w	r4, r4, #1048576	@ 0x100000
 8001634:	f8c3 40d0 	str.w	r4, [r3, #208]	@ 0xd0
 8001638:	09d4      	lsrs	r4, r2, #7
 800163a:	f000 811b 	beq.w	8001874 <DalyBMS_Get_Failure_Codes+0x328>
 800163e:	f8d3 20d0 	ldr.w	r2, [r3, #208]	@ 0xd0
 8001642:	f442 0280 	orr.w	r2, r2, #4194304	@ 0x400000
 8001646:	f8c3 20d0 	str.w	r2, [r3, #208]	@ 0xd0
 800164a:	79ca      	ldrb	r2, [r1, #7]
 800164c:	0794      	lsls	r4, r2, #30
 800164e:	f140 8119 	bpl.w	8001884 <DalyBMS_Get_Failure_Codes+0x338>
 8001652:	f8d3 40d0 	ldr.w	r4, [r3, #208]	@ 0xd0
 8001656:	f044 7480 	orr.w	r4, r4, #16777216	@ 0x1000000
 800165a:	f8c3 40d0 	str.w	r4, [r3, #208]	@ 0xd0
 800165e:	0714      	lsls	r4, r2, #28
 8001660:	f140 8118 	bpl.w	8001894 <DalyBMS_Get_Failure_Codes+0x348>
 8001664:	f8d3 20d0 	ldr.w	r2, [r3, #208]	@ 0xd0
 8001668:	f042 6280 	orr.w	r2, r2, #67108864	@ 0x4000000
 800166c:	f8c3 20d0 	str.w	r2, [r3, #208]	@ 0xd0
 8001670:	7a0a      	ldrb	r2, [r1, #8]
 8001672:	07d4      	lsls	r4, r2, #31
 8001674:	bf42      	ittt	mi
 8001676:	f8d3 40d0 	ldrmi.w	r4, [r3, #208]	@ 0xd0
 800167a:	f044 5480 	orrmi.w	r4, r4, #268435456	@ 0x10000000
 800167e:	f8c3 40d0 	strmi.w	r4, [r3, #208]	@ 0xd0
 8001682:	0795      	lsls	r5, r2, #30
 8001684:	bf42      	ittt	mi
 8001686:	f8d3 40d0 	ldrmi.w	r4, [r3, #208]	@ 0xd0
 800168a:	f044 5400 	orrmi.w	r4, r4, #536870912	@ 0x20000000
 800168e:	f8c3 40d0 	strmi.w	r4, [r3, #208]	@ 0xd0
 8001692:	0754      	lsls	r4, r2, #29
 8001694:	bf42      	ittt	mi
 8001696:	f8d3 40d0 	ldrmi.w	r4, [r3, #208]	@ 0xd0
 800169a:	f044 4480 	orrmi.w	r4, r4, #1073741824	@ 0x40000000
 800169e:	f8c3 40d0 	strmi.w	r4, [r3, #208]	@ 0xd0
 80016a2:	0715      	lsls	r5, r2, #28
 80016a4:	bf42      	ittt	mi
 80016a6:	f8d3 40d0 	ldrmi.w	r4, [r3, #208]	@ 0xd0
 80016aa:	f044 4400 	orrmi.w	r4, r4, #2147483648	@ 0x80000000
 80016ae:	f8c3 40d0 	strmi.w	r4, [r3, #208]	@ 0xd0
 80016b2:	06d4      	lsls	r4, r2, #27
 80016b4:	bf42      	ittt	mi
 80016b6:	f8d3 40d4 	ldrmi.w	r4, [r3, #212]	@ 0xd4
 80016ba:	f044 0401 	orrmi.w	r4, r4, #1
 80016be:	f8c3 40d4 	strmi.w	r4, [r3, #212]	@ 0xd4
 80016c2:	0695      	lsls	r5, r2, #26
 80016c4:	bf42      	ittt	mi
 80016c6:	f8d3 40d4 	ldrmi.w	r4, [r3, #212]	@ 0xd4
 80016ca:	f044 0402 	orrmi.w	r4, r4, #2
 80016ce:	f8c3 40d4 	strmi.w	r4, [r3, #212]	@ 0xd4
 80016d2:	0654      	lsls	r4, r2, #25
 80016d4:	bf42      	ittt	mi
 80016d6:	f8d3 40d4 	ldrmi.w	r4, [r3, #212]	@ 0xd4
 80016da:	f044 0404 	orrmi.w	r4, r4, #4
 80016de:	f8c3 40d4 	strmi.w	r4, [r3, #212]	@ 0xd4
 80016e2:	09d2      	lsrs	r2, r2, #7
 80016e4:	bf1e      	ittt	ne
 80016e6:	f8d3 20d4 	ldrne.w	r2, [r3, #212]	@ 0xd4
 80016ea:	f042 0208 	orrne.w	r2, r2, #8
 80016ee:	f8c3 20d4 	strne.w	r2, [r3, #212]	@ 0xd4
 80016f2:	7a4a      	ldrb	r2, [r1, #9]
 80016f4:	07d5      	lsls	r5, r2, #31
 80016f6:	bf42      	ittt	mi
 80016f8:	f8d3 40d4 	ldrmi.w	r4, [r3, #212]	@ 0xd4
 80016fc:	f044 0410 	orrmi.w	r4, r4, #16
 8001700:	f8c3 40d4 	strmi.w	r4, [r3, #212]	@ 0xd4
 8001704:	0794      	lsls	r4, r2, #30
 8001706:	bf42      	ittt	mi
 8001708:	f8d3 40d4 	ldrmi.w	r4, [r3, #212]	@ 0xd4
 800170c:	f044 0420 	orrmi.w	r4, r4, #32
 8001710:	f8c3 40d4 	strmi.w	r4, [r3, #212]	@ 0xd4
 8001714:	0755      	lsls	r5, r2, #29
 8001716:	bf42      	ittt	mi
 8001718:	f8d3 40d4 	ldrmi.w	r4, [r3, #212]	@ 0xd4
 800171c:	f044 0440 	orrmi.w	r4, r4, #64	@ 0x40
 8001720:	f8c3 40d4 	strmi.w	r4, [r3, #212]	@ 0xd4
 8001724:	0714      	lsls	r4, r2, #28
 8001726:	bf42      	ittt	mi
 8001728:	f8d3 40d4 	ldrmi.w	r4, [r3, #212]	@ 0xd4
 800172c:	f044 0480 	orrmi.w	r4, r4, #128	@ 0x80
 8001730:	f8c3 40d4 	strmi.w	r4, [r3, #212]	@ 0xd4
 8001734:	06d5      	lsls	r5, r2, #27
 8001736:	bf42      	ittt	mi
 8001738:	f8d3 40d4 	ldrmi.w	r4, [r3, #212]	@ 0xd4
 800173c:	f444 7480 	orrmi.w	r4, r4, #256	@ 0x100
 8001740:	f8c3 40d4 	strmi.w	r4, [r3, #212]	@ 0xd4
 8001744:	0694      	lsls	r4, r2, #26
 8001746:	bf42      	ittt	mi
 8001748:	f8d3 40d4 	ldrmi.w	r4, [r3, #212]	@ 0xd4
 800174c:	f444 7400 	orrmi.w	r4, r4, #512	@ 0x200
 8001750:	f8c3 40d4 	strmi.w	r4, [r3, #212]	@ 0xd4
 8001754:	0655      	lsls	r5, r2, #25
 8001756:	bf42      	ittt	mi
 8001758:	f8d3 40d4 	ldrmi.w	r4, [r3, #212]	@ 0xd4
 800175c:	f444 6480 	orrmi.w	r4, r4, #1024	@ 0x400
 8001760:	f8c3 40d4 	strmi.w	r4, [r3, #212]	@ 0xd4
 8001764:	09d2      	lsrs	r2, r2, #7
 8001766:	bf1e      	ittt	ne
 8001768:	f8d3 20d4 	ldrne.w	r2, [r3, #212]	@ 0xd4
 800176c:	f442 6200 	orrne.w	r2, r2, #2048	@ 0x800
 8001770:	f8c3 20d4 	strne.w	r2, [r3, #212]	@ 0xd4
 8001774:	7a8b      	ldrb	r3, [r1, #10]
 8001776:	07dc      	lsls	r4, r3, #31
 8001778:	bf41      	itttt	mi
 800177a:	4935      	ldrmi	r1, [pc, #212]	@ (8001850 <DalyBMS_Get_Failure_Codes+0x304>)
 800177c:	f8d1 20d4 	ldrmi.w	r2, [r1, #212]	@ 0xd4
 8001780:	f442 5280 	orrmi.w	r2, r2, #4096	@ 0x1000
 8001784:	f8c1 20d4 	strmi.w	r2, [r1, #212]	@ 0xd4
 8001788:	0799      	lsls	r1, r3, #30
 800178a:	bf41      	itttt	mi
 800178c:	4930      	ldrmi	r1, [pc, #192]	@ (8001850 <DalyBMS_Get_Failure_Codes+0x304>)
 800178e:	f8d1 20d4 	ldrmi.w	r2, [r1, #212]	@ 0xd4
 8001792:	f442 5200 	orrmi.w	r2, r2, #8192	@ 0x2000
 8001796:	f8c1 20d4 	strmi.w	r2, [r1, #212]	@ 0xd4
 800179a:	075a      	lsls	r2, r3, #29
 800179c:	bf41      	itttt	mi
 800179e:	492c      	ldrmi	r1, [pc, #176]	@ (8001850 <DalyBMS_Get_Failure_Codes+0x304>)
 80017a0:	f8d1 20d4 	ldrmi.w	r2, [r1, #212]	@ 0xd4
 80017a4:	f442 4280 	orrmi.w	r2, r2, #16384	@ 0x4000
 80017a8:	f8c1 20d4 	strmi.w	r2, [r1, #212]	@ 0xd4
 80017ac:	071b      	lsls	r3, r3, #28
 80017ae:	bf41      	itttt	mi
 80017b0:	4a27      	ldrmi	r2, [pc, #156]	@ (8001850 <DalyBMS_Get_Failure_Codes+0x304>)
 80017b2:	f8d2 30d4 	ldrmi.w	r3, [r2, #212]	@ 0xd4
 80017b6:	f443 4300 	orrmi.w	r3, r3, #32768	@ 0x8000
 80017ba:	f8c2 30d4 	strmi.w	r3, [r2, #212]	@ 0xd4
 80017be:	e6cb      	b.n	8001558 <DalyBMS_Get_Failure_Codes+0xc>
 80017c0:	07d5      	lsls	r5, r2, #31
 80017c2:	f57f aedd 	bpl.w	8001580 <DalyBMS_Get_Failure_Codes+0x34>
 80017c6:	2402      	movs	r4, #2
 80017c8:	e6d7      	b.n	800157a <DalyBMS_Get_Failure_Codes+0x2e>
 80017ca:	0755      	lsls	r5, r2, #29
 80017cc:	f57f aee1 	bpl.w	8001592 <DalyBMS_Get_Failure_Codes+0x46>
 80017d0:	f8d3 40d0 	ldr.w	r4, [r3, #208]	@ 0xd0
 80017d4:	f044 0408 	orr.w	r4, r4, #8
 80017d8:	e6d9      	b.n	800158e <DalyBMS_Get_Failure_Codes+0x42>
 80017da:	06d5      	lsls	r5, r2, #27
 80017dc:	f57f aee2 	bpl.w	80015a4 <DalyBMS_Get_Failure_Codes+0x58>
 80017e0:	f8d3 40d0 	ldr.w	r4, [r3, #208]	@ 0xd0
 80017e4:	f044 0420 	orr.w	r4, r4, #32
 80017e8:	e6da      	b.n	80015a0 <DalyBMS_Get_Failure_Codes+0x54>
 80017ea:	0992      	lsrs	r2, r2, #6
 80017ec:	f43f aee3 	beq.w	80015b6 <DalyBMS_Get_Failure_Codes+0x6a>
 80017f0:	f8d3 20d0 	ldr.w	r2, [r3, #208]	@ 0xd0
 80017f4:	f042 0280 	orr.w	r2, r2, #128	@ 0x80
 80017f8:	e6db      	b.n	80015b2 <DalyBMS_Get_Failure_Codes+0x66>
 80017fa:	07d5      	lsls	r5, r2, #31
 80017fc:	f57f aee5 	bpl.w	80015ca <DalyBMS_Get_Failure_Codes+0x7e>
 8001800:	f8d3 40d0 	ldr.w	r4, [r3, #208]	@ 0xd0
 8001804:	f444 7400 	orr.w	r4, r4, #512	@ 0x200
 8001808:	e6dd      	b.n	80015c6 <DalyBMS_Get_Failure_Codes+0x7a>
 800180a:	0755      	lsls	r5, r2, #29
 800180c:	f57f aee6 	bpl.w	80015dc <DalyBMS_Get_Failure_Codes+0x90>
 8001810:	f8d3 40d0 	ldr.w	r4, [r3, #208]	@ 0xd0
 8001814:	f444 6400 	orr.w	r4, r4, #2048	@ 0x800
 8001818:	e6de      	b.n	80015d8 <DalyBMS_Get_Failure_Codes+0x8c>
 800181a:	06d5      	lsls	r5, r2, #27
 800181c:	f57f aee7 	bpl.w	80015ee <DalyBMS_Get_Failure_Codes+0xa2>
 8001820:	f8d3 40d0 	ldr.w	r4, [r3, #208]	@ 0xd0
 8001824:	f444 5400 	orr.w	r4, r4, #8192	@ 0x2000
 8001828:	e6df      	b.n	80015ea <DalyBMS_Get_Failure_Codes+0x9e>
 800182a:	0992      	lsrs	r2, r2, #6
 800182c:	f43f aee8 	beq.w	8001600 <DalyBMS_Get_Failure_Codes+0xb4>
 8001830:	f8d3 20d0 	ldr.w	r2, [r3, #208]	@ 0xd0
 8001834:	f442 4200 	orr.w	r2, r2, #32768	@ 0x8000
 8001838:	e6e0      	b.n	80015fc <DalyBMS_Get_Failure_Codes+0xb0>
 800183a:	07d5      	lsls	r5, r2, #31
 800183c:	f57f aeea 	bpl.w	8001614 <DalyBMS_Get_Failure_Codes+0xc8>
 8001840:	f8d3 40d0 	ldr.w	r4, [r3, #208]	@ 0xd0
 8001844:	f444 3400 	orr.w	r4, r4, #131072	@ 0x20000
 8001848:	e6e2      	b.n	8001610 <DalyBMS_Get_Failure_Codes+0xc4>
 800184a:	bf00      	nop
 800184c:	20000327 	.word	0x20000327
 8001850:	20000218 	.word	0x20000218
 8001854:	0755      	lsls	r5, r2, #29
 8001856:	f57f aee6 	bpl.w	8001626 <DalyBMS_Get_Failure_Codes+0xda>
 800185a:	f8d3 40d0 	ldr.w	r4, [r3, #208]	@ 0xd0
 800185e:	f444 2400 	orr.w	r4, r4, #524288	@ 0x80000
 8001862:	e6de      	b.n	8001622 <DalyBMS_Get_Failure_Codes+0xd6>
 8001864:	06d5      	lsls	r5, r2, #27
 8001866:	f57f aee7 	bpl.w	8001638 <DalyBMS_Get_Failure_Codes+0xec>
 800186a:	f8d3 40d0 	ldr.w	r4, [r3, #208]	@ 0xd0
 800186e:	f444 1400 	orr.w	r4, r4, #2097152	@ 0x200000
 8001872:	e6df      	b.n	8001634 <DalyBMS_Get_Failure_Codes+0xe8>
 8001874:	0992      	lsrs	r2, r2, #6
 8001876:	f43f aee8 	beq.w	800164a <DalyBMS_Get_Failure_Codes+0xfe>
 800187a:	f8d3 20d0 	ldr.w	r2, [r3, #208]	@ 0xd0
 800187e:	f442 0200 	orr.w	r2, r2, #8388608	@ 0x800000
 8001882:	e6e0      	b.n	8001646 <DalyBMS_Get_Failure_Codes+0xfa>
 8001884:	07d5      	lsls	r5, r2, #31
 8001886:	f57f aeea 	bpl.w	800165e <DalyBMS_Get_Failure_Codes+0x112>
 800188a:	f8d3 40d0 	ldr.w	r4, [r3, #208]	@ 0xd0
 800188e:	f044 7400 	orr.w	r4, r4, #33554432	@ 0x2000000
 8001892:	e6e2      	b.n	800165a <DalyBMS_Get_Failure_Codes+0x10e>
 8001894:	0755      	lsls	r5, r2, #29
 8001896:	f57f aeeb 	bpl.w	8001670 <DalyBMS_Get_Failure_Codes+0x124>
 800189a:	f8d3 20d0 	ldr.w	r2, [r3, #208]	@ 0xd0
 800189e:	f042 6200 	orr.w	r2, r2, #134217728	@ 0x8000000
 80018a2:	e6e3      	b.n	800166c <DalyBMS_Get_Failure_Codes+0x120>

080018a4 <DalyBMS_Get_Voltage_Thresholds>:
 80018a4:	b508      	push	{r3, lr}
 80018a6:	2059      	movs	r0, #89	@ 0x59
 80018a8:	f7ff fc56 	bl	8001158 <DalyBMS_Request>
 80018ac:	b908      	cbnz	r0, 80018b2 <DalyBMS_Get_Voltage_Thresholds+0xe>
 80018ae:	2000      	movs	r0, #0
 80018b0:	bd08      	pop	{r3, pc}
 80018b2:	2001      	movs	r0, #1
 80018b4:	f7ff fc7a 	bl	80011ac <DalyBMS_Recive>
 80018b8:	2800      	cmp	r0, #0
 80018ba:	d0f8      	beq.n	80018ae <DalyBMS_Get_Voltage_Thresholds+0xa>
 80018bc:	4a07      	ldr	r2, [pc, #28]	@ (80018dc <DalyBMS_Get_Voltage_Thresholds+0x38>)
 80018be:	4b08      	ldr	r3, [pc, #32]	@ (80018e0 <DalyBMS_Get_Voltage_Thresholds+0x3c>)
 80018c0:	8891      	ldrh	r1, [r2, #4]
 80018c2:	ba49      	rev16	r1, r1
 80018c4:	8019      	strh	r1, [r3, #0]
 80018c6:	88d1      	ldrh	r1, [r2, #6]
 80018c8:	ba49      	rev16	r1, r1
 80018ca:	8099      	strh	r1, [r3, #4]
 80018cc:	8911      	ldrh	r1, [r2, #8]
 80018ce:	8952      	ldrh	r2, [r2, #10]
 80018d0:	ba49      	rev16	r1, r1
 80018d2:	ba52      	rev16	r2, r2
 80018d4:	8059      	strh	r1, [r3, #2]
 80018d6:	80da      	strh	r2, [r3, #6]
 80018d8:	e7ea      	b.n	80018b0 <DalyBMS_Get_Voltage_Thresholds+0xc>
 80018da:	bf00      	nop
 80018dc:	20000327 	.word	0x20000327
 80018e0:	20000218 	.word	0x20000218

080018e4 <DalyBMS_Get_Pack_Thresholds>:
 80018e4:	b508      	push	{r3, lr}
 80018e6:	205a      	movs	r0, #90	@ 0x5a
 80018e8:	f7ff fc36 	bl	8001158 <DalyBMS_Request>
 80018ec:	b908      	cbnz	r0, 80018f2 <DalyBMS_Get_Pack_Thresholds+0xe>
 80018ee:	2000      	movs	r0, #0
 80018f0:	bd08      	pop	{r3, pc}
 80018f2:	2001      	movs	r0, #1
 80018f4:	f7ff fc5a 	bl	80011ac <DalyBMS_Recive>
 80018f8:	2800      	cmp	r0, #0
 80018fa:	d0f8      	beq.n	80018ee <DalyBMS_Get_Pack_Thresholds+0xa>
 80018fc:	4a07      	ldr	r2, [pc, #28]	@ (800191c <DalyBMS_Get_Pack_Thresholds+0x38>)
 80018fe:	4b08      	ldr	r3, [pc, #32]	@ (8001920 <DalyBMS_Get_Pack_Thresholds+0x3c>)
 8001900:	8891      	ldrh	r1, [r2, #4]
 8001902:	ba49      	rev16	r1, r1
 8001904:	8119      	strh	r1, [r3, #8]
 8001906:	88d1      	ldrh	r1, [r2, #6]
 8001908:	ba49      	rev16	r1, r1
 800190a:	8199      	strh	r1, [r3, #12]
 800190c:	8911      	ldrh	r1, [r2, #8]
 800190e:	8952      	ldrh	r2, [r2, #10]
 8001910:	ba49      	rev16	r1, r1
 8001912:	ba52      	rev16	r2, r2
 8001914:	8159      	strh	r1, [r3, #10]
 8001916:	81da      	strh	r2, [r3, #14]
 8001918:	e7ea      	b.n	80018f0 <DalyBMS_Get_Pack_Thresholds+0xc>
 800191a:	bf00      	nop
 800191c:	20000327 	.word	0x20000327
 8001920:	20000218 	.word	0x20000218

08001924 <DalyBMS_On_Request_Done>:
 8001924:	4770      	bx	lr
	...

08001928 <DalyBMS_Clear_Get>:
 8001928:	2203      	movs	r2, #3
 800192a:	4b01      	ldr	r3, [pc, #4]	@ (8001930 <DalyBMS_Clear_Get+0x8>)
 800192c:	779a      	strb	r2, [r3, #30]
 800192e:	4770      	bx	lr
 8001930:	20000218 	.word	0x20000218

08001934 <DalyBMS_Set_Callback>:
 8001934:	4b01      	ldr	r3, [pc, #4]	@ (800193c <DalyBMS_Set_Callback+0x8>)
 8001936:	6018      	str	r0, [r3, #0]
 8001938:	4770      	bx	lr
 800193a:	bf00      	nop
 800193c:	20000368 	.word	0x20000368

08001940 <DalyBMS_TxCpltCallback>:
 8001940:	2201      	movs	r2, #1
 8001942:	b508      	push	{r3, lr}
 8001944:	4b03      	ldr	r3, [pc, #12]	@ (8001954 <DalyBMS_TxCpltCallback+0x14>)
 8001946:	701a      	strb	r2, [r3, #0]
 8001948:	f001 fb5c 	bl	8003004 <HAL_GetTick>
 800194c:	4b02      	ldr	r3, [pc, #8]	@ (8001958 <DalyBMS_TxCpltCallback+0x18>)
 800194e:	6018      	str	r0, [r3, #0]
 8001950:	bd08      	pop	{r3, pc}
 8001952:	bf00      	nop
 8001954:	20000215 	.word	0x20000215
 8001958:	2000020c 	.word	0x2000020c

0800195c <DalyBMS_RxCpltCallback>:
 800195c:	2201      	movs	r2, #1
 800195e:	b508      	push	{r3, lr}
 8001960:	4b05      	ldr	r3, [pc, #20]	@ (8001978 <DalyBMS_RxCpltCallback+0x1c>)
 8001962:	701a      	strb	r2, [r3, #0]
 8001964:	4b05      	ldr	r3, [pc, #20]	@ (800197c <DalyBMS_RxCpltCallback+0x20>)
 8001966:	4a06      	ldr	r2, [pc, #24]	@ (8001980 <DalyBMS_RxCpltCallback+0x24>)
 8001968:	881b      	ldrh	r3, [r3, #0]
 800196a:	b29b      	uxth	r3, r3
 800196c:	8013      	strh	r3, [r2, #0]
 800196e:	f001 fb49 	bl	8003004 <HAL_GetTick>
 8001972:	4b04      	ldr	r3, [pc, #16]	@ (8001984 <DalyBMS_RxCpltCallback+0x28>)
 8001974:	6018      	str	r0, [r3, #0]
 8001976:	bd08      	pop	{r3, pc}
 8001978:	20000214 	.word	0x20000214
 800197c:	20000210 	.word	0x20000210
 8001980:	20000212 	.word	0x20000212
 8001984:	2000020c 	.word	0x2000020c

08001988 <vApplicationGetIdleTaskMemory>:
 8001988:	4b03      	ldr	r3, [pc, #12]	@ (8001998 <vApplicationGetIdleTaskMemory+0x10>)
 800198a:	6003      	str	r3, [r0, #0]
 800198c:	4b03      	ldr	r3, [pc, #12]	@ (800199c <vApplicationGetIdleTaskMemory+0x14>)
 800198e:	600b      	str	r3, [r1, #0]
 8001990:	2380      	movs	r3, #128	@ 0x80
 8001992:	6013      	str	r3, [r2, #0]
 8001994:	4770      	bx	lr
 8001996:	bf00      	nop
 8001998:	2000056c 	.word	0x2000056c
 800199c:	2000036c 	.word	0x2000036c

080019a0 <INA219_ReadRegister>:
 80019a0:	b570      	push	{r4, r5, r6, lr}
 80019a2:	2664      	movs	r6, #100	@ 0x64
 80019a4:	b086      	sub	sp, #24
 80019a6:	9600      	str	r6, [sp, #0]
 80019a8:	4604      	mov	r4, r0
 80019aa:	4615      	mov	r5, r2
 80019ac:	f88d 100f 	strb.w	r1, [sp, #15]
 80019b0:	2301      	movs	r3, #1
 80019b2:	7901      	ldrb	r1, [r0, #4]
 80019b4:	f10d 020f 	add.w	r2, sp, #15
 80019b8:	6800      	ldr	r0, [r0, #0]
 80019ba:	f001 feb9 	bl	8003730 <HAL_I2C_Master_Transmit>
 80019be:	b958      	cbnz	r0, 80019d8 <INA219_ReadRegister+0x38>
 80019c0:	9600      	str	r6, [sp, #0]
 80019c2:	2302      	movs	r3, #2
 80019c4:	7921      	ldrb	r1, [r4, #4]
 80019c6:	6820      	ldr	r0, [r4, #0]
 80019c8:	aa05      	add	r2, sp, #20
 80019ca:	f001 ff8b 	bl	80038e4 <HAL_I2C_Master_Receive>
 80019ce:	b918      	cbnz	r0, 80019d8 <INA219_ReadRegister+0x38>
 80019d0:	f8bd 3014 	ldrh.w	r3, [sp, #20]
 80019d4:	ba5b      	rev16	r3, r3
 80019d6:	802b      	strh	r3, [r5, #0]
 80019d8:	b006      	add	sp, #24
 80019da:	bd70      	pop	{r4, r5, r6, pc}

080019dc <INA219_WriteRegister.isra.0>:
 80019dc:	b51f      	push	{r0, r1, r2, r3, r4, lr}
 80019de:	0a13      	lsrs	r3, r2, #8
 80019e0:	f88d 300d 	strb.w	r3, [sp, #13]
 80019e4:	2364      	movs	r3, #100	@ 0x64
 80019e6:	9300      	str	r3, [sp, #0]
 80019e8:	f88d 100c 	strb.w	r1, [sp, #12]
 80019ec:	f88d 200e 	strb.w	r2, [sp, #14]
 80019f0:	7901      	ldrb	r1, [r0, #4]
 80019f2:	2303      	movs	r3, #3
 80019f4:	aa03      	add	r2, sp, #12
 80019f6:	6800      	ldr	r0, [r0, #0]
 80019f8:	f001 fe9a 	bl	8003730 <HAL_I2C_Master_Transmit>
 80019fc:	b005      	add	sp, #20
 80019fe:	f85d fb04 	ldr.w	pc, [sp], #4
	...

08001a04 <INA219_Init>:
 8001a04:	b570      	push	{r4, r5, r6, lr}
 8001a06:	4604      	mov	r4, r0
 8001a08:	7102      	strb	r2, [r0, #4]
 8001a0a:	6143      	str	r3, [r0, #20]
 8001a0c:	6001      	str	r1, [r0, #0]
 8001a0e:	9804      	ldr	r0, [sp, #16]
 8001a10:	4911      	ldr	r1, [pc, #68]	@ (8001a58 <INA219_Init+0x54>)
 8001a12:	461d      	mov	r5, r3
 8001a14:	f7ff f9fa 	bl	8000e0c <__aeabi_fdiv>
 8001a18:	4629      	mov	r1, r5
 8001a1a:	60a0      	str	r0, [r4, #8]
 8001a1c:	4606      	mov	r6, r0
 8001a1e:	f7ff f941 	bl	8000ca4 <__aeabi_fmul>
 8001a22:	4601      	mov	r1, r0
 8001a24:	480d      	ldr	r0, [pc, #52]	@ (8001a5c <INA219_Init+0x58>)
 8001a26:	f7ff f9f1 	bl	8000e0c <__aeabi_fdiv>
 8001a2a:	f7ff fb01 	bl	8001030 <__aeabi_f2uiz>
 8001a2e:	b285      	uxth	r5, r0
 8001a30:	490b      	ldr	r1, [pc, #44]	@ (8001a60 <INA219_Init+0x5c>)
 8001a32:	4630      	mov	r0, r6
 8001a34:	8225      	strh	r5, [r4, #16]
 8001a36:	f7ff f935 	bl	8000ca4 <__aeabi_fmul>
 8001a3a:	462a      	mov	r2, r5
 8001a3c:	60e0      	str	r0, [r4, #12]
 8001a3e:	2105      	movs	r1, #5
 8001a40:	4620      	mov	r0, r4
 8001a42:	f7ff ffcb 	bl	80019dc <INA219_WriteRegister.isra.0>
 8001a46:	4620      	mov	r0, r4
 8001a48:	e8bd 4070 	ldmia.w	sp!, {r4, r5, r6, lr}
 8001a4c:	f643 129f 	movw	r2, #14751	@ 0x399f
 8001a50:	2100      	movs	r1, #0
 8001a52:	f7ff bfc3 	b.w	80019dc <INA219_WriteRegister.isra.0>
 8001a56:	bf00      	nop
 8001a58:	46fffe00 	.word	0x46fffe00
 8001a5c:	3d27c5ac 	.word	0x3d27c5ac
 8001a60:	41a00000 	.word	0x41a00000

08001a64 <INA219_Read_Bus_Voltage>:
 8001a64:	b537      	push	{r0, r1, r2, r4, r5, lr}
 8001a66:	460d      	mov	r5, r1
 8001a68:	f10d 0206 	add.w	r2, sp, #6
 8001a6c:	2102      	movs	r1, #2
 8001a6e:	f7ff ff97 	bl	80019a0 <INA219_ReadRegister>
 8001a72:	4604      	mov	r4, r0
 8001a74:	b960      	cbnz	r0, 8001a90 <INA219_Read_Bus_Voltage+0x2c>
 8001a76:	f8bd 0006 	ldrh.w	r0, [sp, #6]
 8001a7a:	08c0      	lsrs	r0, r0, #3
 8001a7c:	f7ff f8be 	bl	8000bfc <__aeabi_i2f>
 8001a80:	f04f 4181 	mov.w	r1, #1082130432	@ 0x40800000
 8001a84:	f7ff f90e 	bl	8000ca4 <__aeabi_fmul>
 8001a88:	4903      	ldr	r1, [pc, #12]	@ (8001a98 <INA219_Read_Bus_Voltage+0x34>)
 8001a8a:	f7ff f9bf 	bl	8000e0c <__aeabi_fdiv>
 8001a8e:	6028      	str	r0, [r5, #0]
 8001a90:	4620      	mov	r0, r4
 8001a92:	b003      	add	sp, #12
 8001a94:	bd30      	pop	{r4, r5, pc}
 8001a96:	bf00      	nop
 8001a98:	447a0000 	.word	0x447a0000

08001a9c <INA219_Read_Current>:
 8001a9c:	b573      	push	{r0, r1, r4, r5, r6, lr}
 8001a9e:	4604      	mov	r4, r0
 8001aa0:	8a02      	ldrh	r2, [r0, #16]
 8001aa2:	460e      	mov	r6, r1
 8001aa4:	2105      	movs	r1, #5
 8001aa6:	f7ff ff99 	bl	80019dc <INA219_WriteRegister.isra.0>
 8001aaa:	2104      	movs	r1, #4
 8001aac:	4620      	mov	r0, r4
 8001aae:	f10d 0206 	add.w	r2, sp, #6
 8001ab2:	f7ff ff75 	bl	80019a0 <INA219_ReadRegister>
 8001ab6:	4605      	mov	r5, r0
 8001ab8:	b938      	cbnz	r0, 8001aca <INA219_Read_Current+0x2e>
 8001aba:	f9bd 0006 	ldrsh.w	r0, [sp, #6]
 8001abe:	f7ff f89d 	bl	8000bfc <__aeabi_i2f>
 8001ac2:	68a1      	ldr	r1, [r4, #8]
 8001ac4:	f7ff f8ee 	bl	8000ca4 <__aeabi_fmul>
 8001ac8:	6030      	str	r0, [r6, #0]
 8001aca:	4628      	mov	r0, r5
 8001acc:	b002      	add	sp, #8
 8001ace:	bd70      	pop	{r4, r5, r6, pc}

08001ad0 <INA219_Read_Power>:
 8001ad0:	b573      	push	{r0, r1, r4, r5, r6, lr}
 8001ad2:	4604      	mov	r4, r0
 8001ad4:	8a02      	ldrh	r2, [r0, #16]
 8001ad6:	460e      	mov	r6, r1
 8001ad8:	2105      	movs	r1, #5
 8001ada:	f7ff ff7f 	bl	80019dc <INA219_WriteRegister.isra.0>
 8001ade:	2103      	movs	r1, #3
 8001ae0:	4620      	mov	r0, r4
 8001ae2:	f10d 0206 	add.w	r2, sp, #6
 8001ae6:	f7ff ff5b 	bl	80019a0 <INA219_ReadRegister>
 8001aea:	4605      	mov	r5, r0
 8001aec:	b938      	cbnz	r0, 8001afe <INA219_Read_Power+0x2e>
 8001aee:	f8bd 0006 	ldrh.w	r0, [sp, #6]
 8001af2:	f7ff f883 	bl	8000bfc <__aeabi_i2f>
 8001af6:	68e1      	ldr	r1, [r4, #12]
 8001af8:	f7ff f8d4 	bl	8000ca4 <__aeabi_fmul>
 8001afc:	6030      	str	r0, [r6, #0]
 8001afe:	4628      	mov	r0, r5
 8001b00:	b002      	add	sp, #8
 8001b02:	bd70      	pop	{r4, r5, r6, pc}

08001b04 <StartDefaultTask>:
 8001b04:	b580      	push	{r7, lr}
 8001b06:	4d1a      	ldr	r5, [pc, #104]	@ (8001b70 <StartDefaultTask+0x6c>)
 8001b08:	4f1a      	ldr	r7, [pc, #104]	@ (8001b74 <StartDefaultTask+0x70>)
 8001b0a:	4e1b      	ldr	r6, [pc, #108]	@ (8001b78 <StartDefaultTask+0x74>)
 8001b0c:	8a38      	ldrh	r0, [r7, #16]
 8001b0e:	f7ff f875 	bl	8000bfc <__aeabi_i2f>
 8001b12:	4c1a      	ldr	r4, [pc, #104]	@ (8001b7c <StartDefaultTask+0x78>)
 8001b14:	4b1a      	ldr	r3, [pc, #104]	@ (8001b80 <StartDefaultTask+0x7c>)
 8001b16:	6819      	ldr	r1, [r3, #0]
 8001b18:	7823      	ldrb	r3, [r4, #0]
 8001b1a:	b9c3      	cbnz	r3, 8001b4e <StartDefaultTask+0x4a>
 8001b1c:	f7ff fa7e 	bl	800101c <__aeabi_fcmpgt>
 8001b20:	b158      	cbz	r0, 8001b3a <StartDefaultTask+0x36>
 8001b22:	2201      	movs	r2, #1
 8001b24:	2103      	movs	r1, #3
 8001b26:	4628      	mov	r0, r5
 8001b28:	f001 fc2a 	bl	8003380 <HAL_GPIO_WritePin>
 8001b2c:	2201      	movs	r2, #1
 8001b2e:	4815      	ldr	r0, [pc, #84]	@ (8001b84 <StartDefaultTask+0x80>)
 8001b30:	4611      	mov	r1, r2
 8001b32:	f001 fc25 	bl	8003380 <HAL_GPIO_WritePin>
 8001b36:	2301      	movs	r3, #1
 8001b38:	7023      	strb	r3, [r4, #0]
 8001b3a:	4630      	mov	r0, r6
 8001b3c:	f44f 5100 	mov.w	r1, #8192	@ 0x2000
 8001b40:	f001 fc23 	bl	800338a <HAL_GPIO_TogglePin>
 8001b44:	f44f 70fa 	mov.w	r0, #500	@ 0x1f4
 8001b48:	f004 fef9 	bl	800693e <osDelay>
 8001b4c:	e7de      	b.n	8001b0c <StartDefaultTask+0x8>
 8001b4e:	f7ff fa47 	bl	8000fe0 <__aeabi_fcmplt>
 8001b52:	2800      	cmp	r0, #0
 8001b54:	d0f1      	beq.n	8001b3a <StartDefaultTask+0x36>
 8001b56:	2200      	movs	r2, #0
 8001b58:	2103      	movs	r1, #3
 8001b5a:	4628      	mov	r0, r5
 8001b5c:	f001 fc10 	bl	8003380 <HAL_GPIO_WritePin>
 8001b60:	2200      	movs	r2, #0
 8001b62:	2101      	movs	r1, #1
 8001b64:	4807      	ldr	r0, [pc, #28]	@ (8001b84 <StartDefaultTask+0x80>)
 8001b66:	f001 fc0b 	bl	8003380 <HAL_GPIO_WritePin>
 8001b6a:	2300      	movs	r3, #0
 8001b6c:	e7e4      	b.n	8001b38 <StartDefaultTask+0x34>
 8001b6e:	bf00      	nop
 8001b70:	40010800 	.word	0x40010800
 8001b74:	20000218 	.word	0x20000218
 8001b78:	40011000 	.word	0x40011000
 8001b7c:	200005c0 	.word	0x200005c0
 8001b80:	20000000 	.word	0x20000000
 8001b84:	40010c00 	.word	0x40010c00

08001b88 <StartBMSTask>:
 8001b88:	220d      	movs	r2, #13
 8001b8a:	2100      	movs	r1, #0
 8001b8c:	b580      	push	{r7, lr}
 8001b8e:	4842      	ldr	r0, [pc, #264]	@ (8001c98 <StartBMSTask+0x110>)
 8001b90:	f006 fac5 	bl	800811e <memset>
 8001b94:	4841      	ldr	r0, [pc, #260]	@ (8001c9c <StartBMSTask+0x114>)
 8001b96:	f7ff fec7 	bl	8001928 <DalyBMS_Clear_Get>
 8001b9a:	4c41      	ldr	r4, [pc, #260]	@ (8001ca0 <StartBMSTask+0x118>)
 8001b9c:	4d41      	ldr	r5, [pc, #260]	@ (8001ca4 <StartBMSTask+0x11c>)
 8001b9e:	7823      	ldrb	r3, [r4, #0]
 8001ba0:	2b0a      	cmp	r3, #10
 8001ba2:	d81b      	bhi.n	8001bdc <StartBMSTask+0x54>
 8001ba4:	e8df f003 	tbb	[pc, r3]
 8001ba8:	403d3506 	.word	0x403d3506
 8001bac:	4c494643 	.word	0x4c494643
 8001bb0:	5d4f      	.short	0x5d4f
 8001bb2:	69          	.byte	0x69
 8001bb3:	00          	.byte	0x00
 8001bb4:	f7ff fb3c 	bl	8001230 <DalyBMS_Get_Pack_Data>
 8001bb8:	4f3b      	ldr	r7, [pc, #236]	@ (8001ca8 <StartBMSTask+0x120>)
 8001bba:	4606      	mov	r6, r0
 8001bbc:	b190      	cbz	r0, 8001be4 <StartBMSTask+0x5c>
 8001bbe:	2201      	movs	r2, #1
 8001bc0:	f44f 4100 	mov.w	r1, #32768	@ 0x8000
 8001bc4:	4628      	mov	r0, r5
 8001bc6:	f001 fbdb 	bl	8003380 <HAL_GPIO_WritePin>
 8001bca:	2201      	movs	r2, #1
 8001bcc:	4b33      	ldr	r3, [pc, #204]	@ (8001c9c <StartBMSTask+0x114>)
 8001bce:	f883 20cb 	strb.w	r2, [r3, #203]	@ 0xcb
 8001bd2:	2300      	movs	r3, #0
 8001bd4:	703b      	strb	r3, [r7, #0]
 8001bd6:	7823      	ldrb	r3, [r4, #0]
 8001bd8:	4413      	add	r3, r2
 8001bda:	7023      	strb	r3, [r4, #0]
 8001bdc:	2032      	movs	r0, #50	@ 0x32
 8001bde:	f004 feae 	bl	800693e <osDelay>
 8001be2:	e7dc      	b.n	8001b9e <StartBMSTask+0x16>
 8001be4:	4602      	mov	r2, r0
 8001be6:	f44f 4100 	mov.w	r1, #32768	@ 0x8000
 8001bea:	4628      	mov	r0, r5
 8001bec:	f001 fbc8 	bl	8003380 <HAL_GPIO_WritePin>
 8001bf0:	783b      	ldrb	r3, [r7, #0]
 8001bf2:	7026      	strb	r6, [r4, #0]
 8001bf4:	2b09      	cmp	r3, #9
 8001bf6:	d802      	bhi.n	8001bfe <StartBMSTask+0x76>
 8001bf8:	3301      	adds	r3, #1
 8001bfa:	703b      	strb	r3, [r7, #0]
 8001bfc:	e7ee      	b.n	8001bdc <StartBMSTask+0x54>
 8001bfe:	4b27      	ldr	r3, [pc, #156]	@ (8001c9c <StartBMSTask+0x114>)
 8001c00:	703e      	strb	r6, [r7, #0]
 8001c02:	f883 60cb 	strb.w	r6, [r3, #203]	@ 0xcb
 8001c06:	4b29      	ldr	r3, [pc, #164]	@ (8001cac <StartBMSTask+0x124>)
 8001c08:	681b      	ldr	r3, [r3, #0]
 8001c0a:	2b00      	cmp	r3, #0
 8001c0c:	d0e6      	beq.n	8001bdc <StartBMSTask+0x54>
 8001c0e:	4798      	blx	r3
 8001c10:	e7e4      	b.n	8001bdc <StartBMSTask+0x54>
 8001c12:	f7ff fb4b 	bl	80012ac <DalyBMS_Get_Min_Max_Cell_Voltage>
 8001c16:	b110      	cbz	r0, 8001c1e <StartBMSTask+0x96>
 8001c18:	7820      	ldrb	r0, [r4, #0]
 8001c1a:	3001      	adds	r0, #1
 8001c1c:	b2c0      	uxtb	r0, r0
 8001c1e:	7020      	strb	r0, [r4, #0]
 8001c20:	e7dc      	b.n	8001bdc <StartBMSTask+0x54>
 8001c22:	f7ff fb63 	bl	80012ec <DalyBMS_Get_Pack_Temperature>
 8001c26:	e7f6      	b.n	8001c16 <StartBMSTask+0x8e>
 8001c28:	f7ff fb7c 	bl	8001324 <DalyBMS_Get_Charge_Discharge_Status>
 8001c2c:	e7f3      	b.n	8001c16 <StartBMSTask+0x8e>
 8001c2e:	f7ff fba5 	bl	800137c <DalyBMS_Get_Status_Info>
 8001c32:	e7f0      	b.n	8001c16 <StartBMSTask+0x8e>
 8001c34:	f7ff fbca 	bl	80013cc <DalyBMS_Get_Cell_Voltages>
 8001c38:	e7ed      	b.n	8001c16 <StartBMSTask+0x8e>
 8001c3a:	f7ff fc1d 	bl	8001478 <DalyBMS_Get_Cell_Temperatures>
 8001c3e:	e7ea      	b.n	8001c16 <StartBMSTask+0x8e>
 8001c40:	f7ff fc40 	bl	80014c4 <DalyBMS_Get_Cell_Balance_State>
 8001c44:	e7e7      	b.n	8001c16 <StartBMSTask+0x8e>
 8001c46:	f7ff fc81 	bl	800154c <DalyBMS_Get_Failure_Codes>
 8001c4a:	b110      	cbz	r0, 8001c52 <StartBMSTask+0xca>
 8001c4c:	7820      	ldrb	r0, [r4, #0]
 8001c4e:	3001      	adds	r0, #1
 8001c50:	b2c0      	uxtb	r0, r0
 8001c52:	4b17      	ldr	r3, [pc, #92]	@ (8001cb0 <StartBMSTask+0x128>)
 8001c54:	7020      	strb	r0, [r4, #0]
 8001c56:	781b      	ldrb	r3, [r3, #0]
 8001c58:	2b00      	cmp	r3, #0
 8001c5a:	d0d4      	beq.n	8001c06 <StartBMSTask+0x7e>
 8001c5c:	2300      	movs	r3, #0
 8001c5e:	7023      	strb	r3, [r4, #0]
 8001c60:	e7d1      	b.n	8001c06 <StartBMSTask+0x7e>
 8001c62:	4b13      	ldr	r3, [pc, #76]	@ (8001cb0 <StartBMSTask+0x128>)
 8001c64:	781b      	ldrb	r3, [r3, #0]
 8001c66:	2b00      	cmp	r3, #0
 8001c68:	d1cd      	bne.n	8001c06 <StartBMSTask+0x7e>
 8001c6a:	f7ff fe1b 	bl	80018a4 <DalyBMS_Get_Voltage_Thresholds>
 8001c6e:	b110      	cbz	r0, 8001c76 <StartBMSTask+0xee>
 8001c70:	7820      	ldrb	r0, [r4, #0]
 8001c72:	3001      	adds	r0, #1
 8001c74:	b2c0      	uxtb	r0, r0
 8001c76:	7020      	strb	r0, [r4, #0]
 8001c78:	e7c5      	b.n	8001c06 <StartBMSTask+0x7e>
 8001c7a:	4e0d      	ldr	r6, [pc, #52]	@ (8001cb0 <StartBMSTask+0x128>)
 8001c7c:	7833      	ldrb	r3, [r6, #0]
 8001c7e:	b90b      	cbnz	r3, 8001c84 <StartBMSTask+0xfc>
 8001c80:	f7ff fe30 	bl	80018e4 <DalyBMS_Get_Pack_Thresholds>
 8001c84:	2300      	movs	r3, #0
 8001c86:	7023      	strb	r3, [r4, #0]
 8001c88:	4b08      	ldr	r3, [pc, #32]	@ (8001cac <StartBMSTask+0x124>)
 8001c8a:	681b      	ldr	r3, [r3, #0]
 8001c8c:	b103      	cbz	r3, 8001c90 <StartBMSTask+0x108>
 8001c8e:	4798      	blx	r3
 8001c90:	2301      	movs	r3, #1
 8001c92:	7033      	strb	r3, [r6, #0]
 8001c94:	e7a2      	b.n	8001bdc <StartBMSTask+0x54>
 8001c96:	bf00      	nop
 8001c98:	2000035b 	.word	0x2000035b
 8001c9c:	20000218 	.word	0x20000218
 8001ca0:	200002f1 	.word	0x200002f1
 8001ca4:	40011000 	.word	0x40011000
 8001ca8:	200002f2 	.word	0x200002f2
 8001cac:	20000368 	.word	0x20000368
 8001cb0:	200002f0 	.word	0x200002f0

08001cb4 <StartSK60xTask>:
 8001cb4:	b508      	push	{r3, lr}
 8001cb6:	f7ff fa13 	bl	80010e0 <ChargeControl_Process>
 8001cba:	2064      	movs	r0, #100	@ 0x64
 8001cbc:	f004 fe3f 	bl	800693e <osDelay>
 8001cc0:	e7f9      	b.n	8001cb6 <StartSK60xTask+0x2>
	...

08001cc4 <StartTaskModbus>:
 8001cc4:	f242 7510 	movw	r5, #10000	@ 0x2710
 8001cc8:	b508      	push	{r3, lr}
 8001cca:	4c0a      	ldr	r4, [pc, #40]	@ (8001cf4 <StartTaskModbus+0x30>)
 8001ccc:	f000 fe88 	bl	80029e0 <ModbusRTU_Process>
 8001cd0:	f001 f998 	bl	8003004 <HAL_GetTick>
 8001cd4:	f8d4 320c 	ldr.w	r3, [r4, #524]	@ 0x20c
 8001cd8:	1ac0      	subs	r0, r0, r3
 8001cda:	42a8      	cmp	r0, r5
 8001cdc:	d905      	bls.n	8001cea <StartTaskModbus+0x26>
 8001cde:	f000 fe51 	bl	8002984 <ModbusRTU_Reset>
 8001ce2:	f001 f98f 	bl	8003004 <HAL_GetTick>
 8001ce6:	f8c4 020c 	str.w	r0, [r4, #524]	@ 0x20c
 8001cea:	200a      	movs	r0, #10
 8001cec:	f004 fe27 	bl	800693e <osDelay>
 8001cf0:	e7ec      	b.n	8001ccc <StartTaskModbus+0x8>
 8001cf2:	bf00      	nop
 8001cf4:	20000794 	.word	0x20000794

08001cf8 <HAL_UART_RxCpltCallback>:
 8001cf8:	6803      	ldr	r3, [r0, #0]
 8001cfa:	4a05      	ldr	r2, [pc, #20]	@ (8001d10 <HAL_UART_RxCpltCallback+0x18>)
 8001cfc:	4293      	cmp	r3, r2
 8001cfe:	d101      	bne.n	8001d04 <HAL_UART_RxCpltCallback+0xc>
 8001d00:	f000 be18 	b.w	8002934 <ModbusRTU_RxCpltCallback>
 8001d04:	4a03      	ldr	r2, [pc, #12]	@ (8001d14 <HAL_UART_RxCpltCallback+0x1c>)
 8001d06:	4293      	cmp	r3, r2
 8001d08:	d101      	bne.n	8001d0e <HAL_UART_RxCpltCallback+0x16>
 8001d0a:	f7ff be27 	b.w	800195c <DalyBMS_RxCpltCallback>
 8001d0e:	4770      	bx	lr
 8001d10:	40004400 	.word	0x40004400
 8001d14:	40013800 	.word	0x40013800

08001d18 <HAL_UART_TxCpltCallback>:
 8001d18:	6802      	ldr	r2, [r0, #0]
 8001d1a:	4b03      	ldr	r3, [pc, #12]	@ (8001d28 <HAL_UART_TxCpltCallback+0x10>)
 8001d1c:	429a      	cmp	r2, r3
 8001d1e:	d101      	bne.n	8001d24 <HAL_UART_TxCpltCallback+0xc>
 8001d20:	f7ff be0e 	b.w	8001940 <DalyBMS_TxCpltCallback>
 8001d24:	4770      	bx	lr
 8001d26:	bf00      	nop
 8001d28:	40013800 	.word	0x40013800

08001d2c <HAL_UART_ErrorCallback>:
 8001d2c:	b508      	push	{r3, lr}
 8001d2e:	4a0a      	ldr	r2, [pc, #40]	@ (8001d58 <HAL_UART_ErrorCallback+0x2c>)
 8001d30:	6803      	ldr	r3, [r0, #0]
 8001d32:	4293      	cmp	r3, r2
 8001d34:	d103      	bne.n	8001d3e <HAL_UART_ErrorCallback+0x12>
 8001d36:	e8bd 4008 	ldmia.w	sp!, {r3, lr}
 8001d3a:	f000 be3d 	b.w	80029b8 <ModbusRTU_ErrorCallback>
 8001d3e:	4a07      	ldr	r2, [pc, #28]	@ (8001d5c <HAL_UART_ErrorCallback+0x30>)
 8001d40:	4293      	cmp	r3, r2
 8001d42:	d108      	bne.n	8001d56 <HAL_UART_ErrorCallback+0x2a>
 8001d44:	f44f 4180 	mov.w	r1, #16384	@ 0x4000
 8001d48:	4805      	ldr	r0, [pc, #20]	@ (8001d60 <HAL_UART_ErrorCallback+0x34>)
 8001d4a:	f001 fb1e 	bl	800338a <HAL_GPIO_TogglePin>
 8001d4e:	2200      	movs	r2, #0
 8001d50:	4b04      	ldr	r3, [pc, #16]	@ (8001d64 <HAL_UART_ErrorCallback+0x38>)
 8001d52:	f883 20cb 	strb.w	r2, [r3, #203]	@ 0xcb
 8001d56:	bd08      	pop	{r3, pc}
 8001d58:	40004400 	.word	0x40004400
 8001d5c:	40013800 	.word	0x40013800
 8001d60:	40011000 	.word	0x40011000
 8001d64:	20000218 	.word	0x20000218

08001d68 <Error_Handler>:
 8001d68:	b508      	push	{r3, lr}
 8001d6a:	b672      	cpsid	i
 8001d6c:	2064      	movs	r0, #100	@ 0x64
 8001d6e:	f004 fde6 	bl	800693e <osDelay>
 8001d72:	e7fb      	b.n	8001d6c <Error_Handler+0x4>

08001d74 <SystemClock_Config>:
 8001d74:	b530      	push	{r4, r5, lr}
 8001d76:	b095      	sub	sp, #84	@ 0x54
 8001d78:	2214      	movs	r2, #20
 8001d7a:	2100      	movs	r1, #0
 8001d7c:	a80c      	add	r0, sp, #48	@ 0x30
 8001d7e:	f006 f9ce 	bl	800811e <memset>
 8001d82:	2214      	movs	r2, #20
 8001d84:	2510      	movs	r5, #16
 8001d86:	2100      	movs	r1, #0
 8001d88:	eb0d 0002 	add.w	r0, sp, r2
 8001d8c:	f006 f9c7 	bl	800811e <memset>
 8001d90:	462a      	mov	r2, r5
 8001d92:	2100      	movs	r1, #0
 8001d94:	a801      	add	r0, sp, #4
 8001d96:	f006 f9c2 	bl	800811e <memset>
 8001d9a:	2402      	movs	r4, #2
 8001d9c:	f44f 3380 	mov.w	r3, #65536	@ 0x10000
 8001da0:	2201      	movs	r2, #1
 8001da2:	e9cd 4311 	strd	r4, r3, [sp, #68]	@ 0x44
 8001da6:	e9cd 230a 	strd	r2, r3, [sp, #40]	@ 0x28
 8001daa:	f44f 13e0 	mov.w	r3, #1835008	@ 0x1c0000
 8001dae:	a80a      	add	r0, sp, #40	@ 0x28
 8001db0:	920e      	str	r2, [sp, #56]	@ 0x38
 8001db2:	9313      	str	r3, [sp, #76]	@ 0x4c
 8001db4:	f002 fd22 	bl	80047fc <HAL_RCC_OscConfig>
 8001db8:	b108      	cbz	r0, 8001dbe <SystemClock_Config+0x4a>
 8001dba:	f7ff ffd5 	bl	8001d68 <Error_Handler>
 8001dbe:	230f      	movs	r3, #15
 8001dc0:	e9cd 3405 	strd	r3, r4, [sp, #20]
 8001dc4:	f44f 6380 	mov.w	r3, #1024	@ 0x400
 8001dc8:	9007      	str	r0, [sp, #28]
 8001dca:	e9cd 3008 	strd	r3, r0, [sp, #32]
 8001dce:	4621      	mov	r1, r4
 8001dd0:	a805      	add	r0, sp, #20
 8001dd2:	f002 fed5 	bl	8004b80 <HAL_RCC_ClockConfig>
 8001dd6:	2800      	cmp	r0, #0
 8001dd8:	d1ef      	bne.n	8001dba <SystemClock_Config+0x46>
 8001dda:	9004      	str	r0, [sp, #16]
 8001ddc:	a801      	add	r0, sp, #4
 8001dde:	9501      	str	r5, [sp, #4]
 8001de0:	f002 ff8a 	bl	8004cf8 <HAL_RCCEx_PeriphCLKConfig>
 8001de4:	2800      	cmp	r0, #0
 8001de6:	d1e8      	bne.n	8001dba <SystemClock_Config+0x46>
 8001de8:	b015      	add	sp, #84	@ 0x54
 8001dea:	bd30      	pop	{r4, r5, pc}

08001dec <main>:
 8001dec:	b580      	push	{r7, lr}
 8001dee:	b0a2      	sub	sp, #136	@ 0x88
 8001df0:	f001 f8ea 	bl	8002fc8 <HAL_Init>
 8001df4:	f7ff ffbe 	bl	8001d74 <SystemClock_Config>
 8001df8:	2210      	movs	r2, #16
 8001dfa:	2100      	movs	r1, #0
 8001dfc:	a81b      	add	r0, sp, #108	@ 0x6c
 8001dfe:	f006 f98e 	bl	800811e <memset>
 8001e02:	4b96      	ldr	r3, [pc, #600]	@ (800205c <main+0x270>)
 8001e04:	f44f 4160 	mov.w	r1, #57344	@ 0xe000
 8001e08:	699a      	ldr	r2, [r3, #24]
 8001e0a:	4895      	ldr	r0, [pc, #596]	@ (8002060 <main+0x274>)
 8001e0c:	f042 0210 	orr.w	r2, r2, #16
 8001e10:	619a      	str	r2, [r3, #24]
 8001e12:	699a      	ldr	r2, [r3, #24]
 8001e14:	2400      	movs	r4, #0
 8001e16:	f002 0210 	and.w	r2, r2, #16
 8001e1a:	9202      	str	r2, [sp, #8]
 8001e1c:	9a02      	ldr	r2, [sp, #8]
 8001e1e:	699a      	ldr	r2, [r3, #24]
 8001e20:	2601      	movs	r6, #1
 8001e22:	f042 0220 	orr.w	r2, r2, #32
 8001e26:	619a      	str	r2, [r3, #24]
 8001e28:	699a      	ldr	r2, [r3, #24]
 8001e2a:	2502      	movs	r5, #2
 8001e2c:	f002 0220 	and.w	r2, r2, #32
 8001e30:	9203      	str	r2, [sp, #12]
 8001e32:	9a03      	ldr	r2, [sp, #12]
 8001e34:	699a      	ldr	r2, [r3, #24]
 8001e36:	f042 0204 	orr.w	r2, r2, #4
 8001e3a:	619a      	str	r2, [r3, #24]
 8001e3c:	699a      	ldr	r2, [r3, #24]
 8001e3e:	f002 0204 	and.w	r2, r2, #4
 8001e42:	9204      	str	r2, [sp, #16]
 8001e44:	9a04      	ldr	r2, [sp, #16]
 8001e46:	699a      	ldr	r2, [r3, #24]
 8001e48:	f042 0208 	orr.w	r2, r2, #8
 8001e4c:	619a      	str	r2, [r3, #24]
 8001e4e:	699b      	ldr	r3, [r3, #24]
 8001e50:	2200      	movs	r2, #0
 8001e52:	f003 0308 	and.w	r3, r3, #8
 8001e56:	9305      	str	r3, [sp, #20]
 8001e58:	9b05      	ldr	r3, [sp, #20]
 8001e5a:	f001 fa91 	bl	8003380 <HAL_GPIO_WritePin>
 8001e5e:	2200      	movs	r2, #0
 8001e60:	2103      	movs	r1, #3
 8001e62:	4880      	ldr	r0, [pc, #512]	@ (8002064 <main+0x278>)
 8001e64:	f001 fa8c 	bl	8003380 <HAL_GPIO_WritePin>
 8001e68:	2200      	movs	r2, #0
 8001e6a:	2123      	movs	r1, #35	@ 0x23
 8001e6c:	487e      	ldr	r0, [pc, #504]	@ (8002068 <main+0x27c>)
 8001e6e:	f001 fa87 	bl	8003380 <HAL_GPIO_WritePin>
 8001e72:	f44f 4360 	mov.w	r3, #57344	@ 0xe000
 8001e76:	487a      	ldr	r0, [pc, #488]	@ (8002060 <main+0x274>)
 8001e78:	a91b      	add	r1, sp, #108	@ 0x6c
 8001e7a:	e9cd 361b 	strd	r3, r6, [sp, #108]	@ 0x6c
 8001e7e:	e9cd 451d 	strd	r4, r5, [sp, #116]	@ 0x74
 8001e82:	f001 f9a3 	bl	80031cc <HAL_GPIO_Init>
 8001e86:	2303      	movs	r3, #3
 8001e88:	4876      	ldr	r0, [pc, #472]	@ (8002064 <main+0x278>)
 8001e8a:	a91b      	add	r1, sp, #108	@ 0x6c
 8001e8c:	e9cd 361b 	strd	r3, r6, [sp, #108]	@ 0x6c
 8001e90:	e9cd 451d 	strd	r4, r5, [sp, #116]	@ 0x74
 8001e94:	f001 f99a 	bl	80031cc <HAL_GPIO_Init>
 8001e98:	2323      	movs	r3, #35	@ 0x23
 8001e9a:	4873      	ldr	r0, [pc, #460]	@ (8002068 <main+0x27c>)
 8001e9c:	a91b      	add	r1, sp, #108	@ 0x6c
 8001e9e:	e9cd 361b 	strd	r3, r6, [sp, #108]	@ 0x6c
 8001ea2:	e9cd 451d 	strd	r4, r5, [sp, #116]	@ 0x74
 8001ea6:	f001 f991 	bl	80031cc <HAL_GPIO_Init>
 8001eaa:	f44f 4301 	mov.w	r3, #33024	@ 0x8100
 8001eae:	486d      	ldr	r0, [pc, #436]	@ (8002064 <main+0x278>)
 8001eb0:	a91b      	add	r1, sp, #108	@ 0x6c
 8001eb2:	e9cd 341b 	strd	r3, r4, [sp, #108]	@ 0x6c
 8001eb6:	941d      	str	r4, [sp, #116]	@ 0x74
 8001eb8:	f001 f988 	bl	80031cc <HAL_GPIO_Init>
 8001ebc:	2318      	movs	r3, #24
 8001ebe:	486a      	ldr	r0, [pc, #424]	@ (8002068 <main+0x27c>)
 8001ec0:	a91b      	add	r1, sp, #108	@ 0x6c
 8001ec2:	e9cd 341b 	strd	r3, r4, [sp, #108]	@ 0x6c
 8001ec6:	260c      	movs	r6, #12
 8001ec8:	941d      	str	r4, [sp, #116]	@ 0x74
 8001eca:	f001 f97f 	bl	80031cc <HAL_GPIO_Init>
 8001ece:	f44f 5316 	mov.w	r3, #9600	@ 0x2580
 8001ed2:	4866      	ldr	r0, [pc, #408]	@ (800206c <main+0x280>)
 8001ed4:	4966      	ldr	r1, [pc, #408]	@ (8002070 <main+0x284>)
 8001ed6:	e9c0 4402 	strd	r4, r4, [r0, #8]
 8001eda:	e9c0 1300 	strd	r1, r3, [r0]
 8001ede:	e9c0 6405 	strd	r6, r4, [r0, #20]
 8001ee2:	6104      	str	r4, [r0, #16]
 8001ee4:	61c4      	str	r4, [r0, #28]
 8001ee6:	f003 f9e7 	bl	80052b8 <HAL_UART_Init>
 8001eea:	b108      	cbz	r0, 8001ef0 <main+0x104>
 8001eec:	f7ff ff3c 	bl	8001d68 <Error_Handler>
 8001ef0:	f44f 34e1 	mov.w	r4, #115200	@ 0x1c200
 8001ef4:	4d5f      	ldr	r5, [pc, #380]	@ (8002074 <main+0x288>)
 8001ef6:	4b60      	ldr	r3, [pc, #384]	@ (8002078 <main+0x28c>)
 8001ef8:	e9c5 0002 	strd	r0, r0, [r5, #8]
 8001efc:	e9c5 0604 	strd	r0, r6, [r5, #16]
 8001f00:	e9c5 0006 	strd	r0, r0, [r5, #24]
 8001f04:	4628      	mov	r0, r5
 8001f06:	e9c5 3400 	strd	r3, r4, [r5]
 8001f0a:	f003 f9d5 	bl	80052b8 <HAL_UART_Init>
 8001f0e:	4603      	mov	r3, r0
 8001f10:	2800      	cmp	r0, #0
 8001f12:	d1eb      	bne.n	8001eec <main+0x100>
 8001f14:	4859      	ldr	r0, [pc, #356]	@ (800207c <main+0x290>)
 8001f16:	4a5a      	ldr	r2, [pc, #360]	@ (8002080 <main+0x294>)
 8001f18:	e9c0 3302 	strd	r3, r3, [r0, #8]
 8001f1c:	e9c0 2400 	strd	r2, r4, [r0]
 8001f20:	e9c0 3604 	strd	r3, r6, [r0, #16]
 8001f24:	e9c0 3306 	strd	r3, r3, [r0, #24]
 8001f28:	f003 f9c6 	bl	80052b8 <HAL_UART_Init>
 8001f2c:	2800      	cmp	r0, #0
 8001f2e:	d1dd      	bne.n	8001eec <main+0x100>
 8001f30:	4c54      	ldr	r4, [pc, #336]	@ (8002084 <main+0x298>)
 8001f32:	4a55      	ldr	r2, [pc, #340]	@ (8002088 <main+0x29c>)
 8001f34:	4b55      	ldr	r3, [pc, #340]	@ (800208c <main+0x2a0>)
 8001f36:	e9c4 0002 	strd	r0, r0, [r4, #8]
 8001f3a:	e9c4 2300 	strd	r2, r3, [r4]
 8001f3e:	f44f 4380 	mov.w	r3, #16384	@ 0x4000
 8001f42:	e9c4 0006 	strd	r0, r0, [r4, #24]
 8001f46:	e9c4 3004 	strd	r3, r0, [r4, #16]
 8001f4a:	6220      	str	r0, [r4, #32]
 8001f4c:	4620      	mov	r0, r4
 8001f4e:	f001 fb47 	bl	80035e0 <HAL_I2C_Init>
 8001f52:	4606      	mov	r6, r0
 8001f54:	2800      	cmp	r0, #0
 8001f56:	d1c9      	bne.n	8001eec <main+0x100>
 8001f58:	4601      	mov	r1, r0
 8001f5a:	2210      	movs	r2, #16
 8001f5c:	a81b      	add	r0, sp, #108	@ 0x6c
 8001f5e:	f006 f8de 	bl	800811e <memset>
 8001f62:	f04f 4380 	mov.w	r3, #1073741824	@ 0x40000000
 8001f66:	4f4a      	ldr	r7, [pc, #296]	@ (8002090 <main+0x2a4>)
 8001f68:	e9cd 6614 	strd	r6, r6, [sp, #80]	@ 0x50
 8001f6c:	e9c7 3600 	strd	r3, r6, [r7]
 8001f70:	f64f 73ff 	movw	r3, #65535	@ 0xffff
 8001f74:	4638      	mov	r0, r7
 8001f76:	e9c7 3603 	strd	r3, r6, [r7, #12]
 8001f7a:	60be      	str	r6, [r7, #8]
 8001f7c:	61be      	str	r6, [r7, #24]
 8001f7e:	f003 f801 	bl	8004f84 <HAL_TIM_Base_Init>
 8001f82:	2800      	cmp	r0, #0
 8001f84:	d1b2      	bne.n	8001eec <main+0x100>
 8001f86:	f44f 5380 	mov.w	r3, #4096	@ 0x1000
 8001f8a:	4638      	mov	r0, r7
 8001f8c:	a91b      	add	r1, sp, #108	@ 0x6c
 8001f8e:	931b      	str	r3, [sp, #108]	@ 0x6c
 8001f90:	f003 f82e 	bl	8004ff0 <HAL_TIM_ConfigClockSource>
 8001f94:	2800      	cmp	r0, #0
 8001f96:	d1a9      	bne.n	8001eec <main+0x100>
 8001f98:	e9cd 0014 	strd	r0, r0, [sp, #80]	@ 0x50
 8001f9c:	a914      	add	r1, sp, #80	@ 0x50
 8001f9e:	4638      	mov	r0, r7
 8001fa0:	f003 f8c0 	bl	8005124 <HAL_TIMEx_MasterConfigSynchronization>
 8001fa4:	4607      	mov	r7, r0
 8001fa6:	2800      	cmp	r0, #0
 8001fa8:	d1a0      	bne.n	8001eec <main+0x100>
 8001faa:	483a      	ldr	r0, [pc, #232]	@ (8002094 <main+0x2a8>)
 8001fac:	f7ff fcc2 	bl	8001934 <DalyBMS_Set_Callback>
 8001fb0:	4628      	mov	r0, r5
 8001fb2:	4d39      	ldr	r5, [pc, #228]	@ (8002098 <main+0x2ac>)
 8001fb4:	f000 f884 	bl	80020c0 <ModbusRTU_Init>
 8001fb8:	4621      	mov	r1, r4
 8001fba:	2280      	movs	r2, #128	@ 0x80
 8001fbc:	4b37      	ldr	r3, [pc, #220]	@ (800209c <main+0x2b0>)
 8001fbe:	4838      	ldr	r0, [pc, #224]	@ (80020a0 <main+0x2b4>)
 8001fc0:	9500      	str	r5, [sp, #0]
 8001fc2:	f7ff fd1f 	bl	8001a04 <INA219_Init>
 8001fc6:	4621      	mov	r1, r4
 8001fc8:	2282      	movs	r2, #130	@ 0x82
 8001fca:	4b34      	ldr	r3, [pc, #208]	@ (800209c <main+0x2b0>)
 8001fcc:	4835      	ldr	r0, [pc, #212]	@ (80020a4 <main+0x2b8>)
 8001fce:	9500      	str	r5, [sp, #0]
 8001fd0:	f7ff fd18 	bl	8001a04 <INA219_Init>
 8001fd4:	4621      	mov	r1, r4
 8001fd6:	4c34      	ldr	r4, [pc, #208]	@ (80020a8 <main+0x2bc>)
 8001fd8:	2288      	movs	r2, #136	@ 0x88
 8001fda:	4b30      	ldr	r3, [pc, #192]	@ (800209c <main+0x2b0>)
 8001fdc:	4833      	ldr	r0, [pc, #204]	@ (80020ac <main+0x2c0>)
 8001fde:	9500      	str	r5, [sp, #0]
 8001fe0:	ad06      	add	r5, sp, #24
 8001fe2:	f7ff fd0f 	bl	8001a04 <INA219_Init>
 8001fe6:	cc0f      	ldmia	r4!, {r0, r1, r2, r3}
 8001fe8:	c50f      	stmia	r5!, {r0, r1, r2, r3}
 8001fea:	e894 0007 	ldmia.w	r4, {r0, r1, r2}
 8001fee:	e885 0007 	stmia.w	r5, {r0, r1, r2}
 8001ff2:	4639      	mov	r1, r7
 8001ff4:	a806      	add	r0, sp, #24
 8001ff6:	f004 fc7a 	bl	80068ee <osThreadCreate>
 8001ffa:	4b2d      	ldr	r3, [pc, #180]	@ (80020b0 <main+0x2c4>)
 8001ffc:	f104 060c 	add.w	r6, r4, #12
 8002000:	ad0d      	add	r5, sp, #52	@ 0x34
 8002002:	6018      	str	r0, [r3, #0]
 8002004:	ce0f      	ldmia	r6!, {r0, r1, r2, r3}
 8002006:	c50f      	stmia	r5!, {r0, r1, r2, r3}
 8002008:	e896 0007 	ldmia.w	r6, {r0, r1, r2}
 800200c:	e885 0007 	stmia.w	r5, {r0, r1, r2}
 8002010:	4639      	mov	r1, r7
 8002012:	a80d      	add	r0, sp, #52	@ 0x34
 8002014:	f004 fc6b 	bl	80068ee <osThreadCreate>
 8002018:	4b26      	ldr	r3, [pc, #152]	@ (80020b4 <main+0x2c8>)
 800201a:	f104 0628 	add.w	r6, r4, #40	@ 0x28
 800201e:	ad14      	add	r5, sp, #80	@ 0x50
 8002020:	6018      	str	r0, [r3, #0]
 8002022:	ce0f      	ldmia	r6!, {r0, r1, r2, r3}
 8002024:	c50f      	stmia	r5!, {r0, r1, r2, r3}
 8002026:	e896 0007 	ldmia.w	r6, {r0, r1, r2}
 800202a:	e885 0007 	stmia.w	r5, {r0, r1, r2}
 800202e:	4639      	mov	r1, r7
 8002030:	a814      	add	r0, sp, #80	@ 0x50
 8002032:	f004 fc5c 	bl	80068ee <osThreadCreate>
 8002036:	4b20      	ldr	r3, [pc, #128]	@ (80020b8 <main+0x2cc>)
 8002038:	ad1b      	add	r5, sp, #108	@ 0x6c
 800203a:	3444      	adds	r4, #68	@ 0x44
 800203c:	6018      	str	r0, [r3, #0]
 800203e:	cc0f      	ldmia	r4!, {r0, r1, r2, r3}
 8002040:	c50f      	stmia	r5!, {r0, r1, r2, r3}
 8002042:	e894 0007 	ldmia.w	r4, {r0, r1, r2}
 8002046:	e885 0007 	stmia.w	r5, {r0, r1, r2}
 800204a:	4639      	mov	r1, r7
 800204c:	a81b      	add	r0, sp, #108	@ 0x6c
 800204e:	f004 fc4e 	bl	80068ee <osThreadCreate>
 8002052:	4b1a      	ldr	r3, [pc, #104]	@ (80020bc <main+0x2d0>)
 8002054:	6018      	str	r0, [r3, #0]
 8002056:	f004 fc45 	bl	80068e4 <osKernelStart>
 800205a:	e7fe      	b.n	800205a <main+0x26e>
 800205c:	40021000 	.word	0x40021000
 8002060:	40011000 	.word	0x40011000
 8002064:	40010800 	.word	0x40010800
 8002068:	40010c00 	.word	0x40010c00
 800206c:	200006ac 	.word	0x200006ac
 8002070:	40013800 	.word	0x40013800
 8002074:	20000664 	.word	0x20000664
 8002078:	40004400 	.word	0x40004400
 800207c:	2000061c 	.word	0x2000061c
 8002080:	40004800 	.word	0x40004800
 8002084:	2000073c 	.word	0x2000073c
 8002088:	40005400 	.word	0x40005400
 800208c:	000186a0 	.word	0x000186a0
 8002090:	200006f4 	.word	0x200006f4
 8002094:	08001925 	.word	0x08001925
 8002098:	40400000 	.word	0x40400000
 800209c:	3dcccccd 	.word	0x3dcccccd
 80020a0:	200005f4 	.word	0x200005f4
 80020a4:	200005dc 	.word	0x200005dc
 80020a8:	08009f98 	.word	0x08009f98
 80020ac:	200005c4 	.word	0x200005c4
 80020b0:	20000618 	.word	0x20000618
 80020b4:	20000614 	.word	0x20000614
 80020b8:	20000610 	.word	0x20000610
 80020bc:	2000060c 	.word	0x2000060c

080020c0 <ModbusRTU_Init>:
 80020c0:	b538      	push	{r3, r4, r5, lr}
 80020c2:	b358      	cbz	r0, 800211c <ModbusRTU_Init+0x5c>
 80020c4:	2500      	movs	r5, #0
 80020c6:	4b16      	ldr	r3, [pc, #88]	@ (8002120 <ModbusRTU_Init+0x60>)
 80020c8:	4c16      	ldr	r4, [pc, #88]	@ (8002124 <ModbusRTU_Init+0x64>)
 80020ca:	781b      	ldrb	r3, [r3, #0]
 80020cc:	6020      	str	r0, [r4, #0]
 80020ce:	7123      	strb	r3, [r4, #4]
 80020d0:	f884 520a 	strb.w	r5, [r4, #522]	@ 0x20a
 80020d4:	f8a4 5206 	strh.w	r5, [r4, #518]	@ 0x206
 80020d8:	f8a4 5208 	strh.w	r5, [r4, #520]	@ 0x208
 80020dc:	f000 ff92 	bl	8003004 <HAL_GetTick>
 80020e0:	f44f 7280 	mov.w	r2, #256	@ 0x100
 80020e4:	4629      	mov	r1, r5
 80020e6:	f8c4 020c 	str.w	r0, [r4, #524]	@ 0x20c
 80020ea:	1d60      	adds	r0, r4, #5
 80020ec:	f006 f817 	bl	800811e <memset>
 80020f0:	f44f 7280 	mov.w	r2, #256	@ 0x100
 80020f4:	4629      	mov	r1, r5
 80020f6:	f204 1005 	addw	r0, r4, #261	@ 0x105
 80020fa:	f006 f810 	bl	800811e <memset>
 80020fe:	6820      	ldr	r0, [r4, #0]
 8002100:	f890 3042 	ldrb.w	r3, [r0, #66]	@ 0x42
 8002104:	2b20      	cmp	r3, #32
 8002106:	d001      	beq.n	800210c <ModbusRTU_Init+0x4c>
 8002108:	f003 f9aa 	bl	8005460 <HAL_UART_Abort>
 800210c:	e8bd 4038 	ldmia.w	sp!, {r3, r4, r5, lr}
 8002110:	4905      	ldr	r1, [pc, #20]	@ (8002128 <ModbusRTU_Init+0x68>)
 8002112:	2201      	movs	r2, #1
 8002114:	f851 0c05 	ldr.w	r0, [r1, #-5]
 8002118:	f003 bc3d 	b.w	8005996 <HAL_UART_Receive_IT>
 800211c:	2001      	movs	r0, #1
 800211e:	bd38      	pop	{r3, r4, r5, pc}
 8002120:	20000004 	.word	0x20000004
 8002124:	20000794 	.word	0x20000794
 8002128:	20000799 	.word	0x20000799

0800212c <ModbusRTU_CalculateCRC>:
 800212c:	4602      	mov	r2, r0
 800212e:	4401      	add	r1, r0
 8002130:	f64f 70ff 	movw	r0, #65535	@ 0xffff
 8002134:	b530      	push	{r4, r5, lr}
 8002136:	4d09      	ldr	r5, [pc, #36]	@ (800215c <ModbusRTU_CalculateCRC+0x30>)
 8002138:	428a      	cmp	r2, r1
 800213a:	d100      	bne.n	800213e <ModbusRTU_CalculateCRC+0x12>
 800213c:	bd30      	pop	{r4, r5, pc}
 800213e:	2408      	movs	r4, #8
 8002140:	f812 3b01 	ldrb.w	r3, [r2], #1
 8002144:	4058      	eors	r0, r3
 8002146:	f340 0300 	sbfx	r3, r0, #0, #1
 800214a:	402b      	ands	r3, r5
 800214c:	ea83 0350 	eor.w	r3, r3, r0, lsr #1
 8002150:	b298      	uxth	r0, r3
 8002152:	1e63      	subs	r3, r4, #1
 8002154:	f013 04ff 	ands.w	r4, r3, #255	@ 0xff
 8002158:	d1f5      	bne.n	8002146 <ModbusRTU_CalculateCRC+0x1a>
 800215a:	e7ed      	b.n	8002138 <ModbusRTU_CalculateCRC+0xc>
 800215c:	ffffa001 	.word	0xffffa001

08002160 <ModbusRTU_CheckCRC>:
 8002160:	2903      	cmp	r1, #3
 8002162:	b538      	push	{r3, r4, r5, lr}
 8002164:	4604      	mov	r4, r0
 8002166:	460d      	mov	r5, r1
 8002168:	d90e      	bls.n	8002188 <ModbusRTU_CheckCRC+0x28>
 800216a:	3902      	subs	r1, #2
 800216c:	b289      	uxth	r1, r1
 800216e:	f7ff ffdd 	bl	800212c <ModbusRTU_CalculateCRC>
 8002172:	1961      	adds	r1, r4, r5
 8002174:	f811 2c01 	ldrb.w	r2, [r1, #-1]
 8002178:	f811 3c02 	ldrb.w	r3, [r1, #-2]
 800217c:	ea43 2302 	orr.w	r3, r3, r2, lsl #8
 8002180:	1a1b      	subs	r3, r3, r0
 8002182:	4258      	negs	r0, r3
 8002184:	4158      	adcs	r0, r3
 8002186:	bd38      	pop	{r3, r4, r5, pc}
 8002188:	2000      	movs	r0, #0
 800218a:	e7fc      	b.n	8002186 <ModbusRTU_CheckCRC+0x26>

0800218c <ModbusRTU_SendResponse>:
 800218c:	b570      	push	{r4, r5, r6, lr}
 800218e:	460c      	mov	r4, r1
 8002190:	4606      	mov	r6, r0
 8002192:	f7ff ffcb 	bl	800212c <ModbusRTU_CalculateCRC>
 8002196:	4d1b      	ldr	r5, [pc, #108]	@ (8002204 <ModbusRTU_SendResponse+0x78>)
 8002198:	1933      	adds	r3, r6, r4
 800219a:	5530      	strb	r0, [r6, r4]
 800219c:	0a00      	lsrs	r0, r0, #8
 800219e:	7058      	strb	r0, [r3, #1]
 80021a0:	6828      	ldr	r0, [r5, #0]
 80021a2:	3402      	adds	r4, #2
 80021a4:	f003 f9d4 	bl	8005550 <HAL_UART_AbortReceive_IT>
 80021a8:	b2a4      	uxth	r4, r4
 80021aa:	2001      	movs	r0, #1
 80021ac:	f000 ff30 	bl	8003010 <HAL_Delay>
 80021b0:	2c33      	cmp	r4, #51	@ 0x33
 80021b2:	4622      	mov	r2, r4
 80021b4:	bf34      	ite	cc
 80021b6:	2364      	movcc	r3, #100	@ 0x64
 80021b8:	23c8      	movcs	r3, #200	@ 0xc8
 80021ba:	4631      	mov	r1, r6
 80021bc:	6828      	ldr	r0, [r5, #0]
 80021be:	f003 f8aa 	bl	8005316 <HAL_UART_Transmit>
 80021c2:	4604      	mov	r4, r0
 80021c4:	b150      	cbz	r0, 80021dc <ModbusRTU_SendResponse+0x50>
 80021c6:	f44f 4180 	mov.w	r1, #16384	@ 0x4000
 80021ca:	480f      	ldr	r0, [pc, #60]	@ (8002208 <ModbusRTU_SendResponse+0x7c>)
 80021cc:	f001 f8dd 	bl	800338a <HAL_GPIO_TogglePin>
 80021d0:	6828      	ldr	r0, [r5, #0]
 80021d2:	f003 f945 	bl	8005460 <HAL_UART_Abort>
 80021d6:	2407      	movs	r4, #7
 80021d8:	4620      	mov	r0, r4
 80021da:	bd70      	pop	{r4, r5, r6, pc}
 80021dc:	4601      	mov	r1, r0
 80021de:	f44f 7280 	mov.w	r2, #256	@ 0x100
 80021e2:	f8a5 0206 	strh.w	r0, [r5, #518]	@ 0x206
 80021e6:	f885 020a 	strb.w	r0, [r5, #522]	@ 0x20a
 80021ea:	1d68      	adds	r0, r5, #5
 80021ec:	f005 ff97 	bl	800811e <memset>
 80021f0:	2001      	movs	r0, #1
 80021f2:	f000 ff0d 	bl	8003010 <HAL_Delay>
 80021f6:	4629      	mov	r1, r5
 80021f8:	2201      	movs	r2, #1
 80021fa:	f851 0b05 	ldr.w	r0, [r1], #5
 80021fe:	f003 fbca 	bl	8005996 <HAL_UART_Receive_IT>
 8002202:	e7e9      	b.n	80021d8 <ModbusRTU_SendResponse+0x4c>
 8002204:	20000794 	.word	0x20000794
 8002208:	40011000 	.word	0x40011000

0800220c <ModbusRTU_SendException>:
 800220c:	4b07      	ldr	r3, [pc, #28]	@ (800222c <ModbusRTU_SendException+0x20>)
 800220e:	f060 007f 	orn	r0, r0, #127	@ 0x7f
 8002212:	791a      	ldrb	r2, [r3, #4]
 8002214:	f883 0106 	strb.w	r0, [r3, #262]	@ 0x106
 8002218:	f883 1107 	strb.w	r1, [r3, #263]	@ 0x107
 800221c:	f203 1005 	addw	r0, r3, #261	@ 0x105
 8002220:	2103      	movs	r1, #3
 8002222:	f883 2105 	strb.w	r2, [r3, #261]	@ 0x105
 8002226:	f7ff bfb1 	b.w	800218c <ModbusRTU_SendResponse>
 800222a:	bf00      	nop
 800222c:	20000794 	.word	0x20000794

08002230 <ModbusRTU_ReadRegister>:
 8002230:	284e      	cmp	r0, #78	@ 0x4e
 8002232:	b513      	push	{r0, r1, r4, lr}
 8002234:	d91a      	bls.n	800226c <ModbusRTU_ReadRegister+0x3c>
 8002236:	f5a0 7380 	sub.w	r3, r0, #256	@ 0x100
 800223a:	2b08      	cmp	r3, #8
 800223c:	d901      	bls.n	8002242 <ModbusRTU_ReadRegister+0x12>
 800223e:	2400      	movs	r4, #0
 8002240:	e011      	b.n	8002266 <ModbusRTU_ReadRegister+0x36>
 8002242:	f46f 7380 	mvn.w	r3, #256	@ 0x100
 8002246:	4418      	add	r0, r3
 8002248:	2807      	cmp	r0, #7
 800224a:	f200 819c 	bhi.w	8002586 <ModbusRTU_ReadRegister+0x356>
 800224e:	e8df f010 	tbh	[pc, r0, lsl #1]
 8002252:	019d      	.short	0x019d
 8002254:	01a301a0 	.word	0x01a301a0
 8002258:	000801d2 	.word	0x000801d2
 800225c:	01a60008 	.word	0x01a60008
 8002260:	01bf      	.short	0x01bf
 8002262:	f240 1401 	movw	r4, #257	@ 0x101
 8002266:	4620      	mov	r0, r4
 8002268:	b002      	add	sp, #8
 800226a:	bd10      	pop	{r4, pc}
 800226c:	284e      	cmp	r0, #78	@ 0x4e
 800226e:	d8e6      	bhi.n	800223e <ModbusRTU_ReadRegister+0xe>
 8002270:	a301      	add	r3, pc, #4	@ (adr r3, 8002278 <ModbusRTU_ReadRegister+0x48>)
 8002272:	f853 f020 	ldr.w	pc, [r3, r0, lsl #2]
 8002276:	bf00      	nop
 8002278:	080023b5 	.word	0x080023b5
 800227c:	080023bb 	.word	0x080023bb
 8002280:	080023c1 	.word	0x080023c1
 8002284:	080023c7 	.word	0x080023c7
 8002288:	080023cd 	.word	0x080023cd
 800228c:	080023d3 	.word	0x080023d3
 8002290:	080023d9 	.word	0x080023d9
 8002294:	080023df 	.word	0x080023df
 8002298:	080023e5 	.word	0x080023e5
 800229c:	080023eb 	.word	0x080023eb
 80022a0:	080023f3 	.word	0x080023f3
 80022a4:	080023f9 	.word	0x080023f9
 80022a8:	080023ff 	.word	0x080023ff
 80022ac:	08002407 	.word	0x08002407
 80022b0:	0800240f 	.word	0x0800240f
 80022b4:	08002415 	.word	0x08002415
 80022b8:	0800241d 	.word	0x0800241d
 80022bc:	08002425 	.word	0x08002425
 80022c0:	0800242d 	.word	0x0800242d
 80022c4:	08002435 	.word	0x08002435
 80022c8:	0800244d 	.word	0x0800244d
 80022cc:	0800244d 	.word	0x0800244d
 80022d0:	0800244d 	.word	0x0800244d
 80022d4:	0800244d 	.word	0x0800244d
 80022d8:	0800244d 	.word	0x0800244d
 80022dc:	0800244d 	.word	0x0800244d
 80022e0:	08002465 	.word	0x08002465
 80022e4:	08002465 	.word	0x08002465
 80022e8:	0800247d 	.word	0x0800247d
 80022ec:	0800247d 	.word	0x0800247d
 80022f0:	0800247d 	.word	0x0800247d
 80022f4:	0800247d 	.word	0x0800247d
 80022f8:	0800247d 	.word	0x0800247d
 80022fc:	0800247d 	.word	0x0800247d
 8002300:	0800243d 	.word	0x0800243d
 8002304:	08002445 	.word	0x08002445
 8002308:	08002495 	.word	0x08002495
 800230c:	0800249b 	.word	0x0800249b
 8002310:	080024a1 	.word	0x080024a1
 8002314:	080024a7 	.word	0x080024a7
 8002318:	080024ad 	.word	0x080024ad
 800231c:	080024b3 	.word	0x080024b3
 8002320:	080024b9 	.word	0x080024b9
 8002324:	080024bf 	.word	0x080024bf
 8002328:	0800223f 	.word	0x0800223f
 800232c:	0800223f 	.word	0x0800223f
 8002330:	0800223f 	.word	0x0800223f
 8002334:	0800223f 	.word	0x0800223f
 8002338:	080024c5 	.word	0x080024c5
 800233c:	080024c9 	.word	0x080024c9
 8002340:	080024cd 	.word	0x080024cd
 8002344:	080024d1 	.word	0x080024d1
 8002348:	080024d5 	.word	0x080024d5
 800234c:	080024d9 	.word	0x080024d9
 8002350:	080024dd 	.word	0x080024dd
 8002354:	080024e1 	.word	0x080024e1
 8002358:	080024e5 	.word	0x080024e5
 800235c:	080024e9 	.word	0x080024e9
 8002360:	080024ed 	.word	0x080024ed
 8002364:	080024f1 	.word	0x080024f1
 8002368:	080024f5 	.word	0x080024f5
 800236c:	080024fb 	.word	0x080024fb
 8002370:	080024ff 	.word	0x080024ff
 8002374:	08002507 	.word	0x08002507
 8002378:	0800250d 	.word	0x0800250d
 800237c:	0800252b 	.word	0x0800252b
 8002380:	08002535 	.word	0x08002535
 8002384:	0800253f 	.word	0x0800253f
 8002388:	08002545 	.word	0x08002545
 800238c:	0800254b 	.word	0x0800254b
 8002390:	08002551 	.word	0x08002551
 8002394:	08002557 	.word	0x08002557
 8002398:	0800255d 	.word	0x0800255d
 800239c:	08002563 	.word	0x08002563
 80023a0:	0800256d 	.word	0x0800256d
 80023a4:	08002571 	.word	0x08002571
 80023a8:	08002577 	.word	0x08002577
 80023ac:	0800257b 	.word	0x0800257b
 80023b0:	0800257f 	.word	0x0800257f
 80023b4:	4b91      	ldr	r3, [pc, #580]	@ (80025fc <ModbusRTU_ReadRegister+0x3cc>)
 80023b6:	8a1c      	ldrh	r4, [r3, #16]
 80023b8:	e755      	b.n	8002266 <ModbusRTU_ReadRegister+0x36>
 80023ba:	4b90      	ldr	r3, [pc, #576]	@ (80025fc <ModbusRTU_ReadRegister+0x3cc>)
 80023bc:	8a5c      	ldrh	r4, [r3, #18]
 80023be:	e752      	b.n	8002266 <ModbusRTU_ReadRegister+0x36>
 80023c0:	4b8e      	ldr	r3, [pc, #568]	@ (80025fc <ModbusRTU_ReadRegister+0x3cc>)
 80023c2:	8a9c      	ldrh	r4, [r3, #20]
 80023c4:	e74f      	b.n	8002266 <ModbusRTU_ReadRegister+0x36>
 80023c6:	4b8d      	ldr	r3, [pc, #564]	@ (80025fc <ModbusRTU_ReadRegister+0x3cc>)
 80023c8:	8adc      	ldrh	r4, [r3, #22]
 80023ca:	e74c      	b.n	8002266 <ModbusRTU_ReadRegister+0x36>
 80023cc:	4b8b      	ldr	r3, [pc, #556]	@ (80025fc <ModbusRTU_ReadRegister+0x3cc>)
 80023ce:	8b1c      	ldrh	r4, [r3, #24]
 80023d0:	e749      	b.n	8002266 <ModbusRTU_ReadRegister+0x36>
 80023d2:	4b8a      	ldr	r3, [pc, #552]	@ (80025fc <ModbusRTU_ReadRegister+0x3cc>)
 80023d4:	7e9c      	ldrb	r4, [r3, #26]
 80023d6:	e746      	b.n	8002266 <ModbusRTU_ReadRegister+0x36>
 80023d8:	4b88      	ldr	r3, [pc, #544]	@ (80025fc <ModbusRTU_ReadRegister+0x3cc>)
 80023da:	7edc      	ldrb	r4, [r3, #27]
 80023dc:	e743      	b.n	8002266 <ModbusRTU_ReadRegister+0x36>
 80023de:	4b87      	ldr	r3, [pc, #540]	@ (80025fc <ModbusRTU_ReadRegister+0x3cc>)
 80023e0:	7f1c      	ldrb	r4, [r3, #28]
 80023e2:	e740      	b.n	8002266 <ModbusRTU_ReadRegister+0x36>
 80023e4:	4b85      	ldr	r3, [pc, #532]	@ (80025fc <ModbusRTU_ReadRegister+0x3cc>)
 80023e6:	7f5c      	ldrb	r4, [r3, #29]
 80023e8:	e73d      	b.n	8002266 <ModbusRTU_ReadRegister+0x36>
 80023ea:	4b84      	ldr	r3, [pc, #528]	@ (80025fc <ModbusRTU_ReadRegister+0x3cc>)
 80023ec:	f893 40cb 	ldrb.w	r4, [r3, #203]	@ 0xcb
 80023f0:	e739      	b.n	8002266 <ModbusRTU_ReadRegister+0x36>
 80023f2:	4b82      	ldr	r3, [pc, #520]	@ (80025fc <ModbusRTU_ReadRegister+0x3cc>)
 80023f4:	7f9c      	ldrb	r4, [r3, #30]
 80023f6:	e736      	b.n	8002266 <ModbusRTU_ReadRegister+0x36>
 80023f8:	4b80      	ldr	r3, [pc, #512]	@ (80025fc <ModbusRTU_ReadRegister+0x3cc>)
 80023fa:	7fdc      	ldrb	r4, [r3, #31]
 80023fc:	e733      	b.n	8002266 <ModbusRTU_ReadRegister+0x36>
 80023fe:	4b7f      	ldr	r3, [pc, #508]	@ (80025fc <ModbusRTU_ReadRegister+0x3cc>)
 8002400:	f893 4020 	ldrb.w	r4, [r3, #32]
 8002404:	e72f      	b.n	8002266 <ModbusRTU_ReadRegister+0x36>
 8002406:	4b7d      	ldr	r3, [pc, #500]	@ (80025fc <ModbusRTU_ReadRegister+0x3cc>)
 8002408:	f893 4021 	ldrb.w	r4, [r3, #33]	@ 0x21
 800240c:	e72b      	b.n	8002266 <ModbusRTU_ReadRegister+0x36>
 800240e:	4b7b      	ldr	r3, [pc, #492]	@ (80025fc <ModbusRTU_ReadRegister+0x3cc>)
 8002410:	8c5c      	ldrh	r4, [r3, #34]	@ 0x22
 8002412:	e728      	b.n	8002266 <ModbusRTU_ReadRegister+0x36>
 8002414:	4b79      	ldr	r3, [pc, #484]	@ (80025fc <ModbusRTU_ReadRegister+0x3cc>)
 8002416:	f893 4024 	ldrb.w	r4, [r3, #36]	@ 0x24
 800241a:	e724      	b.n	8002266 <ModbusRTU_ReadRegister+0x36>
 800241c:	4b77      	ldr	r3, [pc, #476]	@ (80025fc <ModbusRTU_ReadRegister+0x3cc>)
 800241e:	f893 4025 	ldrb.w	r4, [r3, #37]	@ 0x25
 8002422:	e720      	b.n	8002266 <ModbusRTU_ReadRegister+0x36>
 8002424:	4b75      	ldr	r3, [pc, #468]	@ (80025fc <ModbusRTU_ReadRegister+0x3cc>)
 8002426:	f893 4026 	ldrb.w	r4, [r3, #38]	@ 0x26
 800242a:	e71c      	b.n	8002266 <ModbusRTU_ReadRegister+0x36>
 800242c:	4b73      	ldr	r3, [pc, #460]	@ (80025fc <ModbusRTU_ReadRegister+0x3cc>)
 800242e:	f893 4027 	ldrb.w	r4, [r3, #39]	@ 0x27
 8002432:	e718      	b.n	8002266 <ModbusRTU_ReadRegister+0x36>
 8002434:	4b71      	ldr	r3, [pc, #452]	@ (80025fc <ModbusRTU_ReadRegister+0x3cc>)
 8002436:	f893 4028 	ldrb.w	r4, [r3, #40]	@ 0x28
 800243a:	e714      	b.n	8002266 <ModbusRTU_ReadRegister+0x36>
 800243c:	4b6f      	ldr	r3, [pc, #444]	@ (80025fc <ModbusRTU_ReadRegister+0x3cc>)
 800243e:	f893 40ca 	ldrb.w	r4, [r3, #202]	@ 0xca
 8002442:	e710      	b.n	8002266 <ModbusRTU_ReadRegister+0x36>
 8002444:	4b6d      	ldr	r3, [pc, #436]	@ (80025fc <ModbusRTU_ReadRegister+0x3cc>)
 8002446:	f8b3 40d0 	ldrh.w	r4, [r3, #208]	@ 0xd0
 800244a:	e70c      	b.n	8002266 <ModbusRTU_ReadRegister+0x36>
 800244c:	4b6b      	ldr	r3, [pc, #428]	@ (80025fc <ModbusRTU_ReadRegister+0x3cc>)
 800244e:	3814      	subs	r0, #20
 8002450:	f893 2024 	ldrb.w	r2, [r3, #36]	@ 0x24
 8002454:	b2c0      	uxtb	r0, r0
 8002456:	4282      	cmp	r2, r0
 8002458:	f67f aef1 	bls.w	800223e <ModbusRTU_ReadRegister+0xe>
 800245c:	eb03 0340 	add.w	r3, r3, r0, lsl #1
 8002460:	8d5c      	ldrh	r4, [r3, #42]	@ 0x2a
 8002462:	e700      	b.n	8002266 <ModbusRTU_ReadRegister+0x36>
 8002464:	4b65      	ldr	r3, [pc, #404]	@ (80025fc <ModbusRTU_ReadRegister+0x3cc>)
 8002466:	381a      	subs	r0, #26
 8002468:	f893 2025 	ldrb.w	r2, [r3, #37]	@ 0x25
 800246c:	b2c0      	uxtb	r0, r0
 800246e:	4282      	cmp	r2, r0
 8002470:	f67f aee5 	bls.w	800223e <ModbusRTU_ReadRegister+0xe>
 8002474:	4403      	add	r3, r0
 8002476:	f893 408a 	ldrb.w	r4, [r3, #138]	@ 0x8a
 800247a:	e6f4      	b.n	8002266 <ModbusRTU_ReadRegister+0x36>
 800247c:	4b5f      	ldr	r3, [pc, #380]	@ (80025fc <ModbusRTU_ReadRegister+0x3cc>)
 800247e:	381c      	subs	r0, #28
 8002480:	f893 2024 	ldrb.w	r2, [r3, #36]	@ 0x24
 8002484:	b2c0      	uxtb	r0, r0
 8002486:	4282      	cmp	r2, r0
 8002488:	f67f aed9 	bls.w	800223e <ModbusRTU_ReadRegister+0xe>
 800248c:	4403      	add	r3, r0
 800248e:	f893 409a 	ldrb.w	r4, [r3, #154]	@ 0x9a
 8002492:	e6e8      	b.n	8002266 <ModbusRTU_ReadRegister+0x36>
 8002494:	4b59      	ldr	r3, [pc, #356]	@ (80025fc <ModbusRTU_ReadRegister+0x3cc>)
 8002496:	881c      	ldrh	r4, [r3, #0]
 8002498:	e6e5      	b.n	8002266 <ModbusRTU_ReadRegister+0x36>
 800249a:	4b58      	ldr	r3, [pc, #352]	@ (80025fc <ModbusRTU_ReadRegister+0x3cc>)
 800249c:	885c      	ldrh	r4, [r3, #2]
 800249e:	e6e2      	b.n	8002266 <ModbusRTU_ReadRegister+0x36>
 80024a0:	4b56      	ldr	r3, [pc, #344]	@ (80025fc <ModbusRTU_ReadRegister+0x3cc>)
 80024a2:	889c      	ldrh	r4, [r3, #4]
 80024a4:	e6df      	b.n	8002266 <ModbusRTU_ReadRegister+0x36>
 80024a6:	4b55      	ldr	r3, [pc, #340]	@ (80025fc <ModbusRTU_ReadRegister+0x3cc>)
 80024a8:	88dc      	ldrh	r4, [r3, #6]
 80024aa:	e6dc      	b.n	8002266 <ModbusRTU_ReadRegister+0x36>
 80024ac:	4b53      	ldr	r3, [pc, #332]	@ (80025fc <ModbusRTU_ReadRegister+0x3cc>)
 80024ae:	891c      	ldrh	r4, [r3, #8]
 80024b0:	e6d9      	b.n	8002266 <ModbusRTU_ReadRegister+0x36>
 80024b2:	4b52      	ldr	r3, [pc, #328]	@ (80025fc <ModbusRTU_ReadRegister+0x3cc>)
 80024b4:	895c      	ldrh	r4, [r3, #10]
 80024b6:	e6d6      	b.n	8002266 <ModbusRTU_ReadRegister+0x36>
 80024b8:	4b50      	ldr	r3, [pc, #320]	@ (80025fc <ModbusRTU_ReadRegister+0x3cc>)
 80024ba:	899c      	ldrh	r4, [r3, #12]
 80024bc:	e6d3      	b.n	8002266 <ModbusRTU_ReadRegister+0x36>
 80024be:	4b4f      	ldr	r3, [pc, #316]	@ (80025fc <ModbusRTU_ReadRegister+0x3cc>)
 80024c0:	89dc      	ldrh	r4, [r3, #14]
 80024c2:	e6d0      	b.n	8002266 <ModbusRTU_ReadRegister+0x36>
 80024c4:	4b4e      	ldr	r3, [pc, #312]	@ (8002600 <ModbusRTU_ReadRegister+0x3d0>)
 80024c6:	e7e6      	b.n	8002496 <ModbusRTU_ReadRegister+0x266>
 80024c8:	4b4d      	ldr	r3, [pc, #308]	@ (8002600 <ModbusRTU_ReadRegister+0x3d0>)
 80024ca:	e7e7      	b.n	800249c <ModbusRTU_ReadRegister+0x26c>
 80024cc:	4b4c      	ldr	r3, [pc, #304]	@ (8002600 <ModbusRTU_ReadRegister+0x3d0>)
 80024ce:	e7e8      	b.n	80024a2 <ModbusRTU_ReadRegister+0x272>
 80024d0:	4b4b      	ldr	r3, [pc, #300]	@ (8002600 <ModbusRTU_ReadRegister+0x3d0>)
 80024d2:	e7e9      	b.n	80024a8 <ModbusRTU_ReadRegister+0x278>
 80024d4:	4b4a      	ldr	r3, [pc, #296]	@ (8002600 <ModbusRTU_ReadRegister+0x3d0>)
 80024d6:	e7ea      	b.n	80024ae <ModbusRTU_ReadRegister+0x27e>
 80024d8:	4b49      	ldr	r3, [pc, #292]	@ (8002600 <ModbusRTU_ReadRegister+0x3d0>)
 80024da:	e7eb      	b.n	80024b4 <ModbusRTU_ReadRegister+0x284>
 80024dc:	4b48      	ldr	r3, [pc, #288]	@ (8002600 <ModbusRTU_ReadRegister+0x3d0>)
 80024de:	e7ec      	b.n	80024ba <ModbusRTU_ReadRegister+0x28a>
 80024e0:	4b47      	ldr	r3, [pc, #284]	@ (8002600 <ModbusRTU_ReadRegister+0x3d0>)
 80024e2:	e768      	b.n	80023b6 <ModbusRTU_ReadRegister+0x186>
 80024e4:	4b46      	ldr	r3, [pc, #280]	@ (8002600 <ModbusRTU_ReadRegister+0x3d0>)
 80024e6:	e769      	b.n	80023bc <ModbusRTU_ReadRegister+0x18c>
 80024e8:	4b45      	ldr	r3, [pc, #276]	@ (8002600 <ModbusRTU_ReadRegister+0x3d0>)
 80024ea:	e76a      	b.n	80023c2 <ModbusRTU_ReadRegister+0x192>
 80024ec:	4b44      	ldr	r3, [pc, #272]	@ (8002600 <ModbusRTU_ReadRegister+0x3d0>)
 80024ee:	e76b      	b.n	80023c8 <ModbusRTU_ReadRegister+0x198>
 80024f0:	4b43      	ldr	r3, [pc, #268]	@ (8002600 <ModbusRTU_ReadRegister+0x3d0>)
 80024f2:	e76c      	b.n	80023ce <ModbusRTU_ReadRegister+0x19e>
 80024f4:	4b42      	ldr	r3, [pc, #264]	@ (8002600 <ModbusRTU_ReadRegister+0x3d0>)
 80024f6:	8b5c      	ldrh	r4, [r3, #26]
 80024f8:	e6b5      	b.n	8002266 <ModbusRTU_ReadRegister+0x36>
 80024fa:	4b41      	ldr	r3, [pc, #260]	@ (8002600 <ModbusRTU_ReadRegister+0x3d0>)
 80024fc:	e7e0      	b.n	80024c0 <ModbusRTU_ReadRegister+0x290>
 80024fe:	f7fe fde7 	bl	80010d0 <ChargeControl_GetChargeStateForModbus>
 8002502:	4604      	mov	r4, r0
 8002504:	e6af      	b.n	8002266 <ModbusRTU_ReadRegister+0x36>
 8002506:	4b3f      	ldr	r3, [pc, #252]	@ (8002604 <ModbusRTU_ReadRegister+0x3d4>)
 8002508:	781c      	ldrb	r4, [r3, #0]
 800250a:	e6ac      	b.n	8002266 <ModbusRTU_ReadRegister+0x36>
 800250c:	483e      	ldr	r0, [pc, #248]	@ (8002608 <ModbusRTU_ReadRegister+0x3d8>)
 800250e:	a901      	add	r1, sp, #4
 8002510:	f7ff faa8 	bl	8001a64 <INA219_Read_Bus_Voltage>
 8002514:	2800      	cmp	r0, #0
 8002516:	f47f ae92 	bne.w	800223e <ModbusRTU_ReadRegister+0xe>
 800251a:	493c      	ldr	r1, [pc, #240]	@ (800260c <ModbusRTU_ReadRegister+0x3dc>)
 800251c:	9801      	ldr	r0, [sp, #4]
 800251e:	f7fe fbc1 	bl	8000ca4 <__aeabi_fmul>
 8002522:	f7fe fd85 	bl	8001030 <__aeabi_f2uiz>
 8002526:	b284      	uxth	r4, r0
 8002528:	e69d      	b.n	8002266 <ModbusRTU_ReadRegister+0x36>
 800252a:	4837      	ldr	r0, [pc, #220]	@ (8002608 <ModbusRTU_ReadRegister+0x3d8>)
 800252c:	a901      	add	r1, sp, #4
 800252e:	f7ff fab5 	bl	8001a9c <INA219_Read_Current>
 8002532:	e7ef      	b.n	8002514 <ModbusRTU_ReadRegister+0x2e4>
 8002534:	4834      	ldr	r0, [pc, #208]	@ (8002608 <ModbusRTU_ReadRegister+0x3d8>)
 8002536:	a901      	add	r1, sp, #4
 8002538:	f7ff faca 	bl	8001ad0 <INA219_Read_Power>
 800253c:	e7ea      	b.n	8002514 <ModbusRTU_ReadRegister+0x2e4>
 800253e:	4834      	ldr	r0, [pc, #208]	@ (8002610 <ModbusRTU_ReadRegister+0x3e0>)
 8002540:	a901      	add	r1, sp, #4
 8002542:	e7e5      	b.n	8002510 <ModbusRTU_ReadRegister+0x2e0>
 8002544:	4832      	ldr	r0, [pc, #200]	@ (8002610 <ModbusRTU_ReadRegister+0x3e0>)
 8002546:	a901      	add	r1, sp, #4
 8002548:	e7f1      	b.n	800252e <ModbusRTU_ReadRegister+0x2fe>
 800254a:	4831      	ldr	r0, [pc, #196]	@ (8002610 <ModbusRTU_ReadRegister+0x3e0>)
 800254c:	a901      	add	r1, sp, #4
 800254e:	e7f3      	b.n	8002538 <ModbusRTU_ReadRegister+0x308>
 8002550:	4830      	ldr	r0, [pc, #192]	@ (8002614 <ModbusRTU_ReadRegister+0x3e4>)
 8002552:	a901      	add	r1, sp, #4
 8002554:	e7dc      	b.n	8002510 <ModbusRTU_ReadRegister+0x2e0>
 8002556:	482f      	ldr	r0, [pc, #188]	@ (8002614 <ModbusRTU_ReadRegister+0x3e4>)
 8002558:	a901      	add	r1, sp, #4
 800255a:	e7e8      	b.n	800252e <ModbusRTU_ReadRegister+0x2fe>
 800255c:	482d      	ldr	r0, [pc, #180]	@ (8002614 <ModbusRTU_ReadRegister+0x3e4>)
 800255e:	a901      	add	r1, sp, #4
 8002560:	e7ea      	b.n	8002538 <ModbusRTU_ReadRegister+0x308>
 8002562:	2101      	movs	r1, #1
 8002564:	482c      	ldr	r0, [pc, #176]	@ (8002618 <ModbusRTU_ReadRegister+0x3e8>)
 8002566:	f000 ff05 	bl	8003374 <HAL_GPIO_ReadPin>
 800256a:	e7ca      	b.n	8002502 <ModbusRTU_ReadRegister+0x2d2>
 800256c:	2102      	movs	r1, #2
 800256e:	e7f9      	b.n	8002564 <ModbusRTU_ReadRegister+0x334>
 8002570:	2101      	movs	r1, #1
 8002572:	482a      	ldr	r0, [pc, #168]	@ (800261c <ModbusRTU_ReadRegister+0x3ec>)
 8002574:	e7f7      	b.n	8002566 <ModbusRTU_ReadRegister+0x336>
 8002576:	2120      	movs	r1, #32
 8002578:	e7fb      	b.n	8002572 <ModbusRTU_ReadRegister+0x342>
 800257a:	2102      	movs	r1, #2
 800257c:	e7f9      	b.n	8002572 <ModbusRTU_ReadRegister+0x342>
 800257e:	4b28      	ldr	r3, [pc, #160]	@ (8002620 <ModbusRTU_ReadRegister+0x3f0>)
 8002580:	4928      	ldr	r1, [pc, #160]	@ (8002624 <ModbusRTU_ReadRegister+0x3f4>)
 8002582:	6818      	ldr	r0, [r3, #0]
 8002584:	e7cb      	b.n	800251e <ModbusRTU_ReadRegister+0x2ee>
 8002586:	4b28      	ldr	r3, [pc, #160]	@ (8002628 <ModbusRTU_ReadRegister+0x3f8>)
 8002588:	791c      	ldrb	r4, [r3, #4]
 800258a:	e66c      	b.n	8002266 <ModbusRTU_ReadRegister+0x36>
 800258c:	4b27      	ldr	r3, [pc, #156]	@ (800262c <ModbusRTU_ReadRegister+0x3fc>)
 800258e:	785c      	ldrb	r4, [r3, #1]
 8002590:	e669      	b.n	8002266 <ModbusRTU_ReadRegister+0x36>
 8002592:	4b26      	ldr	r3, [pc, #152]	@ (800262c <ModbusRTU_ReadRegister+0x3fc>)
 8002594:	789c      	ldrb	r4, [r3, #2]
 8002596:	e666      	b.n	8002266 <ModbusRTU_ReadRegister+0x36>
 8002598:	4b24      	ldr	r3, [pc, #144]	@ (800262c <ModbusRTU_ReadRegister+0x3fc>)
 800259a:	78dc      	ldrb	r4, [r3, #3]
 800259c:	e663      	b.n	8002266 <ModbusRTU_ReadRegister+0x36>
 800259e:	4b17      	ldr	r3, [pc, #92]	@ (80025fc <ModbusRTU_ReadRegister+0x3cc>)
 80025a0:	f893 00cb 	ldrb.w	r0, [r3, #203]	@ 0xcb
 80025a4:	4b16      	ldr	r3, [pc, #88]	@ (8002600 <ModbusRTU_ReadRegister+0x3d0>)
 80025a6:	8b5b      	ldrh	r3, [r3, #26]
 80025a8:	b10b      	cbz	r3, 80025ae <ModbusRTU_ReadRegister+0x37e>
 80025aa:	f040 0002 	orr.w	r0, r0, #2
 80025ae:	4b20      	ldr	r3, [pc, #128]	@ (8002630 <ModbusRTU_ReadRegister+0x400>)
 80025b0:	2102      	movs	r1, #2
 80025b2:	781b      	ldrb	r3, [r3, #0]
 80025b4:	425b      	negs	r3, r3
 80025b6:	f003 0304 	and.w	r3, r3, #4
 80025ba:	ea40 0403 	orr.w	r4, r0, r3
 80025be:	4817      	ldr	r0, [pc, #92]	@ (800261c <ModbusRTU_ReadRegister+0x3ec>)
 80025c0:	f000 fed8 	bl	8003374 <HAL_GPIO_ReadPin>
 80025c4:	2800      	cmp	r0, #0
 80025c6:	f43f ae4e 	beq.w	8002266 <ModbusRTU_ReadRegister+0x36>
 80025ca:	f044 0008 	orr.w	r0, r4, #8
 80025ce:	e7aa      	b.n	8002526 <ModbusRTU_ReadRegister+0x2f6>
 80025d0:	4b0a      	ldr	r3, [pc, #40]	@ (80025fc <ModbusRTU_ReadRegister+0x3cc>)
 80025d2:	f893 00cb 	ldrb.w	r0, [r3, #203]	@ 0xcb
 80025d6:	e9d3 2334 	ldrd	r2, r3, [r3, #208]	@ 0xd0
 80025da:	431a      	orrs	r2, r3
 80025dc:	4b08      	ldr	r3, [pc, #32]	@ (8002600 <ModbusRTU_ReadRegister+0x3d0>)
 80025de:	f080 0401 	eor.w	r4, r0, #1
 80025e2:	8b5b      	ldrh	r3, [r3, #26]
 80025e4:	bf18      	it	ne
 80025e6:	f044 0402 	orrne.w	r4, r4, #2
 80025ea:	2b00      	cmp	r3, #0
 80025ec:	f47f ae3b 	bne.w	8002266 <ModbusRTU_ReadRegister+0x36>
 80025f0:	f044 0004 	orr.w	r0, r4, #4
 80025f4:	e797      	b.n	8002526 <ModbusRTU_ReadRegister+0x2f6>
 80025f6:	2402      	movs	r4, #2
 80025f8:	e635      	b.n	8002266 <ModbusRTU_ReadRegister+0x36>
 80025fa:	bf00      	nop
 80025fc:	20000218 	.word	0x20000218
 8002600:	200009d6 	.word	0x200009d6
 8002604:	20000204 	.word	0x20000204
 8002608:	200005f4 	.word	0x200005f4
 800260c:	41200000 	.word	0x41200000
 8002610:	200005dc 	.word	0x200005dc
 8002614:	200005c4 	.word	0x200005c4
 8002618:	40010800 	.word	0x40010800
 800261c:	40010c00 	.word	0x40010c00
 8002620:	20000000 	.word	0x20000000
 8002624:	42c80000 	.word	0x42c80000
 8002628:	20000794 	.word	0x20000794
 800262c:	20000004 	.word	0x20000004
 8002630:	200005c0 	.word	0x200005c0

08002634 <ModbusRTU_WriteRegister>:
 8002634:	b508      	push	{r3, lr}
 8002636:	4603      	mov	r3, r0
 8002638:	2b3f      	cmp	r3, #63	@ 0x3f
 800263a:	4608      	mov	r0, r1
 800263c:	d03c      	beq.n	80026b8 <ModbusRTU_WriteRegister+0x84>
 800263e:	d816      	bhi.n	800266e <ModbusRTU_WriteRegister+0x3a>
 8002640:	2b31      	cmp	r3, #49	@ 0x31
 8002642:	d033      	beq.n	80026ac <ModbusRTU_WriteRegister+0x78>
 8002644:	d80c      	bhi.n	8002660 <ModbusRTU_WriteRegister+0x2c>
 8002646:	2b2b      	cmp	r3, #43	@ 0x2b
 8002648:	d803      	bhi.n	8002652 <ModbusRTU_WriteRegister+0x1e>
 800264a:	2b23      	cmp	r3, #35	@ 0x23
 800264c:	d839      	bhi.n	80026c2 <ModbusRTU_WriteRegister+0x8e>
 800264e:	2005      	movs	r0, #5
 8002650:	e005      	b.n	800265e <ModbusRTU_WriteRegister+0x2a>
 8002652:	2b30      	cmp	r3, #48	@ 0x30
 8002654:	d1fb      	bne.n	800264e <ModbusRTU_WriteRegister+0x1a>
 8002656:	f000 faa9 	bl	8002bac <SK60X_Set_Voltage>
 800265a:	bb90      	cbnz	r0, 80026c2 <ModbusRTU_WriteRegister+0x8e>
 800265c:	2006      	movs	r0, #6
 800265e:	bd08      	pop	{r3, pc}
 8002660:	2b3c      	cmp	r3, #60	@ 0x3c
 8002662:	d026      	beq.n	80026b2 <ModbusRTU_WriteRegister+0x7e>
 8002664:	2b3d      	cmp	r3, #61	@ 0x3d
 8002666:	d1f2      	bne.n	800264e <ModbusRTU_WriteRegister+0x1a>
 8002668:	f000 fa98 	bl	8002b9c <SK60X_Set_Lock>
 800266c:	e7f5      	b.n	800265a <ModbusRTU_WriteRegister+0x26>
 800266e:	2b4e      	cmp	r3, #78	@ 0x4e
 8002670:	d029      	beq.n	80026c6 <ModbusRTU_WriteRegister+0x92>
 8002672:	f46f 7280 	mvn.w	r2, #256	@ 0x100
 8002676:	4413      	add	r3, r2
 8002678:	b29a      	uxth	r2, r3
 800267a:	2a08      	cmp	r2, #8
 800267c:	d8e7      	bhi.n	800264e <ModbusRTU_WriteRegister+0x1a>
 800267e:	2b08      	cmp	r3, #8
 8002680:	d8e5      	bhi.n	800264e <ModbusRTU_WriteRegister+0x1a>
 8002682:	a201      	add	r2, pc, #4	@ (adr r2, 8002688 <ModbusRTU_WriteRegister+0x54>)
 8002684:	f852 f023 	ldr.w	pc, [r2, r3, lsl #2]
 8002688:	080026e7 	.word	0x080026e7
 800268c:	080026f3 	.word	0x080026f3
 8002690:	080026fd 	.word	0x080026fd
 8002694:	0800264f 	.word	0x0800264f
 8002698:	0800264f 	.word	0x0800264f
 800269c:	0800264f 	.word	0x0800264f
 80026a0:	0800264f 	.word	0x0800264f
 80026a4:	0800264f 	.word	0x0800264f
 80026a8:	080026e1 	.word	0x080026e1
 80026ac:	f000 fa8b 	bl	8002bc6 <SK60X_Set_Current>
 80026b0:	e7d3      	b.n	800265a <ModbusRTU_WriteRegister+0x26>
 80026b2:	f000 fa6b 	bl	8002b8c <SK60X_Set_On_Off>
 80026b6:	e7d0      	b.n	800265a <ModbusRTU_WriteRegister+0x26>
 80026b8:	1e08      	subs	r0, r1, #0
 80026ba:	bf18      	it	ne
 80026bc:	2001      	movne	r0, #1
 80026be:	f7fe fcfb 	bl	80010b8 <ChargeControl_HandleRequest>
 80026c2:	2000      	movs	r0, #0
 80026c4:	e7cb      	b.n	800265e <ModbusRTU_WriteRegister+0x2a>
 80026c6:	f5a1 6396 	sub.w	r3, r1, #1200	@ 0x4b0
 80026ca:	f5b3 7f48 	cmp.w	r3, #800	@ 0x320
 80026ce:	d8c5      	bhi.n	800265c <ModbusRTU_WriteRegister+0x28>
 80026d0:	f7fe fa90 	bl	8000bf4 <__aeabi_ui2f>
 80026d4:	490c      	ldr	r1, [pc, #48]	@ (8002708 <ModbusRTU_WriteRegister+0xd4>)
 80026d6:	f7fe fb99 	bl	8000e0c <__aeabi_fdiv>
 80026da:	4b0c      	ldr	r3, [pc, #48]	@ (800270c <ModbusRTU_WriteRegister+0xd8>)
 80026dc:	6018      	str	r0, [r3, #0]
 80026de:	e7f0      	b.n	80026c2 <ModbusRTU_WriteRegister+0x8e>
 80026e0:	2801      	cmp	r0, #1
 80026e2:	d1bb      	bne.n	800265c <ModbusRTU_WriteRegister+0x28>
 80026e4:	e7ed      	b.n	80026c2 <ModbusRTU_WriteRegister+0x8e>
 80026e6:	1e43      	subs	r3, r0, #1
 80026e8:	2b04      	cmp	r3, #4
 80026ea:	d8b7      	bhi.n	800265c <ModbusRTU_WriteRegister+0x28>
 80026ec:	4b08      	ldr	r3, [pc, #32]	@ (8002710 <ModbusRTU_WriteRegister+0xdc>)
 80026ee:	7058      	strb	r0, [r3, #1]
 80026f0:	e7e7      	b.n	80026c2 <ModbusRTU_WriteRegister+0x8e>
 80026f2:	2802      	cmp	r0, #2
 80026f4:	d8b2      	bhi.n	800265c <ModbusRTU_WriteRegister+0x28>
 80026f6:	4b06      	ldr	r3, [pc, #24]	@ (8002710 <ModbusRTU_WriteRegister+0xdc>)
 80026f8:	7098      	strb	r0, [r3, #2]
 80026fa:	e7e2      	b.n	80026c2 <ModbusRTU_WriteRegister+0x8e>
 80026fc:	1e43      	subs	r3, r0, #1
 80026fe:	2b01      	cmp	r3, #1
 8002700:	d8ac      	bhi.n	800265c <ModbusRTU_WriteRegister+0x28>
 8002702:	4b03      	ldr	r3, [pc, #12]	@ (8002710 <ModbusRTU_WriteRegister+0xdc>)
 8002704:	70d8      	strb	r0, [r3, #3]
 8002706:	e7dc      	b.n	80026c2 <ModbusRTU_WriteRegister+0x8e>
 8002708:	42c80000 	.word	0x42c80000
 800270c:	20000000 	.word	0x20000000
 8002710:	20000004 	.word	0x20000004

08002714 <ModbusRTU_ReadHoldingRegisters>:
 8002714:	2908      	cmp	r1, #8
 8002716:	e92d 41f0 	stmdb	sp!, {r4, r5, r6, r7, r8, lr}
 800271a:	d13a      	bne.n	8002792 <ModbusRTU_ReadHoldingRegisters+0x7e>
 800271c:	8885      	ldrh	r5, [r0, #4]
 800271e:	f8b0 8002 	ldrh.w	r8, [r0, #2]
 8002722:	ba6d      	rev16	r5, r5
 8002724:	b2ad      	uxth	r5, r5
 8002726:	1e6b      	subs	r3, r5, #1
 8002728:	fa98 f898 	rev16.w	r8, r8
 800272c:	2b7c      	cmp	r3, #124	@ 0x7c
 800272e:	fa1f f888 	uxth.w	r8, r8
 8002732:	d906      	bls.n	8002742 <ModbusRTU_ReadHoldingRegisters+0x2e>
 8002734:	2103      	movs	r1, #3
 8002736:	4608      	mov	r0, r1
 8002738:	f7ff fd68 	bl	800220c <ModbusRTU_SendException>
 800273c:	2006      	movs	r0, #6
 800273e:	e8bd 81f0 	ldmia.w	sp!, {r4, r5, r6, r7, r8, pc}
 8002742:	4c15      	ldr	r4, [pc, #84]	@ (8002798 <ModbusRTU_ReadHoldingRegisters+0x84>)
 8002744:	2700      	movs	r7, #0
 8002746:	7922      	ldrb	r2, [r4, #4]
 8002748:	006e      	lsls	r6, r5, #1
 800274a:	f884 2105 	strb.w	r2, [r4, #261]	@ 0x105
 800274e:	2203      	movs	r2, #3
 8002750:	f884 6107 	strb.w	r6, [r4, #263]	@ 0x107
 8002754:	f884 2106 	strb.w	r2, [r4, #262]	@ 0x106
 8002758:	eb08 0007 	add.w	r0, r8, r7
 800275c:	b280      	uxth	r0, r0
 800275e:	f7ff fd67 	bl	8002230 <ModbusRTU_ReadRegister>
 8002762:	3701      	adds	r7, #1
 8002764:	0a03      	lsrs	r3, r0, #8
 8002766:	f884 3108 	strb.w	r3, [r4, #264]	@ 0x108
 800276a:	b2bb      	uxth	r3, r7
 800276c:	42ab      	cmp	r3, r5
 800276e:	f884 0109 	strb.w	r0, [r4, #265]	@ 0x109
 8002772:	f104 0402 	add.w	r4, r4, #2
 8002776:	d3ef      	bcc.n	8002758 <ModbusRTU_ReadHoldingRegisters+0x44>
 8002778:	3603      	adds	r6, #3
 800277a:	2d32      	cmp	r5, #50	@ 0x32
 800277c:	b2b6      	uxth	r6, r6
 800277e:	d902      	bls.n	8002786 <ModbusRTU_ReadHoldingRegisters+0x72>
 8002780:	2002      	movs	r0, #2
 8002782:	f000 fc45 	bl	8003010 <HAL_Delay>
 8002786:	4631      	mov	r1, r6
 8002788:	e8bd 41f0 	ldmia.w	sp!, {r4, r5, r6, r7, r8, lr}
 800278c:	4803      	ldr	r0, [pc, #12]	@ (800279c <ModbusRTU_ReadHoldingRegisters+0x88>)
 800278e:	f7ff bcfd 	b.w	800218c <ModbusRTU_SendResponse>
 8002792:	2003      	movs	r0, #3
 8002794:	e7d3      	b.n	800273e <ModbusRTU_ReadHoldingRegisters+0x2a>
 8002796:	bf00      	nop
 8002798:	20000794 	.word	0x20000794
 800279c:	20000899 	.word	0x20000899

080027a0 <ModbusRTU_WriteSingleRegister>:
 80027a0:	2908      	cmp	r1, #8
 80027a2:	b538      	push	{r3, r4, r5, lr}
 80027a4:	4605      	mov	r5, r0
 80027a6:	d11c      	bne.n	80027e2 <ModbusRTU_WriteSingleRegister+0x42>
 80027a8:	8881      	ldrh	r1, [r0, #4]
 80027aa:	8840      	ldrh	r0, [r0, #2]
 80027ac:	ba49      	rev16	r1, r1
 80027ae:	ba40      	rev16	r0, r0
 80027b0:	b289      	uxth	r1, r1
 80027b2:	b280      	uxth	r0, r0
 80027b4:	f7ff ff3e 	bl	8002634 <ModbusRTU_WriteRegister>
 80027b8:	4604      	mov	r4, r0
 80027ba:	b160      	cbz	r0, 80027d6 <ModbusRTU_WriteSingleRegister+0x36>
 80027bc:	2805      	cmp	r0, #5
 80027be:	d008      	beq.n	80027d2 <ModbusRTU_WriteSingleRegister+0x32>
 80027c0:	2806      	cmp	r0, #6
 80027c2:	bf0c      	ite	eq
 80027c4:	2103      	moveq	r1, #3
 80027c6:	2104      	movne	r1, #4
 80027c8:	2006      	movs	r0, #6
 80027ca:	f7ff fd1f 	bl	800220c <ModbusRTU_SendException>
 80027ce:	4620      	mov	r0, r4
 80027d0:	bd38      	pop	{r3, r4, r5, pc}
 80027d2:	2102      	movs	r1, #2
 80027d4:	e7f8      	b.n	80027c8 <ModbusRTU_WriteSingleRegister+0x28>
 80027d6:	4628      	mov	r0, r5
 80027d8:	e8bd 4038 	ldmia.w	sp!, {r3, r4, r5, lr}
 80027dc:	2106      	movs	r1, #6
 80027de:	f7ff bcd5 	b.w	800218c <ModbusRTU_SendResponse>
 80027e2:	2403      	movs	r4, #3
 80027e4:	e7f3      	b.n	80027ce <ModbusRTU_WriteSingleRegister+0x2e>
	...

080027e8 <ModbusRTU_WriteMultipleRegisters>:
 80027e8:	2908      	cmp	r1, #8
 80027ea:	e92d 41f0 	stmdb	sp!, {r4, r5, r6, r7, r8, lr}
 80027ee:	4604      	mov	r4, r0
 80027f0:	d94f      	bls.n	8002892 <ModbusRTU_WriteMultipleRegisters+0xaa>
 80027f2:	8886      	ldrh	r6, [r0, #4]
 80027f4:	8847      	ldrh	r7, [r0, #2]
 80027f6:	ba76      	rev16	r6, r6
 80027f8:	b2b6      	uxth	r6, r6
 80027fa:	1e72      	subs	r2, r6, #1
 80027fc:	2a7a      	cmp	r2, #122	@ 0x7a
 80027fe:	7983      	ldrb	r3, [r0, #6]
 8002800:	d802      	bhi.n	8002808 <ModbusRTU_WriteMultipleRegisters+0x20>
 8002802:	ebb3 0f46 	cmp.w	r3, r6, lsl #1
 8002806:	d007      	beq.n	8002818 <ModbusRTU_WriteMultipleRegisters+0x30>
 8002808:	2103      	movs	r1, #3
 800280a:	2010      	movs	r0, #16
 800280c:	f7ff fcfe 	bl	800220c <ModbusRTU_SendException>
 8002810:	2506      	movs	r5, #6
 8002812:	4628      	mov	r0, r5
 8002814:	e8bd 81f0 	ldmia.w	sp!, {r4, r5, r6, r7, r8, pc}
 8002818:	3309      	adds	r3, #9
 800281a:	4299      	cmp	r1, r3
 800281c:	d139      	bne.n	8002892 <ModbusRTU_WriteMultipleRegisters+0xaa>
 800281e:	f04f 0800 	mov.w	r8, #0
 8002822:	ba7f      	rev16	r7, r7
 8002824:	b2bf      	uxth	r7, r7
 8002826:	79e1      	ldrb	r1, [r4, #7]
 8002828:	7a23      	ldrb	r3, [r4, #8]
 800282a:	eb07 0008 	add.w	r0, r7, r8
 800282e:	ea43 2101 	orr.w	r1, r3, r1, lsl #8
 8002832:	b280      	uxth	r0, r0
 8002834:	f7ff fefe 	bl	8002634 <ModbusRTU_WriteRegister>
 8002838:	4605      	mov	r5, r0
 800283a:	b158      	cbz	r0, 8002854 <ModbusRTU_WriteMultipleRegisters+0x6c>
 800283c:	2805      	cmp	r0, #5
 800283e:	d007      	beq.n	8002850 <ModbusRTU_WriteMultipleRegisters+0x68>
 8002840:	2806      	cmp	r0, #6
 8002842:	bf0c      	ite	eq
 8002844:	2103      	moveq	r1, #3
 8002846:	2104      	movne	r1, #4
 8002848:	2010      	movs	r0, #16
 800284a:	f7ff fcdf 	bl	800220c <ModbusRTU_SendException>
 800284e:	e7e0      	b.n	8002812 <ModbusRTU_WriteMultipleRegisters+0x2a>
 8002850:	2102      	movs	r1, #2
 8002852:	e7f9      	b.n	8002848 <ModbusRTU_WriteMultipleRegisters+0x60>
 8002854:	f108 0801 	add.w	r8, r8, #1
 8002858:	fa1f f388 	uxth.w	r3, r8
 800285c:	429e      	cmp	r6, r3
 800285e:	f104 0402 	add.w	r4, r4, #2
 8002862:	d8e0      	bhi.n	8002826 <ModbusRTU_WriteMultipleRegisters+0x3e>
 8002864:	480c      	ldr	r0, [pc, #48]	@ (8002898 <ModbusRTU_WriteMultipleRegisters+0xb0>)
 8002866:	2106      	movs	r1, #6
 8002868:	7902      	ldrb	r2, [r0, #4]
 800286a:	f880 7108 	strb.w	r7, [r0, #264]	@ 0x108
 800286e:	f880 2105 	strb.w	r2, [r0, #261]	@ 0x105
 8002872:	2210      	movs	r2, #16
 8002874:	f880 2106 	strb.w	r2, [r0, #262]	@ 0x106
 8002878:	0a3a      	lsrs	r2, r7, #8
 800287a:	f880 2107 	strb.w	r2, [r0, #263]	@ 0x107
 800287e:	f880 5109 	strb.w	r5, [r0, #265]	@ 0x109
 8002882:	f880 610a 	strb.w	r6, [r0, #266]	@ 0x10a
 8002886:	e8bd 41f0 	ldmia.w	sp!, {r4, r5, r6, r7, r8, lr}
 800288a:	f200 1005 	addw	r0, r0, #261	@ 0x105
 800288e:	f7ff bc7d 	b.w	800218c <ModbusRTU_SendResponse>
 8002892:	2503      	movs	r5, #3
 8002894:	e7bd      	b.n	8002812 <ModbusRTU_WriteMultipleRegisters+0x2a>
 8002896:	bf00      	nop
 8002898:	20000794 	.word	0x20000794

0800289c <ModbusRTU_ProcessFrame>:
 800289c:	b5f8      	push	{r3, r4, r5, r6, r7, lr}
 800289e:	2601      	movs	r6, #1
 80028a0:	4d20      	ldr	r5, [pc, #128]	@ (8002924 <ModbusRTU_ProcessFrame+0x88>)
 80028a2:	2903      	cmp	r1, #3
 80028a4:	4604      	mov	r4, r0
 80028a6:	460f      	mov	r7, r1
 80028a8:	702e      	strb	r6, [r5, #0]
 80028aa:	d808      	bhi.n	80028be <ModbusRTU_ProcessFrame+0x22>
 80028ac:	481e      	ldr	r0, [pc, #120]	@ (8002928 <ModbusRTU_ProcessFrame+0x8c>)
 80028ae:	f44f 4180 	mov.w	r1, #16384	@ 0x4000
 80028b2:	f000 fd6a 	bl	800338a <HAL_GPIO_TogglePin>
 80028b6:	2300      	movs	r3, #0
 80028b8:	2003      	movs	r0, #3
 80028ba:	702b      	strb	r3, [r5, #0]
 80028bc:	bdf8      	pop	{r3, r4, r5, r6, r7, pc}
 80028be:	4b1b      	ldr	r3, [pc, #108]	@ (800292c <ModbusRTU_ProcessFrame+0x90>)
 80028c0:	7802      	ldrb	r2, [r0, #0]
 80028c2:	791b      	ldrb	r3, [r3, #4]
 80028c4:	429a      	cmp	r2, r3
 80028c6:	d002      	beq.n	80028ce <ModbusRTU_ProcessFrame+0x32>
 80028c8:	2000      	movs	r0, #0
 80028ca:	7028      	strb	r0, [r5, #0]
 80028cc:	e7f6      	b.n	80028bc <ModbusRTU_ProcessFrame+0x20>
 80028ce:	f7ff fc47 	bl	8002160 <ModbusRTU_CheckCRC>
 80028d2:	b910      	cbnz	r0, 80028da <ModbusRTU_ProcessFrame+0x3e>
 80028d4:	7028      	strb	r0, [r5, #0]
 80028d6:	2002      	movs	r0, #2
 80028d8:	e7f0      	b.n	80028bc <ModbusRTU_ProcessFrame+0x20>
 80028da:	7860      	ldrb	r0, [r4, #1]
 80028dc:	2806      	cmp	r0, #6
 80028de:	d008      	beq.n	80028f2 <ModbusRTU_ProcessFrame+0x56>
 80028e0:	2810      	cmp	r0, #16
 80028e2:	d016      	beq.n	8002912 <ModbusRTU_ProcessFrame+0x76>
 80028e4:	2803      	cmp	r0, #3
 80028e6:	d005      	beq.n	80028f4 <ModbusRTU_ProcessFrame+0x58>
 80028e8:	2101      	movs	r1, #1
 80028ea:	f7ff fc8f 	bl	800220c <ModbusRTU_SendException>
 80028ee:	2004      	movs	r0, #4
 80028f0:	e7e4      	b.n	80028bc <ModbusRTU_ProcessFrame+0x20>
 80028f2:	2602      	movs	r6, #2
 80028f4:	4b0e      	ldr	r3, [pc, #56]	@ (8002930 <ModbusRTU_ProcessFrame+0x94>)
 80028f6:	791b      	ldrb	r3, [r3, #4]
 80028f8:	421e      	tst	r6, r3
 80028fa:	d0f5      	beq.n	80028e8 <ModbusRTU_ProcessFrame+0x4c>
 80028fc:	2806      	cmp	r0, #6
 80028fe:	4639      	mov	r1, r7
 8002900:	d009      	beq.n	8002916 <ModbusRTU_ProcessFrame+0x7a>
 8002902:	2810      	cmp	r0, #16
 8002904:	4620      	mov	r0, r4
 8002906:	d00a      	beq.n	800291e <ModbusRTU_ProcessFrame+0x82>
 8002908:	f7ff ff04 	bl	8002714 <ModbusRTU_ReadHoldingRegisters>
 800290c:	2300      	movs	r3, #0
 800290e:	702b      	strb	r3, [r5, #0]
 8002910:	e7d4      	b.n	80028bc <ModbusRTU_ProcessFrame+0x20>
 8002912:	2604      	movs	r6, #4
 8002914:	e7ee      	b.n	80028f4 <ModbusRTU_ProcessFrame+0x58>
 8002916:	4620      	mov	r0, r4
 8002918:	f7ff ff42 	bl	80027a0 <ModbusRTU_WriteSingleRegister>
 800291c:	e7f6      	b.n	800290c <ModbusRTU_ProcessFrame+0x70>
 800291e:	f7ff ff63 	bl	80027e8 <ModbusRTU_WriteMultipleRegisters>
 8002922:	e7f3      	b.n	800290c <ModbusRTU_ProcessFrame+0x70>
 8002924:	20000790 	.word	0x20000790
 8002928:	40011000 	.word	0x40011000
 800292c:	20000794 	.word	0x20000794
 8002930:	20000004 	.word	0x20000004

08002934 <ModbusRTU_RxCpltCallback>:
 8002934:	b538      	push	{r3, r4, r5, lr}
 8002936:	4c12      	ldr	r4, [pc, #72]	@ (8002980 <ModbusRTU_RxCpltCallback+0x4c>)
 8002938:	6825      	ldr	r5, [r4, #0]
 800293a:	4285      	cmp	r5, r0
 800293c:	d11f      	bne.n	800297e <ModbusRTU_RxCpltCallback+0x4a>
 800293e:	f000 fb61 	bl	8003004 <HAL_GetTick>
 8002942:	f8b4 3206 	ldrh.w	r3, [r4, #518]	@ 0x206
 8002946:	f8c4 020c 	str.w	r0, [r4, #524]	@ 0x20c
 800294a:	2bfe      	cmp	r3, #254	@ 0xfe
 800294c:	d813      	bhi.n	8002976 <ModbusRTU_RxCpltCallback+0x42>
 800294e:	682a      	ldr	r2, [r5, #0]
 8002950:	1c59      	adds	r1, r3, #1
 8002952:	6852      	ldr	r2, [r2, #4]
 8002954:	4423      	add	r3, r4
 8002956:	715a      	strb	r2, [r3, #5]
 8002958:	2301      	movs	r3, #1
 800295a:	f8a4 1206 	strh.w	r1, [r4, #518]	@ 0x206
 800295e:	f8b4 1206 	ldrh.w	r1, [r4, #518]	@ 0x206
 8002962:	6820      	ldr	r0, [r4, #0]
 8002964:	3105      	adds	r1, #5
 8002966:	f884 320a 	strb.w	r3, [r4, #522]	@ 0x20a
 800296a:	4421      	add	r1, r4
 800296c:	2201      	movs	r2, #1
 800296e:	e8bd 4038 	ldmia.w	sp!, {r3, r4, r5, lr}
 8002972:	f003 b810 	b.w	8005996 <HAL_UART_Receive_IT>
 8002976:	2300      	movs	r3, #0
 8002978:	f8a4 3206 	strh.w	r3, [r4, #518]	@ 0x206
 800297c:	e7ef      	b.n	800295e <ModbusRTU_RxCpltCallback+0x2a>
 800297e:	bd38      	pop	{r3, r4, r5, pc}
 8002980:	20000794 	.word	0x20000794

08002984 <ModbusRTU_Reset>:
 8002984:	b538      	push	{r3, r4, r5, lr}
 8002986:	2300      	movs	r3, #0
 8002988:	4c0a      	ldr	r4, [pc, #40]	@ (80029b4 <ModbusRTU_Reset+0x30>)
 800298a:	4625      	mov	r5, r4
 800298c:	f8a4 3206 	strh.w	r3, [r4, #518]	@ 0x206
 8002990:	f884 320a 	strb.w	r3, [r4, #522]	@ 0x20a
 8002994:	f000 fb36 	bl	8003004 <HAL_GetTick>
 8002998:	f8c4 020c 	str.w	r0, [r4, #524]	@ 0x20c
 800299c:	f855 0b05 	ldr.w	r0, [r5], #5
 80029a0:	f002 fd5e 	bl	8005460 <HAL_UART_Abort>
 80029a4:	4629      	mov	r1, r5
 80029a6:	6820      	ldr	r0, [r4, #0]
 80029a8:	2201      	movs	r2, #1
 80029aa:	e8bd 4038 	ldmia.w	sp!, {r3, r4, r5, lr}
 80029ae:	f002 bff2 	b.w	8005996 <HAL_UART_Receive_IT>
 80029b2:	bf00      	nop
 80029b4:	20000794 	.word	0x20000794

080029b8 <ModbusRTU_ErrorCallback>:
 80029b8:	b508      	push	{r3, lr}
 80029ba:	4b07      	ldr	r3, [pc, #28]	@ (80029d8 <ModbusRTU_ErrorCallback+0x20>)
 80029bc:	681b      	ldr	r3, [r3, #0]
 80029be:	4283      	cmp	r3, r0
 80029c0:	d108      	bne.n	80029d4 <ModbusRTU_ErrorCallback+0x1c>
 80029c2:	f44f 4180 	mov.w	r1, #16384	@ 0x4000
 80029c6:	4805      	ldr	r0, [pc, #20]	@ (80029dc <ModbusRTU_ErrorCallback+0x24>)
 80029c8:	f000 fcdf 	bl	800338a <HAL_GPIO_TogglePin>
 80029cc:	e8bd 4008 	ldmia.w	sp!, {r3, lr}
 80029d0:	f7ff bfd8 	b.w	8002984 <ModbusRTU_Reset>
 80029d4:	bd08      	pop	{r3, pc}
 80029d6:	bf00      	nop
 80029d8:	20000794 	.word	0x20000794
 80029dc:	40011000 	.word	0x40011000

080029e0 <ModbusRTU_Process>:
 80029e0:	b538      	push	{r3, r4, r5, lr}
 80029e2:	4c1b      	ldr	r4, [pc, #108]	@ (8002a50 <ModbusRTU_Process+0x70>)
 80029e4:	f894 520a 	ldrb.w	r5, [r4, #522]	@ 0x20a
 80029e8:	f8b4 1206 	ldrh.w	r1, [r4, #518]	@ 0x206
 80029ec:	b1ed      	cbz	r5, 8002a2a <ModbusRTU_Process+0x4a>
 80029ee:	b171      	cbz	r1, 8002a0e <ModbusRTU_Process+0x2e>
 80029f0:	2903      	cmp	r1, #3
 80029f2:	d902      	bls.n	80029fa <ModbusRTU_Process+0x1a>
 80029f4:	1d60      	adds	r0, r4, #5
 80029f6:	f7ff ff51 	bl	800289c <ModbusRTU_ProcessFrame>
 80029fa:	2100      	movs	r1, #0
 80029fc:	f44f 7280 	mov.w	r2, #256	@ 0x100
 8002a00:	4814      	ldr	r0, [pc, #80]	@ (8002a54 <ModbusRTU_Process+0x74>)
 8002a02:	f8a4 1206 	strh.w	r1, [r4, #518]	@ 0x206
 8002a06:	f884 120a 	strb.w	r1, [r4, #522]	@ 0x20a
 8002a0a:	f005 fb88 	bl	800811e <memset>
 8002a0e:	6820      	ldr	r0, [r4, #0]
 8002a10:	f890 3042 	ldrb.w	r3, [r0, #66]	@ 0x42
 8002a14:	2b20      	cmp	r3, #32
 8002a16:	d11a      	bne.n	8002a4e <ModbusRTU_Process+0x6e>
 8002a18:	f8b4 3206 	ldrh.w	r3, [r4, #518]	@ 0x206
 8002a1c:	b9bb      	cbnz	r3, 8002a4e <ModbusRTU_Process+0x6e>
 8002a1e:	e8bd 4038 	ldmia.w	sp!, {r3, r4, r5, lr}
 8002a22:	2201      	movs	r2, #1
 8002a24:	490b      	ldr	r1, [pc, #44]	@ (8002a54 <ModbusRTU_Process+0x74>)
 8002a26:	f002 bfb6 	b.w	8005996 <HAL_UART_Receive_IT>
 8002a2a:	2900      	cmp	r1, #0
 8002a2c:	d0ef      	beq.n	8002a0e <ModbusRTU_Process+0x2e>
 8002a2e:	f000 fae9 	bl	8003004 <HAL_GetTick>
 8002a32:	f8d4 320c 	ldr.w	r3, [r4, #524]	@ 0x20c
 8002a36:	1ac0      	subs	r0, r0, r3
 8002a38:	2832      	cmp	r0, #50	@ 0x32
 8002a3a:	d9e8      	bls.n	8002a0e <ModbusRTU_Process+0x2e>
 8002a3c:	f44f 7280 	mov.w	r2, #256	@ 0x100
 8002a40:	4629      	mov	r1, r5
 8002a42:	f8a4 5206 	strh.w	r5, [r4, #518]	@ 0x206
 8002a46:	f884 520a 	strb.w	r5, [r4, #522]	@ 0x20a
 8002a4a:	1d60      	adds	r0, r4, #5
 8002a4c:	e7dd      	b.n	8002a0a <ModbusRTU_Process+0x2a>
 8002a4e:	bd38      	pop	{r3, r4, r5, pc}
 8002a50:	20000794 	.word	0x20000794
 8002a54:	20000799 	.word	0x20000799

08002a58 <Calculate_CRC.constprop.0>:
 8002a58:	f64f 70ff 	movw	r0, #65535	@ 0xffff
 8002a5c:	2300      	movs	r3, #0
 8002a5e:	b530      	push	{r4, r5, lr}
 8002a60:	4c08      	ldr	r4, [pc, #32]	@ (8002a84 <Calculate_CRC.constprop.0+0x2c>)
 8002a62:	4d09      	ldr	r5, [pc, #36]	@ (8002a88 <Calculate_CRC.constprop.0+0x30>)
 8002a64:	f814 2b01 	ldrb.w	r2, [r4], #1
 8002a68:	4050      	eors	r0, r2
 8002a6a:	2208      	movs	r2, #8
 8002a6c:	f340 0100 	sbfx	r1, r0, #0, #1
 8002a70:	4029      	ands	r1, r5
 8002a72:	ea81 0050 	eor.w	r0, r1, r0, lsr #1
 8002a76:	3a01      	subs	r2, #1
 8002a78:	b280      	uxth	r0, r0
 8002a7a:	d1f7      	bne.n	8002a6c <Calculate_CRC.constprop.0+0x14>
 8002a7c:	3301      	adds	r3, #1
 8002a7e:	2b06      	cmp	r3, #6
 8002a80:	d1f0      	bne.n	8002a64 <Calculate_CRC.constprop.0+0xc>
 8002a82:	bd30      	pop	{r4, r5, pc}
 8002a84:	200009a4 	.word	0x200009a4
 8002a88:	ffffa001 	.word	0xffffa001

08002a8c <SK60X_Send_Command>:
 8002a8c:	2200      	movs	r2, #0
 8002a8e:	4b0d      	ldr	r3, [pc, #52]	@ (8002ac4 <SK60X_Send_Command+0x38>)
 8002a90:	b510      	push	{r4, lr}
 8002a92:	601a      	str	r2, [r3, #0]
 8002a94:	809a      	strh	r2, [r3, #4]
 8002a96:	2201      	movs	r2, #1
 8002a98:	1e9c      	subs	r4, r3, #2
 8002a9a:	f803 2c02 	strb.w	r2, [r3, #-2]
 8002a9e:	2306      	movs	r3, #6
 8002aa0:	7161      	strb	r1, [r4, #5]
 8002aa2:	7063      	strb	r3, [r4, #1]
 8002aa4:	70e0      	strb	r0, [r4, #3]
 8002aa6:	f7ff ffd7 	bl	8002a58 <Calculate_CRC.constprop.0>
 8002aaa:	71a0      	strb	r0, [r4, #6]
 8002aac:	0a00      	lsrs	r0, r0, #8
 8002aae:	71e0      	strb	r0, [r4, #7]
 8002ab0:	2364      	movs	r3, #100	@ 0x64
 8002ab2:	2208      	movs	r2, #8
 8002ab4:	4621      	mov	r1, r4
 8002ab6:	4804      	ldr	r0, [pc, #16]	@ (8002ac8 <SK60X_Send_Command+0x3c>)
 8002ab8:	f002 fc2d 	bl	8005316 <HAL_UART_Transmit>
 8002abc:	fab0 f080 	clz	r0, r0
 8002ac0:	0940      	lsrs	r0, r0, #5
 8002ac2:	bd10      	pop	{r4, pc}
 8002ac4:	200009a6 	.word	0x200009a6
 8002ac8:	2000061c 	.word	0x2000061c

08002acc <SK60X_Read_Data>:
 8002acc:	b570      	push	{r4, r5, r6, lr}
 8002ace:	4c2b      	ldr	r4, [pc, #172]	@ (8002b7c <SK60X_Read_Data+0xb0>)
 8002ad0:	2100      	movs	r1, #0
 8002ad2:	222a      	movs	r2, #42	@ 0x2a
 8002ad4:	4620      	mov	r0, r4
 8002ad6:	f005 fb22 	bl	800811e <memset>
 8002ada:	2501      	movs	r5, #1
 8002adc:	2200      	movs	r2, #0
 8002ade:	4b28      	ldr	r3, [pc, #160]	@ (8002b80 <SK60X_Read_Data+0xb4>)
 8002ae0:	1e9e      	subs	r6, r3, #2
 8002ae2:	601a      	str	r2, [r3, #0]
 8002ae4:	809a      	strh	r2, [r3, #4]
 8002ae6:	f803 5c02 	strb.w	r5, [r3, #-2]
 8002aea:	2303      	movs	r3, #3
 8002aec:	7073      	strb	r3, [r6, #1]
 8002aee:	2313      	movs	r3, #19
 8002af0:	7173      	strb	r3, [r6, #5]
 8002af2:	f7ff ffb1 	bl	8002a58 <Calculate_CRC.constprop.0>
 8002af6:	0a03      	lsrs	r3, r0, #8
 8002af8:	71b0      	strb	r0, [r6, #6]
 8002afa:	71f3      	strb	r3, [r6, #7]
 8002afc:	2208      	movs	r2, #8
 8002afe:	2364      	movs	r3, #100	@ 0x64
 8002b00:	4631      	mov	r1, r6
 8002b02:	4820      	ldr	r0, [pc, #128]	@ (8002b84 <SK60X_Read_Data+0xb8>)
 8002b04:	f002 fc07 	bl	8005316 <HAL_UART_Transmit>
 8002b08:	b108      	cbz	r0, 8002b0e <SK60X_Read_Data+0x42>
 8002b0a:	2000      	movs	r0, #0
 8002b0c:	bd70      	pop	{r4, r5, r6, pc}
 8002b0e:	f44f 73fa 	mov.w	r3, #500	@ 0x1f4
 8002b12:	222a      	movs	r2, #42	@ 0x2a
 8002b14:	4621      	mov	r1, r4
 8002b16:	481b      	ldr	r0, [pc, #108]	@ (8002b84 <SK60X_Read_Data+0xb8>)
 8002b18:	f002 fc4b 	bl	80053b2 <HAL_UART_Receive>
 8002b1c:	2800      	cmp	r0, #0
 8002b1e:	d1f4      	bne.n	8002b0a <SK60X_Read_Data+0x3e>
 8002b20:	88a2      	ldrh	r2, [r4, #4]
 8002b22:	4b19      	ldr	r3, [pc, #100]	@ (8002b88 <SK60X_Read_Data+0xbc>)
 8002b24:	ba52      	rev16	r2, r2
 8002b26:	801a      	strh	r2, [r3, #0]
 8002b28:	88e2      	ldrh	r2, [r4, #6]
 8002b2a:	4628      	mov	r0, r5
 8002b2c:	ba52      	rev16	r2, r2
 8002b2e:	805a      	strh	r2, [r3, #2]
 8002b30:	8922      	ldrh	r2, [r4, #8]
 8002b32:	ba52      	rev16	r2, r2
 8002b34:	809a      	strh	r2, [r3, #4]
 8002b36:	8962      	ldrh	r2, [r4, #10]
 8002b38:	ba52      	rev16	r2, r2
 8002b3a:	80da      	strh	r2, [r3, #6]
 8002b3c:	89a2      	ldrh	r2, [r4, #12]
 8002b3e:	ba52      	rev16	r2, r2
 8002b40:	811a      	strh	r2, [r3, #8]
 8002b42:	89e2      	ldrh	r2, [r4, #14]
 8002b44:	ba52      	rev16	r2, r2
 8002b46:	815a      	strh	r2, [r3, #10]
 8002b48:	8a22      	ldrh	r2, [r4, #16]
 8002b4a:	ba52      	rev16	r2, r2
 8002b4c:	819a      	strh	r2, [r3, #12]
 8002b4e:	8b22      	ldrh	r2, [r4, #24]
 8002b50:	ba52      	rev16	r2, r2
 8002b52:	825a      	strh	r2, [r3, #18]
 8002b54:	8b62      	ldrh	r2, [r4, #26]
 8002b56:	ba52      	rev16	r2, r2
 8002b58:	829a      	strh	r2, [r3, #20]
 8002b5a:	8ba2      	ldrh	r2, [r4, #28]
 8002b5c:	ba52      	rev16	r2, r2
 8002b5e:	82da      	strh	r2, [r3, #22]
 8002b60:	8be2      	ldrh	r2, [r4, #30]
 8002b62:	ba52      	rev16	r2, r2
 8002b64:	821a      	strh	r2, [r3, #16]
 8002b66:	8c62      	ldrh	r2, [r4, #34]	@ 0x22
 8002b68:	ba52      	rev16	r2, r2
 8002b6a:	81da      	strh	r2, [r3, #14]
 8002b6c:	8ce2      	ldrh	r2, [r4, #38]	@ 0x26
 8002b6e:	ba52      	rev16	r2, r2
 8002b70:	831a      	strh	r2, [r3, #24]
 8002b72:	8d22      	ldrh	r2, [r4, #40]	@ 0x28
 8002b74:	ba52      	rev16	r2, r2
 8002b76:	835a      	strh	r2, [r3, #26]
 8002b78:	e7c8      	b.n	8002b0c <SK60X_Read_Data+0x40>
 8002b7a:	bf00      	nop
 8002b7c:	200009ac 	.word	0x200009ac
 8002b80:	200009a6 	.word	0x200009a6
 8002b84:	2000061c 	.word	0x2000061c
 8002b88:	200009d6 	.word	0x200009d6

08002b8c <SK60X_Set_On_Off>:
 8002b8c:	2801      	cmp	r0, #1
 8002b8e:	4601      	mov	r1, r0
 8002b90:	d802      	bhi.n	8002b98 <SK60X_Set_On_Off+0xc>
 8002b92:	2012      	movs	r0, #18
 8002b94:	f7ff bf7a 	b.w	8002a8c <SK60X_Send_Command>
 8002b98:	2000      	movs	r0, #0
 8002b9a:	4770      	bx	lr

08002b9c <SK60X_Set_Lock>:
 8002b9c:	2801      	cmp	r0, #1
 8002b9e:	4601      	mov	r1, r0
 8002ba0:	d802      	bhi.n	8002ba8 <SK60X_Set_Lock+0xc>
 8002ba2:	2011      	movs	r0, #17
 8002ba4:	f7ff bf72 	b.w	8002a8c <SK60X_Send_Command>
 8002ba8:	2000      	movs	r0, #0
 8002baa:	4770      	bx	lr

08002bac <SK60X_Set_Voltage>:
 8002bac:	f640 32b8 	movw	r2, #3000	@ 0xbb8
 8002bb0:	f5a0 7316 	sub.w	r3, r0, #600	@ 0x258
 8002bb4:	b29b      	uxth	r3, r3
 8002bb6:	4293      	cmp	r3, r2
 8002bb8:	4601      	mov	r1, r0
 8002bba:	d802      	bhi.n	8002bc2 <SK60X_Set_Voltage+0x16>
 8002bbc:	2001      	movs	r0, #1
 8002bbe:	f7ff bf65 	b.w	8002a8c <SK60X_Send_Command>
 8002bc2:	2000      	movs	r0, #0
 8002bc4:	4770      	bx	lr

08002bc6 <SK60X_Set_Current>:
 8002bc6:	f5b0 7ffa 	cmp.w	r0, #500	@ 0x1f4
 8002bca:	4601      	mov	r1, r0
 8002bcc:	d802      	bhi.n	8002bd4 <SK60X_Set_Current+0xe>
 8002bce:	2002      	movs	r0, #2
 8002bd0:	f7ff bf5c 	b.w	8002a8c <SK60X_Send_Command>
 8002bd4:	2000      	movs	r0, #0
 8002bd6:	4770      	bx	lr

08002bd8 <HAL_MspInit>:
 8002bd8:	4b11      	ldr	r3, [pc, #68]	@ (8002c20 <HAL_MspInit+0x48>)
 8002bda:	b507      	push	{r0, r1, r2, lr}
 8002bdc:	699a      	ldr	r2, [r3, #24]
 8002bde:	210f      	movs	r1, #15
 8002be0:	f042 0201 	orr.w	r2, r2, #1
 8002be4:	619a      	str	r2, [r3, #24]
 8002be6:	699a      	ldr	r2, [r3, #24]
 8002be8:	f06f 0001 	mvn.w	r0, #1
 8002bec:	f002 0201 	and.w	r2, r2, #1
 8002bf0:	9200      	str	r2, [sp, #0]
 8002bf2:	9a00      	ldr	r2, [sp, #0]
 8002bf4:	69da      	ldr	r2, [r3, #28]
 8002bf6:	f042 5280 	orr.w	r2, r2, #268435456	@ 0x10000000
 8002bfa:	61da      	str	r2, [r3, #28]
 8002bfc:	69db      	ldr	r3, [r3, #28]
 8002bfe:	2200      	movs	r2, #0
 8002c00:	f003 5380 	and.w	r3, r3, #268435456	@ 0x10000000
 8002c04:	9301      	str	r3, [sp, #4]
 8002c06:	9b01      	ldr	r3, [sp, #4]
 8002c08:	f000 fa26 	bl	8003058 <HAL_NVIC_SetPriority>
 8002c0c:	4a05      	ldr	r2, [pc, #20]	@ (8002c24 <HAL_MspInit+0x4c>)
 8002c0e:	6853      	ldr	r3, [r2, #4]
 8002c10:	f023 63e0 	bic.w	r3, r3, #117440512	@ 0x7000000
 8002c14:	f043 7300 	orr.w	r3, r3, #33554432	@ 0x2000000
 8002c18:	6053      	str	r3, [r2, #4]
 8002c1a:	b003      	add	sp, #12
 8002c1c:	f85d fb04 	ldr.w	pc, [sp], #4
 8002c20:	40021000 	.word	0x40021000
 8002c24:	40010000 	.word	0x40010000

08002c28 <HAL_I2C_MspInit>:
 8002c28:	b510      	push	{r4, lr}
 8002c2a:	4604      	mov	r4, r0
 8002c2c:	b086      	sub	sp, #24
 8002c2e:	2210      	movs	r2, #16
 8002c30:	2100      	movs	r1, #0
 8002c32:	a802      	add	r0, sp, #8
 8002c34:	f005 fa73 	bl	800811e <memset>
 8002c38:	6822      	ldr	r2, [r4, #0]
 8002c3a:	4b11      	ldr	r3, [pc, #68]	@ (8002c80 <HAL_I2C_MspInit+0x58>)
 8002c3c:	429a      	cmp	r2, r3
 8002c3e:	d11c      	bne.n	8002c7a <HAL_I2C_MspInit+0x52>
 8002c40:	4c10      	ldr	r4, [pc, #64]	@ (8002c84 <HAL_I2C_MspInit+0x5c>)
 8002c42:	22c0      	movs	r2, #192	@ 0xc0
 8002c44:	69a3      	ldr	r3, [r4, #24]
 8002c46:	4810      	ldr	r0, [pc, #64]	@ (8002c88 <HAL_I2C_MspInit+0x60>)
 8002c48:	f043 0308 	orr.w	r3, r3, #8
 8002c4c:	61a3      	str	r3, [r4, #24]
 8002c4e:	69a3      	ldr	r3, [r4, #24]
 8002c50:	a902      	add	r1, sp, #8
 8002c52:	f003 0308 	and.w	r3, r3, #8
 8002c56:	9300      	str	r3, [sp, #0]
 8002c58:	9b00      	ldr	r3, [sp, #0]
 8002c5a:	2312      	movs	r3, #18
 8002c5c:	e9cd 2302 	strd	r2, r3, [sp, #8]
 8002c60:	2303      	movs	r3, #3
 8002c62:	9305      	str	r3, [sp, #20]
 8002c64:	f000 fab2 	bl	80031cc <HAL_GPIO_Init>
 8002c68:	69e3      	ldr	r3, [r4, #28]
 8002c6a:	f443 1300 	orr.w	r3, r3, #2097152	@ 0x200000
 8002c6e:	61e3      	str	r3, [r4, #28]
 8002c70:	69e3      	ldr	r3, [r4, #28]
 8002c72:	f403 1300 	and.w	r3, r3, #2097152	@ 0x200000
 8002c76:	9301      	str	r3, [sp, #4]
 8002c78:	9b01      	ldr	r3, [sp, #4]
 8002c7a:	b006      	add	sp, #24
 8002c7c:	bd10      	pop	{r4, pc}
 8002c7e:	bf00      	nop
 8002c80:	40005400 	.word	0x40005400
 8002c84:	40021000 	.word	0x40021000
 8002c88:	40010c00 	.word	0x40010c00

08002c8c <HAL_TIM_Base_MspInit>:
 8002c8c:	6803      	ldr	r3, [r0, #0]
 8002c8e:	b507      	push	{r0, r1, r2, lr}
 8002c90:	f1b3 4f80 	cmp.w	r3, #1073741824	@ 0x40000000
 8002c94:	d115      	bne.n	8002cc2 <HAL_TIM_Base_MspInit+0x36>
 8002c96:	f503 3304 	add.w	r3, r3, #135168	@ 0x21000
 8002c9a:	69da      	ldr	r2, [r3, #28]
 8002c9c:	2105      	movs	r1, #5
 8002c9e:	f042 0201 	orr.w	r2, r2, #1
 8002ca2:	61da      	str	r2, [r3, #28]
 8002ca4:	69db      	ldr	r3, [r3, #28]
 8002ca6:	2200      	movs	r2, #0
 8002ca8:	f003 0301 	and.w	r3, r3, #1
 8002cac:	9301      	str	r3, [sp, #4]
 8002cae:	201c      	movs	r0, #28
 8002cb0:	9b01      	ldr	r3, [sp, #4]
 8002cb2:	f000 f9d1 	bl	8003058 <HAL_NVIC_SetPriority>
 8002cb6:	201c      	movs	r0, #28
 8002cb8:	b003      	add	sp, #12
 8002cba:	f85d eb04 	ldr.w	lr, [sp], #4
 8002cbe:	f000 b9fb 	b.w	80030b8 <HAL_NVIC_EnableIRQ>
 8002cc2:	b003      	add	sp, #12
 8002cc4:	f85d fb04 	ldr.w	pc, [sp], #4

08002cc8 <HAL_UART_MspInit>:
 8002cc8:	b530      	push	{r4, r5, lr}
 8002cca:	4604      	mov	r4, r0
 8002ccc:	b08b      	sub	sp, #44	@ 0x2c
 8002cce:	2210      	movs	r2, #16
 8002cd0:	2100      	movs	r1, #0
 8002cd2:	a806      	add	r0, sp, #24
 8002cd4:	f005 fa23 	bl	800811e <memset>
 8002cd8:	6823      	ldr	r3, [r4, #0]
 8002cda:	4a4b      	ldr	r2, [pc, #300]	@ (8002e08 <HAL_UART_MspInit+0x140>)
 8002cdc:	4293      	cmp	r3, r2
 8002cde:	d131      	bne.n	8002d44 <HAL_UART_MspInit+0x7c>
 8002ce0:	4b4a      	ldr	r3, [pc, #296]	@ (8002e0c <HAL_UART_MspInit+0x144>)
 8002ce2:	f44f 7000 	mov.w	r0, #512	@ 0x200
 8002ce6:	699a      	ldr	r2, [r3, #24]
 8002ce8:	a906      	add	r1, sp, #24
 8002cea:	f442 4280 	orr.w	r2, r2, #16384	@ 0x4000
 8002cee:	619a      	str	r2, [r3, #24]
 8002cf0:	699a      	ldr	r2, [r3, #24]
 8002cf2:	2400      	movs	r4, #0
 8002cf4:	f402 4280 	and.w	r2, r2, #16384	@ 0x4000
 8002cf8:	9200      	str	r2, [sp, #0]
 8002cfa:	9a00      	ldr	r2, [sp, #0]
 8002cfc:	699a      	ldr	r2, [r3, #24]
 8002cfe:	f042 0204 	orr.w	r2, r2, #4
 8002d02:	619a      	str	r2, [r3, #24]
 8002d04:	699b      	ldr	r3, [r3, #24]
 8002d06:	f003 0304 	and.w	r3, r3, #4
 8002d0a:	9301      	str	r3, [sp, #4]
 8002d0c:	9b01      	ldr	r3, [sp, #4]
 8002d0e:	2302      	movs	r3, #2
 8002d10:	e9cd 0306 	strd	r0, r3, [sp, #24]
 8002d14:	2303      	movs	r3, #3
 8002d16:	483e      	ldr	r0, [pc, #248]	@ (8002e10 <HAL_UART_MspInit+0x148>)
 8002d18:	9309      	str	r3, [sp, #36]	@ 0x24
 8002d1a:	f000 fa57 	bl	80031cc <HAL_GPIO_Init>
 8002d1e:	f44f 6380 	mov.w	r3, #1024	@ 0x400
 8002d22:	483b      	ldr	r0, [pc, #236]	@ (8002e10 <HAL_UART_MspInit+0x148>)
 8002d24:	a906      	add	r1, sp, #24
 8002d26:	e9cd 3406 	strd	r3, r4, [sp, #24]
 8002d2a:	9408      	str	r4, [sp, #32]
 8002d2c:	f000 fa4e 	bl	80031cc <HAL_GPIO_Init>
 8002d30:	2025      	movs	r0, #37	@ 0x25
 8002d32:	4622      	mov	r2, r4
 8002d34:	2105      	movs	r1, #5
 8002d36:	f000 f98f 	bl	8003058 <HAL_NVIC_SetPriority>
 8002d3a:	2025      	movs	r0, #37	@ 0x25
 8002d3c:	f000 f9bc 	bl	80030b8 <HAL_NVIC_EnableIRQ>
 8002d40:	b00b      	add	sp, #44	@ 0x2c
 8002d42:	bd30      	pop	{r4, r5, pc}
 8002d44:	4a33      	ldr	r2, [pc, #204]	@ (8002e14 <HAL_UART_MspInit+0x14c>)
 8002d46:	4293      	cmp	r3, r2
 8002d48:	d12c      	bne.n	8002da4 <HAL_UART_MspInit+0xdc>
 8002d4a:	4b30      	ldr	r3, [pc, #192]	@ (8002e0c <HAL_UART_MspInit+0x144>)
 8002d4c:	2104      	movs	r1, #4
 8002d4e:	69da      	ldr	r2, [r3, #28]
 8002d50:	2503      	movs	r5, #3
 8002d52:	f442 3200 	orr.w	r2, r2, #131072	@ 0x20000
 8002d56:	61da      	str	r2, [r3, #28]
 8002d58:	69da      	ldr	r2, [r3, #28]
 8002d5a:	482d      	ldr	r0, [pc, #180]	@ (8002e10 <HAL_UART_MspInit+0x148>)
 8002d5c:	f402 3200 	and.w	r2, r2, #131072	@ 0x20000
 8002d60:	9202      	str	r2, [sp, #8]
 8002d62:	9a02      	ldr	r2, [sp, #8]
 8002d64:	699a      	ldr	r2, [r3, #24]
 8002d66:	2400      	movs	r4, #0
 8002d68:	f042 0204 	orr.w	r2, r2, #4
 8002d6c:	619a      	str	r2, [r3, #24]
 8002d6e:	699b      	ldr	r3, [r3, #24]
 8002d70:	9509      	str	r5, [sp, #36]	@ 0x24
 8002d72:	f003 0304 	and.w	r3, r3, #4
 8002d76:	9303      	str	r3, [sp, #12]
 8002d78:	9b03      	ldr	r3, [sp, #12]
 8002d7a:	2302      	movs	r3, #2
 8002d7c:	e9cd 1306 	strd	r1, r3, [sp, #24]
 8002d80:	a906      	add	r1, sp, #24
 8002d82:	f000 fa23 	bl	80031cc <HAL_GPIO_Init>
 8002d86:	2308      	movs	r3, #8
 8002d88:	4821      	ldr	r0, [pc, #132]	@ (8002e10 <HAL_UART_MspInit+0x148>)
 8002d8a:	a906      	add	r1, sp, #24
 8002d8c:	e9cd 3406 	strd	r3, r4, [sp, #24]
 8002d90:	9408      	str	r4, [sp, #32]
 8002d92:	f000 fa1b 	bl	80031cc <HAL_GPIO_Init>
 8002d96:	2026      	movs	r0, #38	@ 0x26
 8002d98:	4622      	mov	r2, r4
 8002d9a:	4629      	mov	r1, r5
 8002d9c:	f000 f95c 	bl	8003058 <HAL_NVIC_SetPriority>
 8002da0:	2026      	movs	r0, #38	@ 0x26
 8002da2:	e7cb      	b.n	8002d3c <HAL_UART_MspInit+0x74>
 8002da4:	4a1c      	ldr	r2, [pc, #112]	@ (8002e18 <HAL_UART_MspInit+0x150>)
 8002da6:	4293      	cmp	r3, r2
 8002da8:	d1ca      	bne.n	8002d40 <HAL_UART_MspInit+0x78>
 8002daa:	4b18      	ldr	r3, [pc, #96]	@ (8002e0c <HAL_UART_MspInit+0x144>)
 8002dac:	481b      	ldr	r0, [pc, #108]	@ (8002e1c <HAL_UART_MspInit+0x154>)
 8002dae:	69da      	ldr	r2, [r3, #28]
 8002db0:	a906      	add	r1, sp, #24
 8002db2:	f442 2280 	orr.w	r2, r2, #262144	@ 0x40000
 8002db6:	61da      	str	r2, [r3, #28]
 8002db8:	69da      	ldr	r2, [r3, #28]
 8002dba:	2400      	movs	r4, #0
 8002dbc:	f402 2280 	and.w	r2, r2, #262144	@ 0x40000
 8002dc0:	9204      	str	r2, [sp, #16]
 8002dc2:	9a04      	ldr	r2, [sp, #16]
 8002dc4:	699a      	ldr	r2, [r3, #24]
 8002dc6:	f042 0208 	orr.w	r2, r2, #8
 8002dca:	619a      	str	r2, [r3, #24]
 8002dcc:	699b      	ldr	r3, [r3, #24]
 8002dce:	f44f 6280 	mov.w	r2, #1024	@ 0x400
 8002dd2:	f003 0308 	and.w	r3, r3, #8
 8002dd6:	9305      	str	r3, [sp, #20]
 8002dd8:	9b05      	ldr	r3, [sp, #20]
 8002dda:	2302      	movs	r3, #2
 8002ddc:	e9cd 2306 	strd	r2, r3, [sp, #24]
 8002de0:	2303      	movs	r3, #3
 8002de2:	9309      	str	r3, [sp, #36]	@ 0x24
 8002de4:	f000 f9f2 	bl	80031cc <HAL_GPIO_Init>
 8002de8:	f44f 6300 	mov.w	r3, #2048	@ 0x800
 8002dec:	480b      	ldr	r0, [pc, #44]	@ (8002e1c <HAL_UART_MspInit+0x154>)
 8002dee:	a906      	add	r1, sp, #24
 8002df0:	e9cd 3406 	strd	r3, r4, [sp, #24]
 8002df4:	9408      	str	r4, [sp, #32]
 8002df6:	f000 f9e9 	bl	80031cc <HAL_GPIO_Init>
 8002dfa:	2027      	movs	r0, #39	@ 0x27
 8002dfc:	4622      	mov	r2, r4
 8002dfe:	2105      	movs	r1, #5
 8002e00:	f000 f92a 	bl	8003058 <HAL_NVIC_SetPriority>
 8002e04:	2027      	movs	r0, #39	@ 0x27
 8002e06:	e799      	b.n	8002d3c <HAL_UART_MspInit+0x74>
 8002e08:	40013800 	.word	0x40013800
 8002e0c:	40021000 	.word	0x40021000
 8002e10:	40010800 	.word	0x40010800
 8002e14:	40004400 	.word	0x40004400
 8002e18:	40004800 	.word	0x40004800
 8002e1c:	40010c00 	.word	0x40010c00

08002e20 <NMI_Handler>:
 8002e20:	e7fe      	b.n	8002e20 <NMI_Handler>

08002e22 <HardFault_Handler>:
 8002e22:	e7fe      	b.n	8002e22 <HardFault_Handler>

08002e24 <MemManage_Handler>:
 8002e24:	e7fe      	b.n	8002e24 <MemManage_Handler>

08002e26 <BusFault_Handler>:
 8002e26:	e7fe      	b.n	8002e26 <BusFault_Handler>

08002e28 <UsageFault_Handler>:
 8002e28:	e7fe      	b.n	8002e28 <UsageFault_Handler>

08002e2a <DebugMon_Handler>:
 8002e2a:	4770      	bx	lr

08002e2c <SysTick_Handler>:
 8002e2c:	b508      	push	{r3, lr}
 8002e2e:	f000 f8dd 	bl	8002fec <HAL_IncTick>
 8002e32:	f004 f949 	bl	80070c8 <xTaskGetSchedulerState>
 8002e36:	2801      	cmp	r0, #1
 8002e38:	d003      	beq.n	8002e42 <SysTick_Handler+0x16>
 8002e3a:	e8bd 4008 	ldmia.w	sp!, {r3, lr}
 8002e3e:	f004 ba01 	b.w	8007244 <xPortSysTickHandler>
 8002e42:	bd08      	pop	{r3, pc}

08002e44 <USB_LP_CAN1_RX0_IRQHandler>:
 8002e44:	4801      	ldr	r0, [pc, #4]	@ (8002e4c <USB_LP_CAN1_RX0_IRQHandler+0x8>)
 8002e46:	f000 bf0d 	b.w	8003c64 <HAL_PCD_IRQHandler>
 8002e4a:	bf00      	nop
 8002e4c:	20003350 	.word	0x20003350

08002e50 <TIM2_IRQHandler>:
 8002e50:	4801      	ldr	r0, [pc, #4]	@ (8002e58 <TIM2_IRQHandler+0x8>)
 8002e52:	f001 bfd0 	b.w	8004df6 <HAL_TIM_IRQHandler>
 8002e56:	bf00      	nop
 8002e58:	200006f4 	.word	0x200006f4

08002e5c <USART1_IRQHandler>:
 8002e5c:	4801      	ldr	r0, [pc, #4]	@ (8002e64 <USART1_IRQHandler+0x8>)
 8002e5e:	f002 bc37 	b.w	80056d0 <HAL_UART_IRQHandler>
 8002e62:	bf00      	nop
 8002e64:	200006ac 	.word	0x200006ac

08002e68 <USART2_IRQHandler>:
 8002e68:	4801      	ldr	r0, [pc, #4]	@ (8002e70 <USART2_IRQHandler+0x8>)
 8002e6a:	f002 bc31 	b.w	80056d0 <HAL_UART_IRQHandler>
 8002e6e:	bf00      	nop
 8002e70:	20000664 	.word	0x20000664

08002e74 <USART3_IRQHandler>:
 8002e74:	4801      	ldr	r0, [pc, #4]	@ (8002e7c <USART3_IRQHandler+0x8>)
 8002e76:	f002 bc2b 	b.w	80056d0 <HAL_UART_IRQHandler>
 8002e7a:	bf00      	nop
 8002e7c:	2000061c 	.word	0x2000061c

08002e80 <_getpid>:
 8002e80:	2001      	movs	r0, #1
 8002e82:	4770      	bx	lr

08002e84 <_kill>:
 8002e84:	b508      	push	{r3, lr}
 8002e86:	f005 f99d 	bl	80081c4 <__errno>
 8002e8a:	2316      	movs	r3, #22
 8002e8c:	6003      	str	r3, [r0, #0]
 8002e8e:	f04f 30ff 	mov.w	r0, #4294967295
 8002e92:	bd08      	pop	{r3, pc}

08002e94 <_exit>:
 8002e94:	b508      	push	{r3, lr}
 8002e96:	f005 f995 	bl	80081c4 <__errno>
 8002e9a:	2316      	movs	r3, #22
 8002e9c:	6003      	str	r3, [r0, #0]
 8002e9e:	e7fe      	b.n	8002e9e <_exit+0xa>

08002ea0 <_read>:
 8002ea0:	b570      	push	{r4, r5, r6, lr}
 8002ea2:	460d      	mov	r5, r1
 8002ea4:	4614      	mov	r4, r2
 8002ea6:	460e      	mov	r6, r1
 8002ea8:	1b73      	subs	r3, r6, r5
 8002eaa:	429c      	cmp	r4, r3
 8002eac:	dc01      	bgt.n	8002eb2 <_read+0x12>
 8002eae:	4620      	mov	r0, r4
 8002eb0:	bd70      	pop	{r4, r5, r6, pc}
 8002eb2:	f3af 8000 	nop.w
 8002eb6:	f806 0b01 	strb.w	r0, [r6], #1
 8002eba:	e7f5      	b.n	8002ea8 <_read+0x8>

08002ebc <_write>:
 8002ebc:	b570      	push	{r4, r5, r6, lr}
 8002ebe:	460d      	mov	r5, r1
 8002ec0:	4614      	mov	r4, r2
 8002ec2:	460e      	mov	r6, r1
 8002ec4:	1b73      	subs	r3, r6, r5
 8002ec6:	429c      	cmp	r4, r3
 8002ec8:	dc01      	bgt.n	8002ece <_write+0x12>
 8002eca:	4620      	mov	r0, r4
 8002ecc:	bd70      	pop	{r4, r5, r6, pc}
 8002ece:	f816 0b01 	ldrb.w	r0, [r6], #1
 8002ed2:	f3af 8000 	nop.w
 8002ed6:	e7f5      	b.n	8002ec4 <_write+0x8>

08002ed8 <_close>:
 8002ed8:	f04f 30ff 	mov.w	r0, #4294967295
 8002edc:	4770      	bx	lr

08002ede <_fstat>:
 8002ede:	f44f 5300 	mov.w	r3, #8192	@ 0x2000
 8002ee2:	2000      	movs	r0, #0
 8002ee4:	604b      	str	r3, [r1, #4]
 8002ee6:	4770      	bx	lr

08002ee8 <_isatty>:
 8002ee8:	2001      	movs	r0, #1
 8002eea:	4770      	bx	lr

08002eec <_lseek>:
 8002eec:	2000      	movs	r0, #0
 8002eee:	4770      	bx	lr

08002ef0 <_sbrk>:
 8002ef0:	4a0b      	ldr	r2, [pc, #44]	@ (8002f20 <_sbrk+0x30>)
 8002ef2:	4603      	mov	r3, r0
 8002ef4:	6811      	ldr	r1, [r2, #0]
 8002ef6:	b510      	push	{r4, lr}
 8002ef8:	b909      	cbnz	r1, 8002efe <_sbrk+0xe>
 8002efa:	490a      	ldr	r1, [pc, #40]	@ (8002f24 <_sbrk+0x34>)
 8002efc:	6011      	str	r1, [r2, #0]
 8002efe:	6810      	ldr	r0, [r2, #0]
 8002f00:	4909      	ldr	r1, [pc, #36]	@ (8002f28 <_sbrk+0x38>)
 8002f02:	4c0a      	ldr	r4, [pc, #40]	@ (8002f2c <_sbrk+0x3c>)
 8002f04:	4403      	add	r3, r0
 8002f06:	1b09      	subs	r1, r1, r4
 8002f08:	428b      	cmp	r3, r1
 8002f0a:	d906      	bls.n	8002f1a <_sbrk+0x2a>
 8002f0c:	f005 f95a 	bl	80081c4 <__errno>
 8002f10:	230c      	movs	r3, #12
 8002f12:	6003      	str	r3, [r0, #0]
 8002f14:	f04f 30ff 	mov.w	r0, #4294967295
 8002f18:	bd10      	pop	{r4, pc}
 8002f1a:	6013      	str	r3, [r2, #0]
 8002f1c:	e7fc      	b.n	8002f18 <_sbrk+0x28>
 8002f1e:	bf00      	nop
 8002f20:	200009f4 	.word	0x200009f4
 8002f24:	20003778 	.word	0x20003778
 8002f28:	20005000 	.word	0x20005000
 8002f2c:	00000400 	.word	0x00000400

08002f30 <SystemInit>:
 8002f30:	4770      	bx	lr
	...

08002f34 <Reset_Handler>:
 8002f34:	f7ff fffc 	bl	8002f30 <SystemInit>
 8002f38:	480b      	ldr	r0, [pc, #44]	@ (8002f68 <LoopFillZerobss+0xe>)
 8002f3a:	490c      	ldr	r1, [pc, #48]	@ (8002f6c <LoopFillZerobss+0x12>)
 8002f3c:	4a0c      	ldr	r2, [pc, #48]	@ (8002f70 <LoopFillZerobss+0x16>)
 8002f3e:	2300      	movs	r3, #0
 8002f40:	e002      	b.n	8002f48 <LoopCopyDataInit>

08002f42 <CopyDataInit>:
 8002f42:	58d4      	ldr	r4, [r2, r3]
 8002f44:	50c4      	str	r4, [r0, r3]
 8002f46:	3304      	adds	r3, #4

08002f48 <LoopCopyDataInit>:
 8002f48:	18c4      	adds	r4, r0, r3
 8002f4a:	428c      	cmp	r4, r1
 8002f4c:	d3f9      	bcc.n	8002f42 <CopyDataInit>
 8002f4e:	4a09      	ldr	r2, [pc, #36]	@ (8002f74 <LoopFillZerobss+0x1a>)
 8002f50:	4c09      	ldr	r4, [pc, #36]	@ (8002f78 <LoopFillZerobss+0x1e>)
 8002f52:	2300      	movs	r3, #0
 8002f54:	e001      	b.n	8002f5a <LoopFillZerobss>

08002f56 <FillZerobss>:
 8002f56:	6013      	str	r3, [r2, #0]
 8002f58:	3204      	adds	r2, #4

08002f5a <LoopFillZerobss>:
 8002f5a:	42a2      	cmp	r2, r4
 8002f5c:	d3fb      	bcc.n	8002f56 <FillZerobss>
 8002f5e:	f005 f937 	bl	80081d0 <__libc_init_array>
 8002f62:	f7fe ff43 	bl	8001dec <main>
 8002f66:	4770      	bx	lr
 8002f68:	20000000 	.word	0x20000000
 8002f6c:	200001e4 	.word	0x200001e4
 8002f70:	0800a3e4 	.word	0x0800a3e4
 8002f74:	200001e8 	.word	0x200001e8
 8002f78:	20003774 	.word	0x20003774

08002f7c <ADC1_2_IRQHandler>:
 8002f7c:	e7fe      	b.n	8002f7c <ADC1_2_IRQHandler>
	...

08002f80 <HAL_InitTick>:
 8002f80:	b538      	push	{r3, r4, r5, lr}
 8002f82:	4b0e      	ldr	r3, [pc, #56]	@ (8002fbc <HAL_InitTick+0x3c>)
 8002f84:	4605      	mov	r5, r0
 8002f86:	781a      	ldrb	r2, [r3, #0]
 8002f88:	f44f 737a 	mov.w	r3, #1000	@ 0x3e8
 8002f8c:	fbb3 f3f2 	udiv	r3, r3, r2
 8002f90:	4a0b      	ldr	r2, [pc, #44]	@ (8002fc0 <HAL_InitTick+0x40>)
 8002f92:	6810      	ldr	r0, [r2, #0]
 8002f94:	fbb0 f0f3 	udiv	r0, r0, r3
 8002f98:	f000 f89c 	bl	80030d4 <HAL_SYSTICK_Config>
 8002f9c:	4604      	mov	r4, r0
 8002f9e:	b958      	cbnz	r0, 8002fb8 <HAL_InitTick+0x38>
 8002fa0:	2d0f      	cmp	r5, #15
 8002fa2:	d809      	bhi.n	8002fb8 <HAL_InitTick+0x38>
 8002fa4:	4602      	mov	r2, r0
 8002fa6:	4629      	mov	r1, r5
 8002fa8:	f04f 30ff 	mov.w	r0, #4294967295
 8002fac:	f000 f854 	bl	8003058 <HAL_NVIC_SetPriority>
 8002fb0:	4620      	mov	r0, r4
 8002fb2:	4b04      	ldr	r3, [pc, #16]	@ (8002fc4 <HAL_InitTick+0x44>)
 8002fb4:	601d      	str	r5, [r3, #0]
 8002fb6:	bd38      	pop	{r3, r4, r5, pc}
 8002fb8:	2001      	movs	r0, #1
 8002fba:	e7fc      	b.n	8002fb6 <HAL_InitTick+0x36>
 8002fbc:	20000010 	.word	0x20000010
 8002fc0:	2000000c 	.word	0x2000000c
 8002fc4:	20000014 	.word	0x20000014

08002fc8 <HAL_Init>:
 8002fc8:	4a07      	ldr	r2, [pc, #28]	@ (8002fe8 <HAL_Init+0x20>)
 8002fca:	b508      	push	{r3, lr}
 8002fcc:	6813      	ldr	r3, [r2, #0]
 8002fce:	2003      	movs	r0, #3
 8002fd0:	f043 0310 	orr.w	r3, r3, #16
 8002fd4:	6013      	str	r3, [r2, #0]
 8002fd6:	f000 f82d 	bl	8003034 <HAL_NVIC_SetPriorityGrouping>
 8002fda:	200f      	movs	r0, #15
 8002fdc:	f7ff ffd0 	bl	8002f80 <HAL_InitTick>
 8002fe0:	f7ff fdfa 	bl	8002bd8 <HAL_MspInit>
 8002fe4:	2000      	movs	r0, #0
 8002fe6:	bd08      	pop	{r3, pc}
 8002fe8:	40022000 	.word	0x40022000

08002fec <HAL_IncTick>:
 8002fec:	4a03      	ldr	r2, [pc, #12]	@ (8002ffc <HAL_IncTick+0x10>)
 8002fee:	4b04      	ldr	r3, [pc, #16]	@ (8003000 <HAL_IncTick+0x14>)
 8002ff0:	6811      	ldr	r1, [r2, #0]
 8002ff2:	781b      	ldrb	r3, [r3, #0]
 8002ff4:	440b      	add	r3, r1
 8002ff6:	6013      	str	r3, [r2, #0]
 8002ff8:	4770      	bx	lr
 8002ffa:	bf00      	nop
 8002ffc:	200009f8 	.word	0x200009f8
 8003000:	20000010 	.word	0x20000010

08003004 <HAL_GetTick>:
 8003004:	4b01      	ldr	r3, [pc, #4]	@ (800300c <HAL_GetTick+0x8>)
 8003006:	6818      	ldr	r0, [r3, #0]
 8003008:	4770      	bx	lr
 800300a:	bf00      	nop
 800300c:	200009f8 	.word	0x200009f8

08003010 <HAL_Delay>:
 8003010:	b538      	push	{r3, r4, r5, lr}
 8003012:	4604      	mov	r4, r0
 8003014:	f7ff fff6 	bl	8003004 <HAL_GetTick>
 8003018:	4605      	mov	r5, r0
 800301a:	1c63      	adds	r3, r4, #1
 800301c:	bf1e      	ittt	ne
 800301e:	4b04      	ldrne	r3, [pc, #16]	@ (8003030 <HAL_Delay+0x20>)
 8003020:	781b      	ldrbne	r3, [r3, #0]
 8003022:	18e4      	addne	r4, r4, r3
 8003024:	f7ff ffee 	bl	8003004 <HAL_GetTick>
 8003028:	1b43      	subs	r3, r0, r5
 800302a:	42a3      	cmp	r3, r4
 800302c:	d3fa      	bcc.n	8003024 <HAL_Delay+0x14>
 800302e:	bd38      	pop	{r3, r4, r5, pc}
 8003030:	20000010 	.word	0x20000010

08003034 <HAL_NVIC_SetPriorityGrouping>:
 8003034:	4907      	ldr	r1, [pc, #28]	@ (8003054 <HAL_NVIC_SetPriorityGrouping+0x20>)
 8003036:	0203      	lsls	r3, r0, #8
 8003038:	68ca      	ldr	r2, [r1, #12]
 800303a:	f403 63e0 	and.w	r3, r3, #1792	@ 0x700
 800303e:	f422 62e0 	bic.w	r2, r2, #1792	@ 0x700
 8003042:	0412      	lsls	r2, r2, #16
 8003044:	0c12      	lsrs	r2, r2, #16
 8003046:	4313      	orrs	r3, r2
 8003048:	f043 63bf 	orr.w	r3, r3, #100139008	@ 0x5f80000
 800304c:	f443 3300 	orr.w	r3, r3, #131072	@ 0x20000
 8003050:	60cb      	str	r3, [r1, #12]
 8003052:	4770      	bx	lr
 8003054:	e000ed00 	.word	0xe000ed00

08003058 <HAL_NVIC_SetPriority>:
 8003058:	4b15      	ldr	r3, [pc, #84]	@ (80030b0 <HAL_NVIC_SetPriority+0x58>)
 800305a:	b530      	push	{r4, r5, lr}
 800305c:	68dc      	ldr	r4, [r3, #12]
 800305e:	f3c4 2402 	ubfx	r4, r4, #8, #3
 8003062:	f1c4 0307 	rsb	r3, r4, #7
 8003066:	1d25      	adds	r5, r4, #4
 8003068:	2b04      	cmp	r3, #4
 800306a:	bf28      	it	cs
 800306c:	2304      	movcs	r3, #4
 800306e:	2d06      	cmp	r5, #6
 8003070:	f04f 35ff 	mov.w	r5, #4294967295
 8003074:	bf94      	ite	ls
 8003076:	2400      	movls	r4, #0
 8003078:	3c03      	subhi	r4, #3
 800307a:	fa05 f303 	lsl.w	r3, r5, r3
 800307e:	ea21 0303 	bic.w	r3, r1, r3
 8003082:	40a5      	lsls	r5, r4
 8003084:	ea22 0205 	bic.w	r2, r2, r5
 8003088:	40a3      	lsls	r3, r4
 800308a:	2800      	cmp	r0, #0
 800308c:	ea43 0302 	orr.w	r3, r3, r2
 8003090:	bfac      	ite	ge
 8003092:	f100 4060 	addge.w	r0, r0, #3758096384	@ 0xe0000000
 8003096:	4a07      	ldrlt	r2, [pc, #28]	@ (80030b4 <HAL_NVIC_SetPriority+0x5c>)
 8003098:	ea4f 1303 	mov.w	r3, r3, lsl #4
 800309c:	b2db      	uxtb	r3, r3
 800309e:	bfab      	itete	ge
 80030a0:	f500 4061 	addge.w	r0, r0, #57600	@ 0xe100
 80030a4:	f000 000f 	andlt.w	r0, r0, #15
 80030a8:	f880 3300 	strbge.w	r3, [r0, #768]	@ 0x300
 80030ac:	5413      	strblt	r3, [r2, r0]
 80030ae:	bd30      	pop	{r4, r5, pc}
 80030b0:	e000ed00 	.word	0xe000ed00
 80030b4:	e000ed14 	.word	0xe000ed14

080030b8 <HAL_NVIC_EnableIRQ>:
 80030b8:	2800      	cmp	r0, #0
 80030ba:	db07      	blt.n	80030cc <HAL_NVIC_EnableIRQ+0x14>
 80030bc:	2301      	movs	r3, #1
 80030be:	0941      	lsrs	r1, r0, #5
 80030c0:	4a03      	ldr	r2, [pc, #12]	@ (80030d0 <HAL_NVIC_EnableIRQ+0x18>)
 80030c2:	f000 001f 	and.w	r0, r0, #31
 80030c6:	4083      	lsls	r3, r0
 80030c8:	f842 3021 	str.w	r3, [r2, r1, lsl #2]
 80030cc:	4770      	bx	lr
 80030ce:	bf00      	nop
 80030d0:	e000e100 	.word	0xe000e100

080030d4 <HAL_SYSTICK_Config>:
 80030d4:	3801      	subs	r0, #1
 80030d6:	f1b0 7f80 	cmp.w	r0, #16777216	@ 0x1000000
 80030da:	d20b      	bcs.n	80030f4 <HAL_SYSTICK_Config+0x20>
 80030dc:	f04f 23e0 	mov.w	r3, #3758153728	@ 0xe000e000
 80030e0:	21f0      	movs	r1, #240	@ 0xf0
 80030e2:	4a05      	ldr	r2, [pc, #20]	@ (80030f8 <HAL_SYSTICK_Config+0x24>)
 80030e4:	6158      	str	r0, [r3, #20]
 80030e6:	f882 1023 	strb.w	r1, [r2, #35]	@ 0x23
 80030ea:	2000      	movs	r0, #0
 80030ec:	2207      	movs	r2, #7
 80030ee:	6198      	str	r0, [r3, #24]
 80030f0:	611a      	str	r2, [r3, #16]
 80030f2:	4770      	bx	lr
 80030f4:	2001      	movs	r0, #1
 80030f6:	4770      	bx	lr
 80030f8:	e000ed00 	.word	0xe000ed00

080030fc <HAL_DMA_Abort>:
 80030fc:	f890 2021 	ldrb.w	r2, [r0, #33]	@ 0x21
 8003100:	4603      	mov	r3, r0
 8003102:	2a02      	cmp	r2, #2
 8003104:	d006      	beq.n	8003114 <HAL_DMA_Abort+0x18>
 8003106:	2204      	movs	r2, #4
 8003108:	6382      	str	r2, [r0, #56]	@ 0x38
 800310a:	2001      	movs	r0, #1
 800310c:	2200      	movs	r2, #0
 800310e:	f883 2020 	strb.w	r2, [r3, #32]
 8003112:	4770      	bx	lr
 8003114:	6802      	ldr	r2, [r0, #0]
 8003116:	6bc0      	ldr	r0, [r0, #60]	@ 0x3c
 8003118:	6811      	ldr	r1, [r2, #0]
 800311a:	f021 010e 	bic.w	r1, r1, #14
 800311e:	6011      	str	r1, [r2, #0]
 8003120:	6811      	ldr	r1, [r2, #0]
 8003122:	f021 0101 	bic.w	r1, r1, #1
 8003126:	6011      	str	r1, [r2, #0]
 8003128:	2101      	movs	r1, #1
 800312a:	6c1a      	ldr	r2, [r3, #64]	@ 0x40
 800312c:	fa01 f202 	lsl.w	r2, r1, r2
 8003130:	6042      	str	r2, [r0, #4]
 8003132:	2000      	movs	r0, #0
 8003134:	f883 1021 	strb.w	r1, [r3, #33]	@ 0x21
 8003138:	e7e8      	b.n	800310c <HAL_DMA_Abort+0x10>
	...

0800313c <HAL_DMA_Abort_IT>:
 800313c:	b508      	push	{r3, lr}
 800313e:	f890 3021 	ldrb.w	r3, [r0, #33]	@ 0x21
 8003142:	2b02      	cmp	r3, #2
 8003144:	d003      	beq.n	800314e <HAL_DMA_Abort_IT+0x12>
 8003146:	2304      	movs	r3, #4
 8003148:	6383      	str	r3, [r0, #56]	@ 0x38
 800314a:	2001      	movs	r0, #1
 800314c:	bd08      	pop	{r3, pc}
 800314e:	6803      	ldr	r3, [r0, #0]
 8003150:	681a      	ldr	r2, [r3, #0]
 8003152:	f022 020e 	bic.w	r2, r2, #14
 8003156:	601a      	str	r2, [r3, #0]
 8003158:	681a      	ldr	r2, [r3, #0]
 800315a:	f022 0201 	bic.w	r2, r2, #1
 800315e:	601a      	str	r2, [r3, #0]
 8003160:	4a17      	ldr	r2, [pc, #92]	@ (80031c0 <HAL_DMA_Abort_IT+0x84>)
 8003162:	4293      	cmp	r3, r2
 8003164:	d01f      	beq.n	80031a6 <HAL_DMA_Abort_IT+0x6a>
 8003166:	3214      	adds	r2, #20
 8003168:	4293      	cmp	r3, r2
 800316a:	d01e      	beq.n	80031aa <HAL_DMA_Abort_IT+0x6e>
 800316c:	3214      	adds	r2, #20
 800316e:	4293      	cmp	r3, r2
 8003170:	d01d      	beq.n	80031ae <HAL_DMA_Abort_IT+0x72>
 8003172:	3214      	adds	r2, #20
 8003174:	4293      	cmp	r3, r2
 8003176:	d01d      	beq.n	80031b4 <HAL_DMA_Abort_IT+0x78>
 8003178:	3214      	adds	r2, #20
 800317a:	4293      	cmp	r3, r2
 800317c:	d01d      	beq.n	80031ba <HAL_DMA_Abort_IT+0x7e>
 800317e:	3214      	adds	r2, #20
 8003180:	4293      	cmp	r3, r2
 8003182:	bf14      	ite	ne
 8003184:	f04f 7380 	movne.w	r3, #16777216	@ 0x1000000
 8003188:	f44f 1380 	moveq.w	r3, #1048576	@ 0x100000
 800318c:	4a0d      	ldr	r2, [pc, #52]	@ (80031c4 <HAL_DMA_Abort_IT+0x88>)
 800318e:	6053      	str	r3, [r2, #4]
 8003190:	2301      	movs	r3, #1
 8003192:	f880 3021 	strb.w	r3, [r0, #33]	@ 0x21
 8003196:	2300      	movs	r3, #0
 8003198:	f880 3020 	strb.w	r3, [r0, #32]
 800319c:	6b43      	ldr	r3, [r0, #52]	@ 0x34
 800319e:	b103      	cbz	r3, 80031a2 <HAL_DMA_Abort_IT+0x66>
 80031a0:	4798      	blx	r3
 80031a2:	2000      	movs	r0, #0
 80031a4:	e7d2      	b.n	800314c <HAL_DMA_Abort_IT+0x10>
 80031a6:	2301      	movs	r3, #1
 80031a8:	e7f0      	b.n	800318c <HAL_DMA_Abort_IT+0x50>
 80031aa:	2310      	movs	r3, #16
 80031ac:	e7ee      	b.n	800318c <HAL_DMA_Abort_IT+0x50>
 80031ae:	f44f 7380 	mov.w	r3, #256	@ 0x100
 80031b2:	e7eb      	b.n	800318c <HAL_DMA_Abort_IT+0x50>
 80031b4:	f44f 5380 	mov.w	r3, #4096	@ 0x1000
 80031b8:	e7e8      	b.n	800318c <HAL_DMA_Abort_IT+0x50>
 80031ba:	f44f 3380 	mov.w	r3, #65536	@ 0x10000
 80031be:	e7e5      	b.n	800318c <HAL_DMA_Abort_IT+0x50>
 80031c0:	40020008 	.word	0x40020008
 80031c4:	40020000 	.word	0x40020000

080031c8 <HAL_DMA_GetError>:
 80031c8:	6b80      	ldr	r0, [r0, #56]	@ 0x38
 80031ca:	4770      	bx	lr

080031cc <HAL_GPIO_Init>:
 80031cc:	e92d 4ff7 	stmdb	sp!, {r0, r1, r2, r4, r5, r6, r7, r8, r9, sl, fp, lr}
 80031d0:	2400      	movs	r4, #0
 80031d2:	f04f 0e0f 	mov.w	lr, #15
 80031d6:	4626      	mov	r6, r4
 80031d8:	f8df c184 	ldr.w	ip, [pc, #388]	@ 8003360 <HAL_GPIO_Init+0x194>
 80031dc:	4b61      	ldr	r3, [pc, #388]	@ (8003364 <HAL_GPIO_Init+0x198>)
 80031de:	f100 0804 	add.w	r8, r0, #4
 80031e2:	680a      	ldr	r2, [r1, #0]
 80031e4:	fa32 f506 	lsrs.w	r5, r2, r6
 80031e8:	d102      	bne.n	80031f0 <HAL_GPIO_Init+0x24>
 80031ea:	b003      	add	sp, #12
 80031ec:	e8bd 8ff0 	ldmia.w	sp!, {r4, r5, r6, r7, r8, r9, sl, fp, pc}
 80031f0:	2501      	movs	r5, #1
 80031f2:	fa05 f706 	lsl.w	r7, r5, r6
 80031f6:	ea02 0507 	and.w	r5, r2, r7
 80031fa:	ea37 0202 	bics.w	r2, r7, r2
 80031fe:	d176      	bne.n	80032ee <HAL_GPIO_Init+0x122>
 8003200:	684a      	ldr	r2, [r1, #4]
 8003202:	2a03      	cmp	r2, #3
 8003204:	d807      	bhi.n	8003216 <HAL_GPIO_Init+0x4a>
 8003206:	3a01      	subs	r2, #1
 8003208:	2a02      	cmp	r2, #2
 800320a:	f200 8083 	bhi.w	8003314 <HAL_GPIO_Init+0x148>
 800320e:	e8df f002 	tbb	[pc, r2]
 8003212:	9691      	.short	0x9691
 8003214:	9c          	.byte	0x9c
 8003215:	00          	.byte	0x00
 8003216:	2a12      	cmp	r2, #18
 8003218:	f000 8094 	beq.w	8003344 <HAL_GPIO_Init+0x178>
 800321c:	d869      	bhi.n	80032f2 <HAL_GPIO_Init+0x126>
 800321e:	2a11      	cmp	r2, #17
 8003220:	f000 808a 	beq.w	8003338 <HAL_GPIO_Init+0x16c>
 8003224:	2dff      	cmp	r5, #255	@ 0xff
 8003226:	bf94      	ite	ls
 8003228:	4681      	movls	r9, r0
 800322a:	46c1      	movhi	r9, r8
 800322c:	ea4f 0286 	mov.w	r2, r6, lsl #2
 8003230:	f8d9 7000 	ldr.w	r7, [r9]
 8003234:	bf88      	it	hi
 8003236:	3a20      	subhi	r2, #32
 8003238:	fa0e fa02 	lsl.w	sl, lr, r2
 800323c:	ea27 070a 	bic.w	r7, r7, sl
 8003240:	fa04 f202 	lsl.w	r2, r4, r2
 8003244:	4317      	orrs	r7, r2
 8003246:	f8c9 7000 	str.w	r7, [r9]
 800324a:	f8d1 9004 	ldr.w	r9, [r1, #4]
 800324e:	f019 5f80 	tst.w	r9, #268435456	@ 0x10000000
 8003252:	d04c      	beq.n	80032ee <HAL_GPIO_Init+0x122>
 8003254:	f8dc 2018 	ldr.w	r2, [ip, #24]
 8003258:	f026 0703 	bic.w	r7, r6, #3
 800325c:	f042 0201 	orr.w	r2, r2, #1
 8003260:	f8cc 2018 	str.w	r2, [ip, #24]
 8003264:	f8dc 2018 	ldr.w	r2, [ip, #24]
 8003268:	f107 4780 	add.w	r7, r7, #1073741824	@ 0x40000000
 800326c:	f002 0201 	and.w	r2, r2, #1
 8003270:	9201      	str	r2, [sp, #4]
 8003272:	f507 3780 	add.w	r7, r7, #65536	@ 0x10000
 8003276:	f006 0a03 	and.w	sl, r6, #3
 800327a:	9a01      	ldr	r2, [sp, #4]
 800327c:	ea4f 0a8a 	mov.w	sl, sl, lsl #2
 8003280:	68ba      	ldr	r2, [r7, #8]
 8003282:	fa0e fb0a 	lsl.w	fp, lr, sl
 8003286:	ea22 0b0b 	bic.w	fp, r2, fp
 800328a:	4a37      	ldr	r2, [pc, #220]	@ (8003368 <HAL_GPIO_Init+0x19c>)
 800328c:	4290      	cmp	r0, r2
 800328e:	d060      	beq.n	8003352 <HAL_GPIO_Init+0x186>
 8003290:	f502 6280 	add.w	r2, r2, #1024	@ 0x400
 8003294:	4290      	cmp	r0, r2
 8003296:	d05e      	beq.n	8003356 <HAL_GPIO_Init+0x18a>
 8003298:	f502 6280 	add.w	r2, r2, #1024	@ 0x400
 800329c:	4290      	cmp	r0, r2
 800329e:	d05c      	beq.n	800335a <HAL_GPIO_Init+0x18e>
 80032a0:	f502 6280 	add.w	r2, r2, #1024	@ 0x400
 80032a4:	4290      	cmp	r0, r2
 80032a6:	bf14      	ite	ne
 80032a8:	2204      	movne	r2, #4
 80032aa:	2203      	moveq	r2, #3
 80032ac:	fa02 f20a 	lsl.w	r2, r2, sl
 80032b0:	ea42 020b 	orr.w	r2, r2, fp
 80032b4:	60ba      	str	r2, [r7, #8]
 80032b6:	689a      	ldr	r2, [r3, #8]
 80032b8:	f419 1f80 	tst.w	r9, #1048576	@ 0x100000
 80032bc:	bf14      	ite	ne
 80032be:	432a      	orrne	r2, r5
 80032c0:	43aa      	biceq	r2, r5
 80032c2:	609a      	str	r2, [r3, #8]
 80032c4:	68da      	ldr	r2, [r3, #12]
 80032c6:	f419 1f00 	tst.w	r9, #2097152	@ 0x200000
 80032ca:	bf14      	ite	ne
 80032cc:	432a      	orrne	r2, r5
 80032ce:	43aa      	biceq	r2, r5
 80032d0:	60da      	str	r2, [r3, #12]
 80032d2:	685a      	ldr	r2, [r3, #4]
 80032d4:	f419 3f00 	tst.w	r9, #131072	@ 0x20000
 80032d8:	bf14      	ite	ne
 80032da:	432a      	orrne	r2, r5
 80032dc:	43aa      	biceq	r2, r5
 80032de:	605a      	str	r2, [r3, #4]
 80032e0:	681a      	ldr	r2, [r3, #0]
 80032e2:	f419 3f80 	tst.w	r9, #65536	@ 0x10000
 80032e6:	bf14      	ite	ne
 80032e8:	432a      	orrne	r2, r5
 80032ea:	43aa      	biceq	r2, r5
 80032ec:	601a      	str	r2, [r3, #0]
 80032ee:	3601      	adds	r6, #1
 80032f0:	e777      	b.n	80031e2 <HAL_GPIO_Init+0x16>
 80032f2:	f8df 9078 	ldr.w	r9, [pc, #120]	@ 800336c <HAL_GPIO_Init+0x1a0>
 80032f6:	454a      	cmp	r2, r9
 80032f8:	d00c      	beq.n	8003314 <HAL_GPIO_Init+0x148>
 80032fa:	d814      	bhi.n	8003326 <HAL_GPIO_Init+0x15a>
 80032fc:	f5a9 1980 	sub.w	r9, r9, #1048576	@ 0x100000
 8003300:	454a      	cmp	r2, r9
 8003302:	d007      	beq.n	8003314 <HAL_GPIO_Init+0x148>
 8003304:	f509 2970 	add.w	r9, r9, #983040	@ 0xf0000
 8003308:	454a      	cmp	r2, r9
 800330a:	d003      	beq.n	8003314 <HAL_GPIO_Init+0x148>
 800330c:	f5a9 1980 	sub.w	r9, r9, #1048576	@ 0x100000
 8003310:	454a      	cmp	r2, r9
 8003312:	d187      	bne.n	8003224 <HAL_GPIO_Init+0x58>
 8003314:	688a      	ldr	r2, [r1, #8]
 8003316:	b1d2      	cbz	r2, 800334e <HAL_GPIO_Init+0x182>
 8003318:	2a01      	cmp	r2, #1
 800331a:	f04f 0408 	mov.w	r4, #8
 800331e:	bf0c      	ite	eq
 8003320:	6107      	streq	r7, [r0, #16]
 8003322:	6147      	strne	r7, [r0, #20]
 8003324:	e77e      	b.n	8003224 <HAL_GPIO_Init+0x58>
 8003326:	f8df 9048 	ldr.w	r9, [pc, #72]	@ 8003370 <HAL_GPIO_Init+0x1a4>
 800332a:	454a      	cmp	r2, r9
 800332c:	d0f2      	beq.n	8003314 <HAL_GPIO_Init+0x148>
 800332e:	f509 3980 	add.w	r9, r9, #65536	@ 0x10000
 8003332:	e7ed      	b.n	8003310 <HAL_GPIO_Init+0x144>
 8003334:	68cc      	ldr	r4, [r1, #12]
 8003336:	e775      	b.n	8003224 <HAL_GPIO_Init+0x58>
 8003338:	68cc      	ldr	r4, [r1, #12]
 800333a:	3404      	adds	r4, #4
 800333c:	e772      	b.n	8003224 <HAL_GPIO_Init+0x58>
 800333e:	68cc      	ldr	r4, [r1, #12]
 8003340:	3408      	adds	r4, #8
 8003342:	e76f      	b.n	8003224 <HAL_GPIO_Init+0x58>
 8003344:	68cc      	ldr	r4, [r1, #12]
 8003346:	340c      	adds	r4, #12
 8003348:	e76c      	b.n	8003224 <HAL_GPIO_Init+0x58>
 800334a:	2400      	movs	r4, #0
 800334c:	e76a      	b.n	8003224 <HAL_GPIO_Init+0x58>
 800334e:	2404      	movs	r4, #4
 8003350:	e768      	b.n	8003224 <HAL_GPIO_Init+0x58>
 8003352:	2200      	movs	r2, #0
 8003354:	e7aa      	b.n	80032ac <HAL_GPIO_Init+0xe0>
 8003356:	2201      	movs	r2, #1
 8003358:	e7a8      	b.n	80032ac <HAL_GPIO_Init+0xe0>
 800335a:	2202      	movs	r2, #2
 800335c:	e7a6      	b.n	80032ac <HAL_GPIO_Init+0xe0>
 800335e:	bf00      	nop
 8003360:	40021000 	.word	0x40021000
 8003364:	40010400 	.word	0x40010400
 8003368:	40010800 	.word	0x40010800
 800336c:	10220000 	.word	0x10220000
 8003370:	10310000 	.word	0x10310000

08003374 <HAL_GPIO_ReadPin>:
 8003374:	6883      	ldr	r3, [r0, #8]
 8003376:	4219      	tst	r1, r3
 8003378:	bf14      	ite	ne
 800337a:	2001      	movne	r0, #1
 800337c:	2000      	moveq	r0, #0
 800337e:	4770      	bx	lr

08003380 <HAL_GPIO_WritePin>:
 8003380:	b10a      	cbz	r2, 8003386 <HAL_GPIO_WritePin+0x6>
 8003382:	6101      	str	r1, [r0, #16]
 8003384:	4770      	bx	lr
 8003386:	0409      	lsls	r1, r1, #16
 8003388:	e7fb      	b.n	8003382 <HAL_GPIO_WritePin+0x2>

0800338a <HAL_GPIO_TogglePin>:
 800338a:	68c3      	ldr	r3, [r0, #12]
 800338c:	ea01 0203 	and.w	r2, r1, r3
 8003390:	ea21 0103 	bic.w	r1, r1, r3
 8003394:	ea41 4102 	orr.w	r1, r1, r2, lsl #16
 8003398:	6101      	str	r1, [r0, #16]
 800339a:	4770      	bx	lr

0800339c <I2C_IsAcknowledgeFailed>:
 800339c:	6801      	ldr	r1, [r0, #0]
 800339e:	2200      	movs	r2, #0
 80033a0:	694b      	ldr	r3, [r1, #20]
 80033a2:	f413 6380 	ands.w	r3, r3, #1024	@ 0x400
 80033a6:	d010      	beq.n	80033ca <I2C_IsAcknowledgeFailed+0x2e>
 80033a8:	f46f 6380 	mvn.w	r3, #1024	@ 0x400
 80033ac:	614b      	str	r3, [r1, #20]
 80033ae:	2320      	movs	r3, #32
 80033b0:	6302      	str	r2, [r0, #48]	@ 0x30
 80033b2:	f880 303d 	strb.w	r3, [r0, #61]	@ 0x3d
 80033b6:	f880 203e 	strb.w	r2, [r0, #62]	@ 0x3e
 80033ba:	6c03      	ldr	r3, [r0, #64]	@ 0x40
 80033bc:	f880 203c 	strb.w	r2, [r0, #60]	@ 0x3c
 80033c0:	f043 0304 	orr.w	r3, r3, #4
 80033c4:	6403      	str	r3, [r0, #64]	@ 0x40
 80033c6:	2001      	movs	r0, #1
 80033c8:	4770      	bx	lr
 80033ca:	4618      	mov	r0, r3
 80033cc:	4770      	bx	lr

080033ce <I2C_WaitOnFlagUntilTimeout>:
 80033ce:	e92d 46f8 	stmdb	sp!, {r3, r4, r5, r6, r7, r9, sl, lr}
 80033d2:	4606      	mov	r6, r0
 80033d4:	460f      	mov	r7, r1
 80033d6:	4691      	mov	r9, r2
 80033d8:	461d      	mov	r5, r3
 80033da:	ea4f 4a11 	mov.w	sl, r1, lsr #16
 80033de:	6833      	ldr	r3, [r6, #0]
 80033e0:	f1ba 0f01 	cmp.w	sl, #1
 80033e4:	bf0c      	ite	eq
 80033e6:	695c      	ldreq	r4, [r3, #20]
 80033e8:	699c      	ldrne	r4, [r3, #24]
 80033ea:	ea27 0404 	bic.w	r4, r7, r4
 80033ee:	b2a4      	uxth	r4, r4
 80033f0:	fab4 f484 	clz	r4, r4
 80033f4:	0964      	lsrs	r4, r4, #5
 80033f6:	45a1      	cmp	r9, r4
 80033f8:	d001      	beq.n	80033fe <I2C_WaitOnFlagUntilTimeout+0x30>
 80033fa:	2000      	movs	r0, #0
 80033fc:	e025      	b.n	800344a <I2C_WaitOnFlagUntilTimeout+0x7c>
 80033fe:	1c6a      	adds	r2, r5, #1
 8003400:	d0ee      	beq.n	80033e0 <I2C_WaitOnFlagUntilTimeout+0x12>
 8003402:	f7ff fdff 	bl	8003004 <HAL_GetTick>
 8003406:	9b08      	ldr	r3, [sp, #32]
 8003408:	1ac0      	subs	r0, r0, r3
 800340a:	42a8      	cmp	r0, r5
 800340c:	d801      	bhi.n	8003412 <I2C_WaitOnFlagUntilTimeout+0x44>
 800340e:	2d00      	cmp	r5, #0
 8003410:	d1e5      	bne.n	80033de <I2C_WaitOnFlagUntilTimeout+0x10>
 8003412:	6833      	ldr	r3, [r6, #0]
 8003414:	f1ba 0f01 	cmp.w	sl, #1
 8003418:	bf0c      	ite	eq
 800341a:	695b      	ldreq	r3, [r3, #20]
 800341c:	699b      	ldrne	r3, [r3, #24]
 800341e:	ea27 0303 	bic.w	r3, r7, r3
 8003422:	b29b      	uxth	r3, r3
 8003424:	fab3 f383 	clz	r3, r3
 8003428:	095b      	lsrs	r3, r3, #5
 800342a:	4599      	cmp	r9, r3
 800342c:	d1d7      	bne.n	80033de <I2C_WaitOnFlagUntilTimeout+0x10>
 800342e:	2300      	movs	r3, #0
 8003430:	2220      	movs	r2, #32
 8003432:	2001      	movs	r0, #1
 8003434:	6333      	str	r3, [r6, #48]	@ 0x30
 8003436:	f886 203d 	strb.w	r2, [r6, #61]	@ 0x3d
 800343a:	f886 303e 	strb.w	r3, [r6, #62]	@ 0x3e
 800343e:	6c32      	ldr	r2, [r6, #64]	@ 0x40
 8003440:	f886 303c 	strb.w	r3, [r6, #60]	@ 0x3c
 8003444:	f042 0220 	orr.w	r2, r2, #32
 8003448:	6432      	str	r2, [r6, #64]	@ 0x40
 800344a:	e8bd 86f8 	ldmia.w	sp!, {r3, r4, r5, r6, r7, r9, sl, pc}

0800344e <I2C_WaitOnMasterAddressFlagUntilTimeout>:
 800344e:	e92d 41f0 	stmdb	sp!, {r4, r5, r6, r7, r8, lr}
 8003452:	4604      	mov	r4, r0
 8003454:	460f      	mov	r7, r1
 8003456:	4616      	mov	r6, r2
 8003458:	4698      	mov	r8, r3
 800345a:	6825      	ldr	r5, [r4, #0]
 800345c:	6968      	ldr	r0, [r5, #20]
 800345e:	ea27 0000 	bic.w	r0, r7, r0
 8003462:	b280      	uxth	r0, r0
 8003464:	b1c0      	cbz	r0, 8003498 <I2C_WaitOnMasterAddressFlagUntilTimeout+0x4a>
 8003466:	696b      	ldr	r3, [r5, #20]
 8003468:	055a      	lsls	r2, r3, #21
 800346a:	d517      	bpl.n	800349c <I2C_WaitOnMasterAddressFlagUntilTimeout+0x4e>
 800346c:	682b      	ldr	r3, [r5, #0]
 800346e:	2220      	movs	r2, #32
 8003470:	f443 7300 	orr.w	r3, r3, #512	@ 0x200
 8003474:	602b      	str	r3, [r5, #0]
 8003476:	f46f 6380 	mvn.w	r3, #1024	@ 0x400
 800347a:	616b      	str	r3, [r5, #20]
 800347c:	2300      	movs	r3, #0
 800347e:	6323      	str	r3, [r4, #48]	@ 0x30
 8003480:	f884 203d 	strb.w	r2, [r4, #61]	@ 0x3d
 8003484:	f884 303e 	strb.w	r3, [r4, #62]	@ 0x3e
 8003488:	6c23      	ldr	r3, [r4, #64]	@ 0x40
 800348a:	f043 0304 	orr.w	r3, r3, #4
 800348e:	6423      	str	r3, [r4, #64]	@ 0x40
 8003490:	2300      	movs	r3, #0
 8003492:	2001      	movs	r0, #1
 8003494:	f884 303c 	strb.w	r3, [r4, #60]	@ 0x3c
 8003498:	e8bd 81f0 	ldmia.w	sp!, {r4, r5, r6, r7, r8, pc}
 800349c:	1c73      	adds	r3, r6, #1
 800349e:	d0dd      	beq.n	800345c <I2C_WaitOnMasterAddressFlagUntilTimeout+0xe>
 80034a0:	f7ff fdb0 	bl	8003004 <HAL_GetTick>
 80034a4:	eba0 0008 	sub.w	r0, r0, r8
 80034a8:	42b0      	cmp	r0, r6
 80034aa:	d801      	bhi.n	80034b0 <I2C_WaitOnMasterAddressFlagUntilTimeout+0x62>
 80034ac:	2e00      	cmp	r6, #0
 80034ae:	d1d4      	bne.n	800345a <I2C_WaitOnMasterAddressFlagUntilTimeout+0xc>
 80034b0:	6823      	ldr	r3, [r4, #0]
 80034b2:	695a      	ldr	r2, [r3, #20]
 80034b4:	ea27 0202 	bic.w	r2, r7, r2
 80034b8:	b292      	uxth	r2, r2
 80034ba:	2a00      	cmp	r2, #0
 80034bc:	d0cd      	beq.n	800345a <I2C_WaitOnMasterAddressFlagUntilTimeout+0xc>
 80034be:	2300      	movs	r3, #0
 80034c0:	2220      	movs	r2, #32
 80034c2:	6323      	str	r3, [r4, #48]	@ 0x30
 80034c4:	f884 203d 	strb.w	r2, [r4, #61]	@ 0x3d
 80034c8:	f884 303e 	strb.w	r3, [r4, #62]	@ 0x3e
 80034cc:	6c23      	ldr	r3, [r4, #64]	@ 0x40
 80034ce:	4313      	orrs	r3, r2
 80034d0:	e7dd      	b.n	800348e <I2C_WaitOnMasterAddressFlagUntilTimeout+0x40>

080034d2 <I2C_WaitOnTXEFlagUntilTimeout>:
 80034d2:	b570      	push	{r4, r5, r6, lr}
 80034d4:	4604      	mov	r4, r0
 80034d6:	460d      	mov	r5, r1
 80034d8:	4616      	mov	r6, r2
 80034da:	6823      	ldr	r3, [r4, #0]
 80034dc:	695b      	ldr	r3, [r3, #20]
 80034de:	061b      	lsls	r3, r3, #24
 80034e0:	d501      	bpl.n	80034e6 <I2C_WaitOnTXEFlagUntilTimeout+0x14>
 80034e2:	2000      	movs	r0, #0
 80034e4:	e01e      	b.n	8003524 <I2C_WaitOnTXEFlagUntilTimeout+0x52>
 80034e6:	4620      	mov	r0, r4
 80034e8:	f7ff ff58 	bl	800339c <I2C_IsAcknowledgeFailed>
 80034ec:	b9c8      	cbnz	r0, 8003522 <I2C_WaitOnTXEFlagUntilTimeout+0x50>
 80034ee:	1c6a      	adds	r2, r5, #1
 80034f0:	d0f3      	beq.n	80034da <I2C_WaitOnTXEFlagUntilTimeout+0x8>
 80034f2:	f7ff fd87 	bl	8003004 <HAL_GetTick>
 80034f6:	1b80      	subs	r0, r0, r6
 80034f8:	42a8      	cmp	r0, r5
 80034fa:	d801      	bhi.n	8003500 <I2C_WaitOnTXEFlagUntilTimeout+0x2e>
 80034fc:	2d00      	cmp	r5, #0
 80034fe:	d1ec      	bne.n	80034da <I2C_WaitOnTXEFlagUntilTimeout+0x8>
 8003500:	6823      	ldr	r3, [r4, #0]
 8003502:	695b      	ldr	r3, [r3, #20]
 8003504:	f013 0380 	ands.w	r3, r3, #128	@ 0x80
 8003508:	d1e7      	bne.n	80034da <I2C_WaitOnTXEFlagUntilTimeout+0x8>
 800350a:	2220      	movs	r2, #32
 800350c:	6323      	str	r3, [r4, #48]	@ 0x30
 800350e:	f884 203d 	strb.w	r2, [r4, #61]	@ 0x3d
 8003512:	f884 303e 	strb.w	r3, [r4, #62]	@ 0x3e
 8003516:	6c22      	ldr	r2, [r4, #64]	@ 0x40
 8003518:	f884 303c 	strb.w	r3, [r4, #60]	@ 0x3c
 800351c:	f042 0220 	orr.w	r2, r2, #32
 8003520:	6422      	str	r2, [r4, #64]	@ 0x40
 8003522:	2001      	movs	r0, #1
 8003524:	bd70      	pop	{r4, r5, r6, pc}

08003526 <I2C_WaitOnBTFFlagUntilTimeout>:
 8003526:	b570      	push	{r4, r5, r6, lr}
 8003528:	4604      	mov	r4, r0
 800352a:	460d      	mov	r5, r1
 800352c:	4616      	mov	r6, r2
 800352e:	6823      	ldr	r3, [r4, #0]
 8003530:	695b      	ldr	r3, [r3, #20]
 8003532:	075b      	lsls	r3, r3, #29
 8003534:	d501      	bpl.n	800353a <I2C_WaitOnBTFFlagUntilTimeout+0x14>
 8003536:	2000      	movs	r0, #0
 8003538:	e01e      	b.n	8003578 <I2C_WaitOnBTFFlagUntilTimeout+0x52>
 800353a:	4620      	mov	r0, r4
 800353c:	f7ff ff2e 	bl	800339c <I2C_IsAcknowledgeFailed>
 8003540:	b9c8      	cbnz	r0, 8003576 <I2C_WaitOnBTFFlagUntilTimeout+0x50>
 8003542:	1c6a      	adds	r2, r5, #1
 8003544:	d0f3      	beq.n	800352e <I2C_WaitOnBTFFlagUntilTimeout+0x8>
 8003546:	f7ff fd5d 	bl	8003004 <HAL_GetTick>
 800354a:	1b80      	subs	r0, r0, r6
 800354c:	42a8      	cmp	r0, r5
 800354e:	d801      	bhi.n	8003554 <I2C_WaitOnBTFFlagUntilTimeout+0x2e>
 8003550:	2d00      	cmp	r5, #0
 8003552:	d1ec      	bne.n	800352e <I2C_WaitOnBTFFlagUntilTimeout+0x8>
 8003554:	6823      	ldr	r3, [r4, #0]
 8003556:	695b      	ldr	r3, [r3, #20]
 8003558:	f013 0304 	ands.w	r3, r3, #4
 800355c:	d1e7      	bne.n	800352e <I2C_WaitOnBTFFlagUntilTimeout+0x8>
 800355e:	2220      	movs	r2, #32
 8003560:	6323      	str	r3, [r4, #48]	@ 0x30
 8003562:	f884 203d 	strb.w	r2, [r4, #61]	@ 0x3d
 8003566:	f884 303e 	strb.w	r3, [r4, #62]	@ 0x3e
 800356a:	6c22      	ldr	r2, [r4, #64]	@ 0x40
 800356c:	f884 303c 	strb.w	r3, [r4, #60]	@ 0x3c
 8003570:	f042 0220 	orr.w	r2, r2, #32
 8003574:	6422      	str	r2, [r4, #64]	@ 0x40
 8003576:	2001      	movs	r0, #1
 8003578:	bd70      	pop	{r4, r5, r6, pc}

0800357a <I2C_WaitOnRXNEFlagUntilTimeout>:
 800357a:	b570      	push	{r4, r5, r6, lr}
 800357c:	4604      	mov	r4, r0
 800357e:	460d      	mov	r5, r1
 8003580:	4616      	mov	r6, r2
 8003582:	6821      	ldr	r1, [r4, #0]
 8003584:	694b      	ldr	r3, [r1, #20]
 8003586:	f013 0340 	ands.w	r3, r3, #64	@ 0x40
 800358a:	d001      	beq.n	8003590 <I2C_WaitOnRXNEFlagUntilTimeout+0x16>
 800358c:	2000      	movs	r0, #0
 800358e:	e011      	b.n	80035b4 <I2C_WaitOnRXNEFlagUntilTimeout+0x3a>
 8003590:	694a      	ldr	r2, [r1, #20]
 8003592:	06d2      	lsls	r2, r2, #27
 8003594:	d50f      	bpl.n	80035b6 <I2C_WaitOnRXNEFlagUntilTimeout+0x3c>
 8003596:	f06f 0210 	mvn.w	r2, #16
 800359a:	614a      	str	r2, [r1, #20]
 800359c:	2220      	movs	r2, #32
 800359e:	6323      	str	r3, [r4, #48]	@ 0x30
 80035a0:	f884 203d 	strb.w	r2, [r4, #61]	@ 0x3d
 80035a4:	f884 303e 	strb.w	r3, [r4, #62]	@ 0x3e
 80035a8:	6c23      	ldr	r3, [r4, #64]	@ 0x40
 80035aa:	6423      	str	r3, [r4, #64]	@ 0x40
 80035ac:	2300      	movs	r3, #0
 80035ae:	2001      	movs	r0, #1
 80035b0:	f884 303c 	strb.w	r3, [r4, #60]	@ 0x3c
 80035b4:	bd70      	pop	{r4, r5, r6, pc}
 80035b6:	f7ff fd25 	bl	8003004 <HAL_GetTick>
 80035ba:	1b80      	subs	r0, r0, r6
 80035bc:	42a8      	cmp	r0, r5
 80035be:	d801      	bhi.n	80035c4 <I2C_WaitOnRXNEFlagUntilTimeout+0x4a>
 80035c0:	2d00      	cmp	r5, #0
 80035c2:	d1de      	bne.n	8003582 <I2C_WaitOnRXNEFlagUntilTimeout+0x8>
 80035c4:	6823      	ldr	r3, [r4, #0]
 80035c6:	695b      	ldr	r3, [r3, #20]
 80035c8:	f013 0340 	ands.w	r3, r3, #64	@ 0x40
 80035cc:	d1d9      	bne.n	8003582 <I2C_WaitOnRXNEFlagUntilTimeout+0x8>
 80035ce:	2220      	movs	r2, #32
 80035d0:	6323      	str	r3, [r4, #48]	@ 0x30
 80035d2:	f884 203d 	strb.w	r2, [r4, #61]	@ 0x3d
 80035d6:	f884 303e 	strb.w	r3, [r4, #62]	@ 0x3e
 80035da:	6c23      	ldr	r3, [r4, #64]	@ 0x40
 80035dc:	4313      	orrs	r3, r2
 80035de:	e7e4      	b.n	80035aa <I2C_WaitOnRXNEFlagUntilTimeout+0x30>

080035e0 <HAL_I2C_Init>:
 80035e0:	b570      	push	{r4, r5, r6, lr}
 80035e2:	4604      	mov	r4, r0
 80035e4:	b908      	cbnz	r0, 80035ea <HAL_I2C_Init+0xa>
 80035e6:	2001      	movs	r0, #1
 80035e8:	bd70      	pop	{r4, r5, r6, pc}
 80035ea:	f890 303d 	ldrb.w	r3, [r0, #61]	@ 0x3d
 80035ee:	f003 02ff 	and.w	r2, r3, #255	@ 0xff
 80035f2:	b91b      	cbnz	r3, 80035fc <HAL_I2C_Init+0x1c>
 80035f4:	f880 203c 	strb.w	r2, [r0, #60]	@ 0x3c
 80035f8:	f7ff fb16 	bl	8002c28 <HAL_I2C_MspInit>
 80035fc:	2324      	movs	r3, #36	@ 0x24
 80035fe:	f884 303d 	strb.w	r3, [r4, #61]	@ 0x3d
 8003602:	6823      	ldr	r3, [r4, #0]
 8003604:	681a      	ldr	r2, [r3, #0]
 8003606:	f022 0201 	bic.w	r2, r2, #1
 800360a:	601a      	str	r2, [r3, #0]
 800360c:	681a      	ldr	r2, [r3, #0]
 800360e:	f442 4200 	orr.w	r2, r2, #32768	@ 0x8000
 8003612:	601a      	str	r2, [r3, #0]
 8003614:	681a      	ldr	r2, [r3, #0]
 8003616:	f422 4200 	bic.w	r2, r2, #32768	@ 0x8000
 800361a:	601a      	str	r2, [r3, #0]
 800361c:	f001 fb4c 	bl	8004cb8 <HAL_RCC_GetPCLK1Freq>
 8003620:	4b3f      	ldr	r3, [pc, #252]	@ (8003720 <HAL_I2C_Init+0x140>)
 8003622:	6865      	ldr	r5, [r4, #4]
 8003624:	429d      	cmp	r5, r3
 8003626:	bf94      	ite	ls
 8003628:	4b3e      	ldrls	r3, [pc, #248]	@ (8003724 <HAL_I2C_Init+0x144>)
 800362a:	4b3f      	ldrhi	r3, [pc, #252]	@ (8003728 <HAL_I2C_Init+0x148>)
 800362c:	4298      	cmp	r0, r3
 800362e:	bf8c      	ite	hi
 8003630:	2300      	movhi	r3, #0
 8003632:	2301      	movls	r3, #1
 8003634:	2b00      	cmp	r3, #0
 8003636:	d1d6      	bne.n	80035e6 <HAL_I2C_Init+0x6>
 8003638:	4e39      	ldr	r6, [pc, #228]	@ (8003720 <HAL_I2C_Init+0x140>)
 800363a:	4b3c      	ldr	r3, [pc, #240]	@ (800372c <HAL_I2C_Init+0x14c>)
 800363c:	42b5      	cmp	r5, r6
 800363e:	fbb0 f3f3 	udiv	r3, r0, r3
 8003642:	bf88      	it	hi
 8003644:	f44f 7696 	movhi.w	r6, #300	@ 0x12c
 8003648:	6822      	ldr	r2, [r4, #0]
 800364a:	6851      	ldr	r1, [r2, #4]
 800364c:	f021 013f 	bic.w	r1, r1, #63	@ 0x3f
 8003650:	ea41 0103 	orr.w	r1, r1, r3
 8003654:	bf82      	ittt	hi
 8003656:	4373      	mulhi	r3, r6
 8003658:	f44f 767a 	movhi.w	r6, #1000	@ 0x3e8
 800365c:	fbb3 f3f6 	udivhi	r3, r3, r6
 8003660:	6051      	str	r1, [r2, #4]
 8003662:	6a11      	ldr	r1, [r2, #32]
 8003664:	3301      	adds	r3, #1
 8003666:	f021 013f 	bic.w	r1, r1, #63	@ 0x3f
 800366a:	430b      	orrs	r3, r1
 800366c:	6213      	str	r3, [r2, #32]
 800366e:	69d1      	ldr	r1, [r2, #28]
 8003670:	1e43      	subs	r3, r0, #1
 8003672:	482b      	ldr	r0, [pc, #172]	@ (8003720 <HAL_I2C_Init+0x140>)
 8003674:	f421 414f 	bic.w	r1, r1, #52992	@ 0xcf00
 8003678:	4285      	cmp	r5, r0
 800367a:	f021 01ff 	bic.w	r1, r1, #255	@ 0xff
 800367e:	d832      	bhi.n	80036e6 <HAL_I2C_Init+0x106>
 8003680:	006d      	lsls	r5, r5, #1
 8003682:	fbb3 f3f5 	udiv	r3, r3, r5
 8003686:	f640 70fc 	movw	r0, #4092	@ 0xffc
 800368a:	3301      	adds	r3, #1
 800368c:	4203      	tst	r3, r0
 800368e:	d042      	beq.n	8003716 <HAL_I2C_Init+0x136>
 8003690:	f3c3 030b 	ubfx	r3, r3, #0, #12
 8003694:	4319      	orrs	r1, r3
 8003696:	61d1      	str	r1, [r2, #28]
 8003698:	6811      	ldr	r1, [r2, #0]
 800369a:	e9d4 3007 	ldrd	r3, r0, [r4, #28]
 800369e:	f021 01c0 	bic.w	r1, r1, #192	@ 0xc0
 80036a2:	4303      	orrs	r3, r0
 80036a4:	430b      	orrs	r3, r1
 80036a6:	6013      	str	r3, [r2, #0]
 80036a8:	6891      	ldr	r1, [r2, #8]
 80036aa:	e9d4 0303 	ldrd	r0, r3, [r4, #12]
 80036ae:	f421 4103 	bic.w	r1, r1, #33536	@ 0x8300
 80036b2:	4303      	orrs	r3, r0
 80036b4:	f021 01ff 	bic.w	r1, r1, #255	@ 0xff
 80036b8:	430b      	orrs	r3, r1
 80036ba:	6093      	str	r3, [r2, #8]
 80036bc:	68d1      	ldr	r1, [r2, #12]
 80036be:	e9d4 3005 	ldrd	r3, r0, [r4, #20]
 80036c2:	f021 01ff 	bic.w	r1, r1, #255	@ 0xff
 80036c6:	4303      	orrs	r3, r0
 80036c8:	430b      	orrs	r3, r1
 80036ca:	60d3      	str	r3, [r2, #12]
 80036cc:	6813      	ldr	r3, [r2, #0]
 80036ce:	2000      	movs	r0, #0
 80036d0:	f043 0301 	orr.w	r3, r3, #1
 80036d4:	6013      	str	r3, [r2, #0]
 80036d6:	2320      	movs	r3, #32
 80036d8:	6420      	str	r0, [r4, #64]	@ 0x40
 80036da:	f884 303d 	strb.w	r3, [r4, #61]	@ 0x3d
 80036de:	6320      	str	r0, [r4, #48]	@ 0x30
 80036e0:	f884 003e 	strb.w	r0, [r4, #62]	@ 0x3e
 80036e4:	e780      	b.n	80035e8 <HAL_I2C_Init+0x8>
 80036e6:	68a0      	ldr	r0, [r4, #8]
 80036e8:	b950      	cbnz	r0, 8003700 <HAL_I2C_Init+0x120>
 80036ea:	eb05 0545 	add.w	r5, r5, r5, lsl #1
 80036ee:	fbb3 f3f5 	udiv	r3, r3, r5
 80036f2:	3301      	adds	r3, #1
 80036f4:	f3c3 030b 	ubfx	r3, r3, #0, #12
 80036f8:	b17b      	cbz	r3, 800371a <HAL_I2C_Init+0x13a>
 80036fa:	f443 4300 	orr.w	r3, r3, #32768	@ 0x8000
 80036fe:	e7c9      	b.n	8003694 <HAL_I2C_Init+0xb4>
 8003700:	2019      	movs	r0, #25
 8003702:	4368      	muls	r0, r5
 8003704:	fbb3 f3f0 	udiv	r3, r3, r0
 8003708:	3301      	adds	r3, #1
 800370a:	f3c3 030b 	ubfx	r3, r3, #0, #12
 800370e:	b123      	cbz	r3, 800371a <HAL_I2C_Init+0x13a>
 8003710:	f443 4340 	orr.w	r3, r3, #49152	@ 0xc000
 8003714:	e7be      	b.n	8003694 <HAL_I2C_Init+0xb4>
 8003716:	2304      	movs	r3, #4
 8003718:	e7bc      	b.n	8003694 <HAL_I2C_Init+0xb4>
 800371a:	2301      	movs	r3, #1
 800371c:	e7ba      	b.n	8003694 <HAL_I2C_Init+0xb4>
 800371e:	bf00      	nop
 8003720:	000186a0 	.word	0x000186a0
 8003724:	001e847f 	.word	0x001e847f
 8003728:	003d08ff 	.word	0x003d08ff
 800372c:	000f4240 	.word	0x000f4240

08003730 <HAL_I2C_Master_Transmit>:
 8003730:	e92d 43f0 	stmdb	sp!, {r4, r5, r6, r7, r8, r9, lr}
 8003734:	4604      	mov	r4, r0
 8003736:	b085      	sub	sp, #20
 8003738:	4698      	mov	r8, r3
 800373a:	460d      	mov	r5, r1
 800373c:	4691      	mov	r9, r2
 800373e:	9f0c      	ldr	r7, [sp, #48]	@ 0x30
 8003740:	f7ff fc60 	bl	8003004 <HAL_GetTick>
 8003744:	f894 303d 	ldrb.w	r3, [r4, #61]	@ 0x3d
 8003748:	4606      	mov	r6, r0
 800374a:	2b20      	cmp	r3, #32
 800374c:	d004      	beq.n	8003758 <HAL_I2C_Master_Transmit+0x28>
 800374e:	2502      	movs	r5, #2
 8003750:	4628      	mov	r0, r5
 8003752:	b005      	add	sp, #20
 8003754:	e8bd 83f0 	ldmia.w	sp!, {r4, r5, r6, r7, r8, r9, pc}
 8003758:	9000      	str	r0, [sp, #0]
 800375a:	2319      	movs	r3, #25
 800375c:	2201      	movs	r2, #1
 800375e:	4620      	mov	r0, r4
 8003760:	495c      	ldr	r1, [pc, #368]	@ (80038d4 <HAL_I2C_Master_Transmit+0x1a4>)
 8003762:	f7ff fe34 	bl	80033ce <I2C_WaitOnFlagUntilTimeout>
 8003766:	2800      	cmp	r0, #0
 8003768:	d1f1      	bne.n	800374e <HAL_I2C_Master_Transmit+0x1e>
 800376a:	f894 303c 	ldrb.w	r3, [r4, #60]	@ 0x3c
 800376e:	2b01      	cmp	r3, #1
 8003770:	d0ed      	beq.n	800374e <HAL_I2C_Master_Transmit+0x1e>
 8003772:	2301      	movs	r3, #1
 8003774:	6821      	ldr	r1, [r4, #0]
 8003776:	f884 303c 	strb.w	r3, [r4, #60]	@ 0x3c
 800377a:	680b      	ldr	r3, [r1, #0]
 800377c:	07da      	lsls	r2, r3, #31
 800377e:	bf5e      	ittt	pl
 8003780:	680b      	ldrpl	r3, [r1, #0]
 8003782:	f043 0301 	orrpl.w	r3, r3, #1
 8003786:	600b      	strpl	r3, [r1, #0]
 8003788:	680b      	ldr	r3, [r1, #0]
 800378a:	f423 6300 	bic.w	r3, r3, #2048	@ 0x800
 800378e:	600b      	str	r3, [r1, #0]
 8003790:	2321      	movs	r3, #33	@ 0x21
 8003792:	f884 303d 	strb.w	r3, [r4, #61]	@ 0x3d
 8003796:	2310      	movs	r3, #16
 8003798:	f884 303e 	strb.w	r3, [r4, #62]	@ 0x3e
 800379c:	2300      	movs	r3, #0
 800379e:	6423      	str	r3, [r4, #64]	@ 0x40
 80037a0:	f8a4 802a 	strh.w	r8, [r4, #42]	@ 0x2a
 80037a4:	8d63      	ldrh	r3, [r4, #42]	@ 0x2a
 80037a6:	f8c4 9024 	str.w	r9, [r4, #36]	@ 0x24
 80037aa:	8523      	strh	r3, [r4, #40]	@ 0x28
 80037ac:	4b4a      	ldr	r3, [pc, #296]	@ (80038d8 <HAL_I2C_Master_Transmit+0x1a8>)
 80037ae:	62e3      	str	r3, [r4, #44]	@ 0x2c
 80037b0:	6ae3      	ldr	r3, [r4, #44]	@ 0x2c
 80037b2:	2b08      	cmp	r3, #8
 80037b4:	d004      	beq.n	80037c0 <HAL_I2C_Master_Transmit+0x90>
 80037b6:	2b01      	cmp	r3, #1
 80037b8:	d002      	beq.n	80037c0 <HAL_I2C_Master_Transmit+0x90>
 80037ba:	f513 3f80 	cmn.w	r3, #65536	@ 0x10000
 80037be:	d104      	bne.n	80037ca <HAL_I2C_Master_Transmit+0x9a>
 80037c0:	680b      	ldr	r3, [r1, #0]
 80037c2:	f443 7380 	orr.w	r3, r3, #256	@ 0x100
 80037c6:	600b      	str	r3, [r1, #0]
 80037c8:	e002      	b.n	80037d0 <HAL_I2C_Master_Transmit+0xa0>
 80037ca:	6b23      	ldr	r3, [r4, #48]	@ 0x30
 80037cc:	2b12      	cmp	r3, #18
 80037ce:	d0f7      	beq.n	80037c0 <HAL_I2C_Master_Transmit+0x90>
 80037d0:	2200      	movs	r2, #0
 80037d2:	463b      	mov	r3, r7
 80037d4:	f04f 1101 	mov.w	r1, #65537	@ 0x10001
 80037d8:	4620      	mov	r0, r4
 80037da:	9600      	str	r6, [sp, #0]
 80037dc:	f7ff fdf7 	bl	80033ce <I2C_WaitOnFlagUntilTimeout>
 80037e0:	6822      	ldr	r2, [r4, #0]
 80037e2:	b140      	cbz	r0, 80037f6 <HAL_I2C_Master_Transmit+0xc6>
 80037e4:	6813      	ldr	r3, [r2, #0]
 80037e6:	05db      	lsls	r3, r3, #23
 80037e8:	d401      	bmi.n	80037ee <HAL_I2C_Master_Transmit+0xbe>
 80037ea:	2501      	movs	r5, #1
 80037ec:	e7b0      	b.n	8003750 <HAL_I2C_Master_Transmit+0x20>
 80037ee:	f44f 7300 	mov.w	r3, #512	@ 0x200
 80037f2:	6423      	str	r3, [r4, #64]	@ 0x40
 80037f4:	e7f9      	b.n	80037ea <HAL_I2C_Master_Transmit+0xba>
 80037f6:	6923      	ldr	r3, [r4, #16]
 80037f8:	f5b3 4f80 	cmp.w	r3, #16384	@ 0x4000
 80037fc:	d121      	bne.n	8003842 <HAL_I2C_Master_Transmit+0x112>
 80037fe:	f005 05fe 	and.w	r5, r5, #254	@ 0xfe
 8003802:	6115      	str	r5, [r2, #16]
 8003804:	4633      	mov	r3, r6
 8003806:	463a      	mov	r2, r7
 8003808:	4620      	mov	r0, r4
 800380a:	4934      	ldr	r1, [pc, #208]	@ (80038dc <HAL_I2C_Master_Transmit+0x1ac>)
 800380c:	f7ff fe1f 	bl	800344e <I2C_WaitOnMasterAddressFlagUntilTimeout>
 8003810:	4605      	mov	r5, r0
 8003812:	2800      	cmp	r0, #0
 8003814:	d1e9      	bne.n	80037ea <HAL_I2C_Master_Transmit+0xba>
 8003816:	6823      	ldr	r3, [r4, #0]
 8003818:	9003      	str	r0, [sp, #12]
 800381a:	695a      	ldr	r2, [r3, #20]
 800381c:	9203      	str	r2, [sp, #12]
 800381e:	699b      	ldr	r3, [r3, #24]
 8003820:	9303      	str	r3, [sp, #12]
 8003822:	9b03      	ldr	r3, [sp, #12]
 8003824:	8d23      	ldrh	r3, [r4, #40]	@ 0x28
 8003826:	b9f3      	cbnz	r3, 8003866 <HAL_I2C_Master_Transmit+0x136>
 8003828:	6821      	ldr	r1, [r4, #0]
 800382a:	680a      	ldr	r2, [r1, #0]
 800382c:	f442 7200 	orr.w	r2, r2, #512	@ 0x200
 8003830:	600a      	str	r2, [r1, #0]
 8003832:	2220      	movs	r2, #32
 8003834:	f884 303c 	strb.w	r3, [r4, #60]	@ 0x3c
 8003838:	f884 203d 	strb.w	r2, [r4, #61]	@ 0x3d
 800383c:	f884 303e 	strb.w	r3, [r4, #62]	@ 0x3e
 8003840:	e786      	b.n	8003750 <HAL_I2C_Master_Transmit+0x20>
 8003842:	11eb      	asrs	r3, r5, #7
 8003844:	f003 0306 	and.w	r3, r3, #6
 8003848:	f043 03f0 	orr.w	r3, r3, #240	@ 0xf0
 800384c:	6113      	str	r3, [r2, #16]
 800384e:	4620      	mov	r0, r4
 8003850:	4633      	mov	r3, r6
 8003852:	463a      	mov	r2, r7
 8003854:	4922      	ldr	r1, [pc, #136]	@ (80038e0 <HAL_I2C_Master_Transmit+0x1b0>)
 8003856:	f7ff fdfa 	bl	800344e <I2C_WaitOnMasterAddressFlagUntilTimeout>
 800385a:	2800      	cmp	r0, #0
 800385c:	d1c5      	bne.n	80037ea <HAL_I2C_Master_Transmit+0xba>
 800385e:	6823      	ldr	r3, [r4, #0]
 8003860:	b2ed      	uxtb	r5, r5
 8003862:	611d      	str	r5, [r3, #16]
 8003864:	e7ce      	b.n	8003804 <HAL_I2C_Master_Transmit+0xd4>
 8003866:	4632      	mov	r2, r6
 8003868:	4639      	mov	r1, r7
 800386a:	4620      	mov	r0, r4
 800386c:	f7ff fe31 	bl	80034d2 <I2C_WaitOnTXEFlagUntilTimeout>
 8003870:	b140      	cbz	r0, 8003884 <HAL_I2C_Master_Transmit+0x154>
 8003872:	6c23      	ldr	r3, [r4, #64]	@ 0x40
 8003874:	2b04      	cmp	r3, #4
 8003876:	d1b8      	bne.n	80037ea <HAL_I2C_Master_Transmit+0xba>
 8003878:	6822      	ldr	r2, [r4, #0]
 800387a:	6813      	ldr	r3, [r2, #0]
 800387c:	f443 7300 	orr.w	r3, r3, #512	@ 0x200
 8003880:	6013      	str	r3, [r2, #0]
 8003882:	e7b2      	b.n	80037ea <HAL_I2C_Master_Transmit+0xba>
 8003884:	6a63      	ldr	r3, [r4, #36]	@ 0x24
 8003886:	6820      	ldr	r0, [r4, #0]
 8003888:	461a      	mov	r2, r3
 800388a:	f812 1b01 	ldrb.w	r1, [r2], #1
 800388e:	6101      	str	r1, [r0, #16]
 8003890:	6262      	str	r2, [r4, #36]	@ 0x24
 8003892:	8d62      	ldrh	r2, [r4, #42]	@ 0x2a
 8003894:	3a01      	subs	r2, #1
 8003896:	b292      	uxth	r2, r2
 8003898:	8562      	strh	r2, [r4, #42]	@ 0x2a
 800389a:	8d22      	ldrh	r2, [r4, #40]	@ 0x28
 800389c:	f8d0 c014 	ldr.w	ip, [r0, #20]
 80038a0:	1e51      	subs	r1, r2, #1
 80038a2:	b289      	uxth	r1, r1
 80038a4:	f01c 0f04 	tst.w	ip, #4
 80038a8:	8521      	strh	r1, [r4, #40]	@ 0x28
 80038aa:	d00a      	beq.n	80038c2 <HAL_I2C_Master_Transmit+0x192>
 80038ac:	b149      	cbz	r1, 80038c2 <HAL_I2C_Master_Transmit+0x192>
 80038ae:	7859      	ldrb	r1, [r3, #1]
 80038b0:	3302      	adds	r3, #2
 80038b2:	6101      	str	r1, [r0, #16]
 80038b4:	6263      	str	r3, [r4, #36]	@ 0x24
 80038b6:	8d63      	ldrh	r3, [r4, #42]	@ 0x2a
 80038b8:	3a02      	subs	r2, #2
 80038ba:	3b01      	subs	r3, #1
 80038bc:	b29b      	uxth	r3, r3
 80038be:	8563      	strh	r3, [r4, #42]	@ 0x2a
 80038c0:	8522      	strh	r2, [r4, #40]	@ 0x28
 80038c2:	4632      	mov	r2, r6
 80038c4:	4639      	mov	r1, r7
 80038c6:	4620      	mov	r0, r4
 80038c8:	f7ff fe2d 	bl	8003526 <I2C_WaitOnBTFFlagUntilTimeout>
 80038cc:	2800      	cmp	r0, #0
 80038ce:	d0a9      	beq.n	8003824 <HAL_I2C_Master_Transmit+0xf4>
 80038d0:	e7cf      	b.n	8003872 <HAL_I2C_Master_Transmit+0x142>
 80038d2:	bf00      	nop
 80038d4:	00100002 	.word	0x00100002
 80038d8:	ffff0000 	.word	0xffff0000
 80038dc:	00010002 	.word	0x00010002
 80038e0:	00010008 	.word	0x00010008

080038e4 <HAL_I2C_Master_Receive>:
 80038e4:	e92d 43f0 	stmdb	sp!, {r4, r5, r6, r7, r8, r9, lr}
 80038e8:	4698      	mov	r8, r3
 80038ea:	2300      	movs	r3, #0
 80038ec:	4604      	mov	r4, r0
 80038ee:	b089      	sub	sp, #36	@ 0x24
 80038f0:	9302      	str	r3, [sp, #8]
 80038f2:	460e      	mov	r6, r1
 80038f4:	4691      	mov	r9, r2
 80038f6:	9f10      	ldr	r7, [sp, #64]	@ 0x40
 80038f8:	f7ff fb84 	bl	8003004 <HAL_GetTick>
 80038fc:	f894 303d 	ldrb.w	r3, [r4, #61]	@ 0x3d
 8003900:	4605      	mov	r5, r0
 8003902:	2b20      	cmp	r3, #32
 8003904:	d004      	beq.n	8003910 <HAL_I2C_Master_Receive+0x2c>
 8003906:	2602      	movs	r6, #2
 8003908:	4630      	mov	r0, r6
 800390a:	b009      	add	sp, #36	@ 0x24
 800390c:	e8bd 83f0 	ldmia.w	sp!, {r4, r5, r6, r7, r8, r9, pc}
 8003910:	9000      	str	r0, [sp, #0]
 8003912:	2319      	movs	r3, #25
 8003914:	2201      	movs	r2, #1
 8003916:	4620      	mov	r0, r4
 8003918:	498f      	ldr	r1, [pc, #572]	@ (8003b58 <HAL_I2C_Master_Receive+0x274>)
 800391a:	f7ff fd58 	bl	80033ce <I2C_WaitOnFlagUntilTimeout>
 800391e:	2800      	cmp	r0, #0
 8003920:	d1f1      	bne.n	8003906 <HAL_I2C_Master_Receive+0x22>
 8003922:	f894 303c 	ldrb.w	r3, [r4, #60]	@ 0x3c
 8003926:	2b01      	cmp	r3, #1
 8003928:	d0ed      	beq.n	8003906 <HAL_I2C_Master_Receive+0x22>
 800392a:	2301      	movs	r3, #1
 800392c:	6821      	ldr	r1, [r4, #0]
 800392e:	f884 303c 	strb.w	r3, [r4, #60]	@ 0x3c
 8003932:	680b      	ldr	r3, [r1, #0]
 8003934:	07db      	lsls	r3, r3, #31
 8003936:	bf5e      	ittt	pl
 8003938:	680b      	ldrpl	r3, [r1, #0]
 800393a:	f043 0301 	orrpl.w	r3, r3, #1
 800393e:	600b      	strpl	r3, [r1, #0]
 8003940:	680b      	ldr	r3, [r1, #0]
 8003942:	f423 6300 	bic.w	r3, r3, #2048	@ 0x800
 8003946:	600b      	str	r3, [r1, #0]
 8003948:	2322      	movs	r3, #34	@ 0x22
 800394a:	f884 303d 	strb.w	r3, [r4, #61]	@ 0x3d
 800394e:	2310      	movs	r3, #16
 8003950:	f884 303e 	strb.w	r3, [r4, #62]	@ 0x3e
 8003954:	2300      	movs	r3, #0
 8003956:	6423      	str	r3, [r4, #64]	@ 0x40
 8003958:	f8a4 802a 	strh.w	r8, [r4, #42]	@ 0x2a
 800395c:	8d63      	ldrh	r3, [r4, #42]	@ 0x2a
 800395e:	f8c4 9024 	str.w	r9, [r4, #36]	@ 0x24
 8003962:	8523      	strh	r3, [r4, #40]	@ 0x28
 8003964:	4b7d      	ldr	r3, [pc, #500]	@ (8003b5c <HAL_I2C_Master_Receive+0x278>)
 8003966:	62e3      	str	r3, [r4, #44]	@ 0x2c
 8003968:	6ae3      	ldr	r3, [r4, #44]	@ 0x2c
 800396a:	680a      	ldr	r2, [r1, #0]
 800396c:	2b08      	cmp	r3, #8
 800396e:	f442 6280 	orr.w	r2, r2, #1024	@ 0x400
 8003972:	600a      	str	r2, [r1, #0]
 8003974:	d004      	beq.n	8003980 <HAL_I2C_Master_Receive+0x9c>
 8003976:	2b01      	cmp	r3, #1
 8003978:	d002      	beq.n	8003980 <HAL_I2C_Master_Receive+0x9c>
 800397a:	f513 3f80 	cmn.w	r3, #65536	@ 0x10000
 800397e:	d104      	bne.n	800398a <HAL_I2C_Master_Receive+0xa6>
 8003980:	680b      	ldr	r3, [r1, #0]
 8003982:	f443 7380 	orr.w	r3, r3, #256	@ 0x100
 8003986:	600b      	str	r3, [r1, #0]
 8003988:	e002      	b.n	8003990 <HAL_I2C_Master_Receive+0xac>
 800398a:	6b23      	ldr	r3, [r4, #48]	@ 0x30
 800398c:	2b11      	cmp	r3, #17
 800398e:	d0f7      	beq.n	8003980 <HAL_I2C_Master_Receive+0x9c>
 8003990:	463b      	mov	r3, r7
 8003992:	2200      	movs	r2, #0
 8003994:	f04f 1101 	mov.w	r1, #65537	@ 0x10001
 8003998:	4620      	mov	r0, r4
 800399a:	9500      	str	r5, [sp, #0]
 800399c:	f7ff fd17 	bl	80033ce <I2C_WaitOnFlagUntilTimeout>
 80039a0:	6823      	ldr	r3, [r4, #0]
 80039a2:	b138      	cbz	r0, 80039b4 <HAL_I2C_Master_Receive+0xd0>
 80039a4:	681b      	ldr	r3, [r3, #0]
 80039a6:	05d8      	lsls	r0, r3, #23
 80039a8:	bf44      	itt	mi
 80039aa:	f44f 7300 	movmi.w	r3, #512	@ 0x200
 80039ae:	6423      	strmi	r3, [r4, #64]	@ 0x40
 80039b0:	2601      	movs	r6, #1
 80039b2:	e7a9      	b.n	8003908 <HAL_I2C_Master_Receive+0x24>
 80039b4:	6922      	ldr	r2, [r4, #16]
 80039b6:	f5b2 4f80 	cmp.w	r2, #16384	@ 0x4000
 80039ba:	d129      	bne.n	8003a10 <HAL_I2C_Master_Receive+0x12c>
 80039bc:	f046 0601 	orr.w	r6, r6, #1
 80039c0:	b2f6      	uxtb	r6, r6
 80039c2:	611e      	str	r6, [r3, #16]
 80039c4:	462b      	mov	r3, r5
 80039c6:	463a      	mov	r2, r7
 80039c8:	4620      	mov	r0, r4
 80039ca:	4965      	ldr	r1, [pc, #404]	@ (8003b60 <HAL_I2C_Master_Receive+0x27c>)
 80039cc:	f7ff fd3f 	bl	800344e <I2C_WaitOnMasterAddressFlagUntilTimeout>
 80039d0:	4606      	mov	r6, r0
 80039d2:	2800      	cmp	r0, #0
 80039d4:	d1ec      	bne.n	80039b0 <HAL_I2C_Master_Receive+0xcc>
 80039d6:	8d22      	ldrh	r2, [r4, #40]	@ 0x28
 80039d8:	6823      	ldr	r3, [r4, #0]
 80039da:	2a00      	cmp	r2, #0
 80039dc:	d14d      	bne.n	8003a7a <HAL_I2C_Master_Receive+0x196>
 80039de:	9003      	str	r0, [sp, #12]
 80039e0:	695a      	ldr	r2, [r3, #20]
 80039e2:	9203      	str	r2, [sp, #12]
 80039e4:	699a      	ldr	r2, [r3, #24]
 80039e6:	9203      	str	r2, [sp, #12]
 80039e8:	9a03      	ldr	r2, [sp, #12]
 80039ea:	681a      	ldr	r2, [r3, #0]
 80039ec:	f442 7200 	orr.w	r2, r2, #512	@ 0x200
 80039f0:	601a      	str	r2, [r3, #0]
 80039f2:	f8df 8170 	ldr.w	r8, [pc, #368]	@ 8003b64 <HAL_I2C_Master_Receive+0x280>
 80039f6:	f8df 9170 	ldr.w	r9, [pc, #368]	@ 8003b68 <HAL_I2C_Master_Receive+0x284>
 80039fa:	8d23      	ldrh	r3, [r4, #40]	@ 0x28
 80039fc:	2b00      	cmp	r3, #0
 80039fe:	d16c      	bne.n	8003ada <HAL_I2C_Master_Receive+0x1f6>
 8003a00:	2220      	movs	r2, #32
 8003a02:	f884 303c 	strb.w	r3, [r4, #60]	@ 0x3c
 8003a06:	f884 203d 	strb.w	r2, [r4, #61]	@ 0x3d
 8003a0a:	f884 303e 	strb.w	r3, [r4, #62]	@ 0x3e
 8003a0e:	e77b      	b.n	8003908 <HAL_I2C_Master_Receive+0x24>
 8003a10:	ea4f 18e6 	mov.w	r8, r6, asr #7
 8003a14:	f008 0806 	and.w	r8, r8, #6
 8003a18:	f048 02f0 	orr.w	r2, r8, #240	@ 0xf0
 8003a1c:	611a      	str	r2, [r3, #16]
 8003a1e:	4620      	mov	r0, r4
 8003a20:	462b      	mov	r3, r5
 8003a22:	463a      	mov	r2, r7
 8003a24:	4951      	ldr	r1, [pc, #324]	@ (8003b6c <HAL_I2C_Master_Receive+0x288>)
 8003a26:	f7ff fd12 	bl	800344e <I2C_WaitOnMasterAddressFlagUntilTimeout>
 8003a2a:	2800      	cmp	r0, #0
 8003a2c:	d1c0      	bne.n	80039b0 <HAL_I2C_Master_Receive+0xcc>
 8003a2e:	6823      	ldr	r3, [r4, #0]
 8003a30:	b2f6      	uxtb	r6, r6
 8003a32:	463a      	mov	r2, r7
 8003a34:	611e      	str	r6, [r3, #16]
 8003a36:	4620      	mov	r0, r4
 8003a38:	462b      	mov	r3, r5
 8003a3a:	4949      	ldr	r1, [pc, #292]	@ (8003b60 <HAL_I2C_Master_Receive+0x27c>)
 8003a3c:	f7ff fd07 	bl	800344e <I2C_WaitOnMasterAddressFlagUntilTimeout>
 8003a40:	4602      	mov	r2, r0
 8003a42:	2800      	cmp	r0, #0
 8003a44:	d1b4      	bne.n	80039b0 <HAL_I2C_Master_Receive+0xcc>
 8003a46:	6823      	ldr	r3, [r4, #0]
 8003a48:	9007      	str	r0, [sp, #28]
 8003a4a:	6959      	ldr	r1, [r3, #20]
 8003a4c:	4620      	mov	r0, r4
 8003a4e:	9107      	str	r1, [sp, #28]
 8003a50:	6999      	ldr	r1, [r3, #24]
 8003a52:	9107      	str	r1, [sp, #28]
 8003a54:	9907      	ldr	r1, [sp, #28]
 8003a56:	6819      	ldr	r1, [r3, #0]
 8003a58:	f441 7180 	orr.w	r1, r1, #256	@ 0x100
 8003a5c:	6019      	str	r1, [r3, #0]
 8003a5e:	463b      	mov	r3, r7
 8003a60:	f04f 1101 	mov.w	r1, #65537	@ 0x10001
 8003a64:	9500      	str	r5, [sp, #0]
 8003a66:	f7ff fcb2 	bl	80033ce <I2C_WaitOnFlagUntilTimeout>
 8003a6a:	6822      	ldr	r2, [r4, #0]
 8003a6c:	b108      	cbz	r0, 8003a72 <HAL_I2C_Master_Receive+0x18e>
 8003a6e:	6813      	ldr	r3, [r2, #0]
 8003a70:	e799      	b.n	80039a6 <HAL_I2C_Master_Receive+0xc2>
 8003a72:	f048 03f1 	orr.w	r3, r8, #241	@ 0xf1
 8003a76:	6113      	str	r3, [r2, #16]
 8003a78:	e7a4      	b.n	80039c4 <HAL_I2C_Master_Receive+0xe0>
 8003a7a:	2a01      	cmp	r2, #1
 8003a7c:	d111      	bne.n	8003aa2 <HAL_I2C_Master_Receive+0x1be>
 8003a7e:	681a      	ldr	r2, [r3, #0]
 8003a80:	f422 6280 	bic.w	r2, r2, #1024	@ 0x400
 8003a84:	601a      	str	r2, [r3, #0]
 8003a86:	b672      	cpsid	i
 8003a88:	6823      	ldr	r3, [r4, #0]
 8003a8a:	9004      	str	r0, [sp, #16]
 8003a8c:	695a      	ldr	r2, [r3, #20]
 8003a8e:	9204      	str	r2, [sp, #16]
 8003a90:	699a      	ldr	r2, [r3, #24]
 8003a92:	9204      	str	r2, [sp, #16]
 8003a94:	9a04      	ldr	r2, [sp, #16]
 8003a96:	681a      	ldr	r2, [r3, #0]
 8003a98:	f442 7200 	orr.w	r2, r2, #512	@ 0x200
 8003a9c:	601a      	str	r2, [r3, #0]
 8003a9e:	b662      	cpsie	i
 8003aa0:	e7a7      	b.n	80039f2 <HAL_I2C_Master_Receive+0x10e>
 8003aa2:	2a02      	cmp	r2, #2
 8003aa4:	681a      	ldr	r2, [r3, #0]
 8003aa6:	d10e      	bne.n	8003ac6 <HAL_I2C_Master_Receive+0x1e2>
 8003aa8:	f442 6200 	orr.w	r2, r2, #2048	@ 0x800
 8003aac:	601a      	str	r2, [r3, #0]
 8003aae:	b672      	cpsid	i
 8003ab0:	6823      	ldr	r3, [r4, #0]
 8003ab2:	9005      	str	r0, [sp, #20]
 8003ab4:	695a      	ldr	r2, [r3, #20]
 8003ab6:	9205      	str	r2, [sp, #20]
 8003ab8:	699a      	ldr	r2, [r3, #24]
 8003aba:	9205      	str	r2, [sp, #20]
 8003abc:	9a05      	ldr	r2, [sp, #20]
 8003abe:	681a      	ldr	r2, [r3, #0]
 8003ac0:	f422 6280 	bic.w	r2, r2, #1024	@ 0x400
 8003ac4:	e7ea      	b.n	8003a9c <HAL_I2C_Master_Receive+0x1b8>
 8003ac6:	f442 6280 	orr.w	r2, r2, #1024	@ 0x400
 8003aca:	601a      	str	r2, [r3, #0]
 8003acc:	9006      	str	r0, [sp, #24]
 8003ace:	695a      	ldr	r2, [r3, #20]
 8003ad0:	9206      	str	r2, [sp, #24]
 8003ad2:	699b      	ldr	r3, [r3, #24]
 8003ad4:	9306      	str	r3, [sp, #24]
 8003ad6:	9b06      	ldr	r3, [sp, #24]
 8003ad8:	e78b      	b.n	80039f2 <HAL_I2C_Master_Receive+0x10e>
 8003ada:	2b03      	cmp	r3, #3
 8003adc:	f200 8088 	bhi.w	8003bf0 <HAL_I2C_Master_Receive+0x30c>
 8003ae0:	2b01      	cmp	r3, #1
 8003ae2:	d116      	bne.n	8003b12 <HAL_I2C_Master_Receive+0x22e>
 8003ae4:	462a      	mov	r2, r5
 8003ae6:	4639      	mov	r1, r7
 8003ae8:	4620      	mov	r0, r4
 8003aea:	f7ff fd46 	bl	800357a <I2C_WaitOnRXNEFlagUntilTimeout>
 8003aee:	2800      	cmp	r0, #0
 8003af0:	f47f af5e 	bne.w	80039b0 <HAL_I2C_Master_Receive+0xcc>
 8003af4:	6823      	ldr	r3, [r4, #0]
 8003af6:	691a      	ldr	r2, [r3, #16]
 8003af8:	6a63      	ldr	r3, [r4, #36]	@ 0x24
 8003afa:	701a      	strb	r2, [r3, #0]
 8003afc:	6a63      	ldr	r3, [r4, #36]	@ 0x24
 8003afe:	3301      	adds	r3, #1
 8003b00:	6263      	str	r3, [r4, #36]	@ 0x24
 8003b02:	8d23      	ldrh	r3, [r4, #40]	@ 0x28
 8003b04:	3b01      	subs	r3, #1
 8003b06:	8523      	strh	r3, [r4, #40]	@ 0x28
 8003b08:	8d63      	ldrh	r3, [r4, #42]	@ 0x2a
 8003b0a:	3b01      	subs	r3, #1
 8003b0c:	b29b      	uxth	r3, r3
 8003b0e:	8563      	strh	r3, [r4, #42]	@ 0x2a
 8003b10:	e773      	b.n	80039fa <HAL_I2C_Master_Receive+0x116>
 8003b12:	2b02      	cmp	r3, #2
 8003b14:	f04f 0200 	mov.w	r2, #0
 8003b18:	463b      	mov	r3, r7
 8003b1a:	4641      	mov	r1, r8
 8003b1c:	4620      	mov	r0, r4
 8003b1e:	9500      	str	r5, [sp, #0]
 8003b20:	d126      	bne.n	8003b70 <HAL_I2C_Master_Receive+0x28c>
 8003b22:	f7ff fc54 	bl	80033ce <I2C_WaitOnFlagUntilTimeout>
 8003b26:	2800      	cmp	r0, #0
 8003b28:	f47f af42 	bne.w	80039b0 <HAL_I2C_Master_Receive+0xcc>
 8003b2c:	b672      	cpsid	i
 8003b2e:	6823      	ldr	r3, [r4, #0]
 8003b30:	681a      	ldr	r2, [r3, #0]
 8003b32:	f442 7200 	orr.w	r2, r2, #512	@ 0x200
 8003b36:	601a      	str	r2, [r3, #0]
 8003b38:	691a      	ldr	r2, [r3, #16]
 8003b3a:	6a63      	ldr	r3, [r4, #36]	@ 0x24
 8003b3c:	701a      	strb	r2, [r3, #0]
 8003b3e:	6a63      	ldr	r3, [r4, #36]	@ 0x24
 8003b40:	3301      	adds	r3, #1
 8003b42:	6263      	str	r3, [r4, #36]	@ 0x24
 8003b44:	8d23      	ldrh	r3, [r4, #40]	@ 0x28
 8003b46:	3b01      	subs	r3, #1
 8003b48:	8523      	strh	r3, [r4, #40]	@ 0x28
 8003b4a:	8d63      	ldrh	r3, [r4, #42]	@ 0x2a
 8003b4c:	3b01      	subs	r3, #1
 8003b4e:	b29b      	uxth	r3, r3
 8003b50:	8563      	strh	r3, [r4, #42]	@ 0x2a
 8003b52:	b662      	cpsie	i
 8003b54:	e7ce      	b.n	8003af4 <HAL_I2C_Master_Receive+0x210>
 8003b56:	bf00      	nop
 8003b58:	00100002 	.word	0x00100002
 8003b5c:	ffff0000 	.word	0xffff0000
 8003b60:	00010002 	.word	0x00010002
 8003b64:	00010004 	.word	0x00010004
 8003b68:	2000000c 	.word	0x2000000c
 8003b6c:	00010008 	.word	0x00010008
 8003b70:	f7ff fc2d 	bl	80033ce <I2C_WaitOnFlagUntilTimeout>
 8003b74:	2800      	cmp	r0, #0
 8003b76:	f47f af1b 	bne.w	80039b0 <HAL_I2C_Master_Receive+0xcc>
 8003b7a:	6822      	ldr	r2, [r4, #0]
 8003b7c:	6813      	ldr	r3, [r2, #0]
 8003b7e:	f423 6380 	bic.w	r3, r3, #1024	@ 0x400
 8003b82:	6013      	str	r3, [r2, #0]
 8003b84:	b672      	cpsid	i
 8003b86:	f246 11a8 	movw	r1, #25000	@ 0x61a8
 8003b8a:	6823      	ldr	r3, [r4, #0]
 8003b8c:	691a      	ldr	r2, [r3, #16]
 8003b8e:	6a63      	ldr	r3, [r4, #36]	@ 0x24
 8003b90:	701a      	strb	r2, [r3, #0]
 8003b92:	6a62      	ldr	r2, [r4, #36]	@ 0x24
 8003b94:	1c53      	adds	r3, r2, #1
 8003b96:	6263      	str	r3, [r4, #36]	@ 0x24
 8003b98:	8d23      	ldrh	r3, [r4, #40]	@ 0x28
 8003b9a:	3b01      	subs	r3, #1
 8003b9c:	8523      	strh	r3, [r4, #40]	@ 0x28
 8003b9e:	8d63      	ldrh	r3, [r4, #42]	@ 0x2a
 8003ba0:	3b01      	subs	r3, #1
 8003ba2:	b29b      	uxth	r3, r3
 8003ba4:	8563      	strh	r3, [r4, #42]	@ 0x2a
 8003ba6:	f8d9 3000 	ldr.w	r3, [r9]
 8003baa:	fbb3 f3f1 	udiv	r3, r3, r1
 8003bae:	2123      	movs	r1, #35	@ 0x23
 8003bb0:	434b      	muls	r3, r1
 8003bb2:	9302      	str	r3, [sp, #8]
 8003bb4:	9b02      	ldr	r3, [sp, #8]
 8003bb6:	3b01      	subs	r3, #1
 8003bb8:	9302      	str	r3, [sp, #8]
 8003bba:	9b02      	ldr	r3, [sp, #8]
 8003bbc:	b96b      	cbnz	r3, 8003bda <HAL_I2C_Master_Receive+0x2f6>
 8003bbe:	2220      	movs	r2, #32
 8003bc0:	6323      	str	r3, [r4, #48]	@ 0x30
 8003bc2:	f884 203d 	strb.w	r2, [r4, #61]	@ 0x3d
 8003bc6:	f884 303e 	strb.w	r3, [r4, #62]	@ 0x3e
 8003bca:	6c22      	ldr	r2, [r4, #64]	@ 0x40
 8003bcc:	f042 0220 	orr.w	r2, r2, #32
 8003bd0:	6422      	str	r2, [r4, #64]	@ 0x40
 8003bd2:	b662      	cpsie	i
 8003bd4:	f884 303c 	strb.w	r3, [r4, #60]	@ 0x3c
 8003bd8:	e6ea      	b.n	80039b0 <HAL_I2C_Master_Receive+0xcc>
 8003bda:	6823      	ldr	r3, [r4, #0]
 8003bdc:	6959      	ldr	r1, [r3, #20]
 8003bde:	0749      	lsls	r1, r1, #29
 8003be0:	d5e8      	bpl.n	8003bb4 <HAL_I2C_Master_Receive+0x2d0>
 8003be2:	6819      	ldr	r1, [r3, #0]
 8003be4:	f441 7100 	orr.w	r1, r1, #512	@ 0x200
 8003be8:	6019      	str	r1, [r3, #0]
 8003bea:	691b      	ldr	r3, [r3, #16]
 8003bec:	7053      	strb	r3, [r2, #1]
 8003bee:	e7a6      	b.n	8003b3e <HAL_I2C_Master_Receive+0x25a>
 8003bf0:	462a      	mov	r2, r5
 8003bf2:	4639      	mov	r1, r7
 8003bf4:	4620      	mov	r0, r4
 8003bf6:	f7ff fcc0 	bl	800357a <I2C_WaitOnRXNEFlagUntilTimeout>
 8003bfa:	2800      	cmp	r0, #0
 8003bfc:	f47f aed8 	bne.w	80039b0 <HAL_I2C_Master_Receive+0xcc>
 8003c00:	6823      	ldr	r3, [r4, #0]
 8003c02:	691a      	ldr	r2, [r3, #16]
 8003c04:	6a63      	ldr	r3, [r4, #36]	@ 0x24
 8003c06:	701a      	strb	r2, [r3, #0]
 8003c08:	8d62      	ldrh	r2, [r4, #42]	@ 0x2a
 8003c0a:	6a61      	ldr	r1, [r4, #36]	@ 0x24
 8003c0c:	3a01      	subs	r2, #1
 8003c0e:	b292      	uxth	r2, r2
 8003c10:	1c4b      	adds	r3, r1, #1
 8003c12:	8562      	strh	r2, [r4, #42]	@ 0x2a
 8003c14:	6822      	ldr	r2, [r4, #0]
 8003c16:	6263      	str	r3, [r4, #36]	@ 0x24
 8003c18:	8d23      	ldrh	r3, [r4, #40]	@ 0x28
 8003c1a:	6950      	ldr	r0, [r2, #20]
 8003c1c:	3b01      	subs	r3, #1
 8003c1e:	b29b      	uxth	r3, r3
 8003c20:	0740      	lsls	r0, r0, #29
 8003c22:	8523      	strh	r3, [r4, #40]	@ 0x28
 8003c24:	f57f aee9 	bpl.w	80039fa <HAL_I2C_Master_Receive+0x116>
 8003c28:	2b03      	cmp	r3, #3
 8003c2a:	bf02      	ittt	eq
 8003c2c:	6813      	ldreq	r3, [r2, #0]
 8003c2e:	f423 6380 	biceq.w	r3, r3, #1024	@ 0x400
 8003c32:	6013      	streq	r3, [r2, #0]
 8003c34:	6913      	ldr	r3, [r2, #16]
 8003c36:	704b      	strb	r3, [r1, #1]
 8003c38:	e760      	b.n	8003afc <HAL_I2C_Master_Receive+0x218>
 8003c3a:	bf00      	nop

08003c3c <HAL_PCD_SetAddress>:
 8003c3c:	b510      	push	{r4, lr}
 8003c3e:	f890 2290 	ldrb.w	r2, [r0, #656]	@ 0x290
 8003c42:	4604      	mov	r4, r0
 8003c44:	2a01      	cmp	r2, #1
 8003c46:	d00a      	beq.n	8003c5e <HAL_PCD_SetAddress+0x22>
 8003c48:	2201      	movs	r2, #1
 8003c4a:	7341      	strb	r1, [r0, #13]
 8003c4c:	f880 2290 	strb.w	r2, [r0, #656]	@ 0x290
 8003c50:	6800      	ldr	r0, [r0, #0]
 8003c52:	f002 f87a 	bl	8005d4a <USB_SetDevAddress>
 8003c56:	2000      	movs	r0, #0
 8003c58:	f884 0290 	strb.w	r0, [r4, #656]	@ 0x290
 8003c5c:	bd10      	pop	{r4, pc}
 8003c5e:	2002      	movs	r0, #2
 8003c60:	e7fc      	b.n	8003c5c <HAL_PCD_SetAddress+0x20>
	...

08003c64 <HAL_PCD_IRQHandler>:
 8003c64:	e92d 4ff0 	stmdb	sp!, {r4, r5, r6, r7, r8, r9, sl, fp, lr}
 8003c68:	4604      	mov	r4, r0
 8003c6a:	b085      	sub	sp, #20
 8003c6c:	6800      	ldr	r0, [r0, #0]
 8003c6e:	f002 f872 	bl	8005d56 <USB_ReadInterrupts>
 8003c72:	f410 4500 	ands.w	r5, r0, #32768	@ 0x8000
 8003c76:	f000 844f 	beq.w	8004518 <HAL_PCD_IRQHandler+0x8b4>
 8003c7a:	2528      	movs	r5, #40	@ 0x28
 8003c7c:	4ec6      	ldr	r6, [pc, #792]	@ (8003f98 <HAL_PCD_IRQHandler+0x334>)
 8003c7e:	6820      	ldr	r0, [r4, #0]
 8003c80:	f8b0 3044 	ldrh.w	r3, [r0, #68]	@ 0x44
 8003c84:	041f      	lsls	r7, r3, #16
 8003c86:	d402      	bmi.n	8003c8e <HAL_PCD_IRQHandler+0x2a>
 8003c88:	b005      	add	sp, #20
 8003c8a:	e8bd 8ff0 	ldmia.w	sp!, {r4, r5, r6, r7, r8, r9, sl, fp, pc}
 8003c8e:	f8b0 3044 	ldrh.w	r3, [r0, #68]	@ 0x44
 8003c92:	f013 070f 	ands.w	r7, r3, #15
 8003c96:	b299      	uxth	r1, r3
 8003c98:	f040 80c0 	bne.w	8003e1c <HAL_PCD_IRQHandler+0x1b8>
 8003c9c:	f011 0110 	ands.w	r1, r1, #16
 8003ca0:	d126      	bne.n	8003cf0 <HAL_PCD_IRQHandler+0x8c>
 8003ca2:	8803      	ldrh	r3, [r0, #0]
 8003ca4:	b29b      	uxth	r3, r3
 8003ca6:	4033      	ands	r3, r6
 8003ca8:	f443 4300 	orr.w	r3, r3, #32768	@ 0x8000
 8003cac:	8003      	strh	r3, [r0, #0]
 8003cae:	f8b0 3050 	ldrh.w	r3, [r0, #80]	@ 0x50
 8003cb2:	7c22      	ldrb	r2, [r4, #16]
 8003cb4:	b29b      	uxth	r3, r3
 8003cb6:	eb03 03c2 	add.w	r3, r3, r2, lsl #3
 8003cba:	eb00 0343 	add.w	r3, r0, r3, lsl #1
 8003cbe:	f8b3 3404 	ldrh.w	r3, [r3, #1028]	@ 0x404
 8003cc2:	6a62      	ldr	r2, [r4, #36]	@ 0x24
 8003cc4:	f3c3 0309 	ubfx	r3, r3, #0, #10
 8003cc8:	441a      	add	r2, r3
 8003cca:	62e3      	str	r3, [r4, #44]	@ 0x2c
 8003ccc:	4620      	mov	r0, r4
 8003cce:	6262      	str	r2, [r4, #36]	@ 0x24
 8003cd0:	f003 fc49 	bl	8007566 <HAL_PCD_DataInStageCallback>
 8003cd4:	7b63      	ldrb	r3, [r4, #13]
 8003cd6:	2b00      	cmp	r3, #0
 8003cd8:	d0d1      	beq.n	8003c7e <HAL_PCD_IRQHandler+0x1a>
 8003cda:	6aa2      	ldr	r2, [r4, #40]	@ 0x28
 8003cdc:	6821      	ldr	r1, [r4, #0]
 8003cde:	2a00      	cmp	r2, #0
 8003ce0:	d1cd      	bne.n	8003c7e <HAL_PCD_IRQHandler+0x1a>
 8003ce2:	7b63      	ldrb	r3, [r4, #13]
 8003ce4:	f043 0380 	orr.w	r3, r3, #128	@ 0x80
 8003ce8:	f8a1 304c 	strh.w	r3, [r1, #76]	@ 0x4c
 8003cec:	7362      	strb	r2, [r4, #13]
 8003cee:	e7c6      	b.n	8003c7e <HAL_PCD_IRQHandler+0x1a>
 8003cf0:	8807      	ldrh	r7, [r0, #0]
 8003cf2:	b2bb      	uxth	r3, r7
 8003cf4:	f417 6700 	ands.w	r7, r7, #2048	@ 0x800
 8003cf8:	d021      	beq.n	8003d3e <HAL_PCD_IRQHandler+0xda>
 8003cfa:	f8b0 3050 	ldrh.w	r3, [r0, #80]	@ 0x50
 8003cfe:	f894 2150 	ldrb.w	r2, [r4, #336]	@ 0x150
 8003d02:	b29b      	uxth	r3, r3
 8003d04:	eb03 03c2 	add.w	r3, r3, r2, lsl #3
 8003d08:	eb00 0343 	add.w	r3, r0, r3, lsl #1
 8003d0c:	f8b3 340c 	ldrh.w	r3, [r3, #1036]	@ 0x40c
 8003d10:	f8b4 2156 	ldrh.w	r2, [r4, #342]	@ 0x156
 8003d14:	f3c3 0309 	ubfx	r3, r3, #0, #10
 8003d18:	f8c4 316c 	str.w	r3, [r4, #364]	@ 0x16c
 8003d1c:	f504 7126 	add.w	r1, r4, #664	@ 0x298
 8003d20:	f002 fa64 	bl	80061ec <USB_ReadPMA>
 8003d24:	6822      	ldr	r2, [r4, #0]
 8003d26:	4620      	mov	r0, r4
 8003d28:	8813      	ldrh	r3, [r2, #0]
 8003d2a:	f023 0370 	bic.w	r3, r3, #112	@ 0x70
 8003d2e:	051b      	lsls	r3, r3, #20
 8003d30:	0d1b      	lsrs	r3, r3, #20
 8003d32:	f043 0380 	orr.w	r3, r3, #128	@ 0x80
 8003d36:	8013      	strh	r3, [r2, #0]
 8003d38:	f003 fc06 	bl	8007548 <HAL_PCD_SetupStageCallback>
 8003d3c:	e79f      	b.n	8003c7e <HAL_PCD_IRQHandler+0x1a>
 8003d3e:	0419      	lsls	r1, r3, #16
 8003d40:	d59d      	bpl.n	8003c7e <HAL_PCD_IRQHandler+0x1a>
 8003d42:	8803      	ldrh	r3, [r0, #0]
 8003d44:	f023 0370 	bic.w	r3, r3, #112	@ 0x70
 8003d48:	051b      	lsls	r3, r3, #20
 8003d4a:	0d1b      	lsrs	r3, r3, #20
 8003d4c:	f043 0380 	orr.w	r3, r3, #128	@ 0x80
 8003d50:	8003      	strh	r3, [r0, #0]
 8003d52:	f8b0 3050 	ldrh.w	r3, [r0, #80]	@ 0x50
 8003d56:	f894 2150 	ldrb.w	r2, [r4, #336]	@ 0x150
 8003d5a:	b29b      	uxth	r3, r3
 8003d5c:	eb03 03c2 	add.w	r3, r3, r2, lsl #3
 8003d60:	eb00 0343 	add.w	r3, r0, r3, lsl #1
 8003d64:	f8b3 340c 	ldrh.w	r3, [r3, #1036]	@ 0x40c
 8003d68:	f3c3 0309 	ubfx	r3, r3, #0, #10
 8003d6c:	f8c4 316c 	str.w	r3, [r4, #364]	@ 0x16c
 8003d70:	b18b      	cbz	r3, 8003d96 <HAL_PCD_IRQHandler+0x132>
 8003d72:	f8d4 1164 	ldr.w	r1, [r4, #356]	@ 0x164
 8003d76:	b171      	cbz	r1, 8003d96 <HAL_PCD_IRQHandler+0x132>
 8003d78:	f8b4 2156 	ldrh.w	r2, [r4, #342]	@ 0x156
 8003d7c:	f002 fa36 	bl	80061ec <USB_ReadPMA>
 8003d80:	f8d4 3164 	ldr.w	r3, [r4, #356]	@ 0x164
 8003d84:	f8d4 216c 	ldr.w	r2, [r4, #364]	@ 0x16c
 8003d88:	4639      	mov	r1, r7
 8003d8a:	4413      	add	r3, r2
 8003d8c:	4620      	mov	r0, r4
 8003d8e:	f8c4 3164 	str.w	r3, [r4, #356]	@ 0x164
 8003d92:	f003 fbdf 	bl	8007554 <HAL_PCD_DataOutStageCallback>
 8003d96:	6821      	ldr	r1, [r4, #0]
 8003d98:	880a      	ldrh	r2, [r1, #0]
 8003d9a:	b293      	uxth	r3, r2
 8003d9c:	0512      	lsls	r2, r2, #20
 8003d9e:	f53f af6e 	bmi.w	8003c7e <HAL_PCD_IRQHandler+0x1a>
 8003da2:	f403 5340 	and.w	r3, r3, #12288	@ 0x3000
 8003da6:	f5b3 5f40 	cmp.w	r3, #12288	@ 0x3000
 8003daa:	f43f af68 	beq.w	8003c7e <HAL_PCD_IRQHandler+0x1a>
 8003dae:	f8b1 2050 	ldrh.w	r2, [r1, #80]	@ 0x50
 8003db2:	f201 400c 	addw	r0, r1, #1036	@ 0x40c
 8003db6:	b292      	uxth	r2, r2
 8003db8:	5a83      	ldrh	r3, [r0, r2]
 8003dba:	f3c3 0309 	ubfx	r3, r3, #0, #10
 8003dbe:	5283      	strh	r3, [r0, r2]
 8003dc0:	f8d4 3160 	ldr.w	r3, [r4, #352]	@ 0x160
 8003dc4:	2b3e      	cmp	r3, #62	@ 0x3e
 8003dc6:	d91d      	bls.n	8003e04 <HAL_PCD_IRQHandler+0x1a0>
 8003dc8:	095f      	lsrs	r7, r3, #5
 8003dca:	06db      	lsls	r3, r3, #27
 8003dcc:	5a83      	ldrh	r3, [r0, r2]
 8003dce:	bf08      	it	eq
 8003dd0:	f107 37ff 	addeq.w	r7, r7, #4294967295
 8003dd4:	b29b      	uxth	r3, r3
 8003dd6:	ea43 2387 	orr.w	r3, r3, r7, lsl #10
 8003dda:	ea6f 4343 	mvn.w	r3, r3, lsl #17
 8003dde:	ea6f 4353 	mvn.w	r3, r3, lsr #17
 8003de2:	b29b      	uxth	r3, r3
 8003de4:	5283      	strh	r3, [r0, r2]
 8003de6:	880b      	ldrh	r3, [r1, #0]
 8003de8:	f423 4380 	bic.w	r3, r3, #16384	@ 0x4000
 8003dec:	f023 0370 	bic.w	r3, r3, #112	@ 0x70
 8003df0:	041b      	lsls	r3, r3, #16
 8003df2:	0c1b      	lsrs	r3, r3, #16
 8003df4:	f483 5340 	eor.w	r3, r3, #12288	@ 0x3000
 8003df8:	f443 4300 	orr.w	r3, r3, #32768	@ 0x8000
 8003dfc:	f043 0380 	orr.w	r3, r3, #128	@ 0x80
 8003e00:	800b      	strh	r3, [r1, #0]
 8003e02:	e73c      	b.n	8003c7e <HAL_PCD_IRQHandler+0x1a>
 8003e04:	b90b      	cbnz	r3, 8003e0a <HAL_PCD_IRQHandler+0x1a6>
 8003e06:	5a83      	ldrh	r3, [r0, r2]
 8003e08:	e7e7      	b.n	8003dda <HAL_PCD_IRQHandler+0x176>
 8003e0a:	085f      	lsrs	r7, r3, #1
 8003e0c:	07db      	lsls	r3, r3, #31
 8003e0e:	5a83      	ldrh	r3, [r0, r2]
 8003e10:	bf48      	it	mi
 8003e12:	3701      	addmi	r7, #1
 8003e14:	b29b      	uxth	r3, r3
 8003e16:	ea43 2387 	orr.w	r3, r3, r7, lsl #10
 8003e1a:	e7e2      	b.n	8003de2 <HAL_PCD_IRQHandler+0x17e>
 8003e1c:	f830 3027 	ldrh.w	r3, [r0, r7, lsl #2]
 8003e20:	0419      	lsls	r1, r3, #16
 8003e22:	fa1f f883 	uxth.w	r8, r3
 8003e26:	f140 80f6 	bpl.w	8004016 <HAL_PCD_IRQHandler+0x3b2>
 8003e2a:	f830 3027 	ldrh.w	r3, [r0, r7, lsl #2]
 8003e2e:	fb05 4107 	mla	r1, r5, r7, r4
 8003e32:	f023 0370 	bic.w	r3, r3, #112	@ 0x70
 8003e36:	051b      	lsls	r3, r3, #20
 8003e38:	0d1b      	lsrs	r3, r3, #20
 8003e3a:	f043 0380 	orr.w	r3, r3, #128	@ 0x80
 8003e3e:	f820 3027 	strh.w	r3, [r0, r7, lsl #2]
 8003e42:	f891 315c 	ldrb.w	r3, [r1, #348]	@ 0x15c
 8003e46:	f500 6e80 	add.w	lr, r0, #1024	@ 0x400
 8003e4a:	b9bb      	cbnz	r3, 8003e7c <HAL_PCD_IRQHandler+0x218>
 8003e4c:	f8b0 3050 	ldrh.w	r3, [r0, #80]	@ 0x50
 8003e50:	f891 2150 	ldrb.w	r2, [r1, #336]	@ 0x150
 8003e54:	b29b      	uxth	r3, r3
 8003e56:	3306      	adds	r3, #6
 8003e58:	eb03 03c2 	add.w	r3, r3, r2, lsl #3
 8003e5c:	f83e 9013 	ldrh.w	r9, [lr, r3, lsl #1]
 8003e60:	f3c9 0909 	ubfx	r9, r9, #0, #10
 8003e64:	f1b9 0f00 	cmp.w	r9, #0
 8003e68:	f000 80ba 	beq.w	8003fe0 <HAL_PCD_IRQHandler+0x37c>
 8003e6c:	464b      	mov	r3, r9
 8003e6e:	f8b1 2156 	ldrh.w	r2, [r1, #342]	@ 0x156
 8003e72:	f8d1 1164 	ldr.w	r1, [r1, #356]	@ 0x164
 8003e76:	f002 f9b9 	bl	80061ec <USB_ReadPMA>
 8003e7a:	e0b1      	b.n	8003fe0 <HAL_PCD_IRQHandler+0x37c>
 8003e7c:	f891 3153 	ldrb.w	r3, [r1, #339]	@ 0x153
 8003e80:	f891 2150 	ldrb.w	r2, [r1, #336]	@ 0x150
 8003e84:	2b02      	cmp	r3, #2
 8003e86:	f040 8089 	bne.w	8003f9c <HAL_PCD_IRQHandler+0x338>
 8003e8a:	f8b0 9050 	ldrh.w	r9, [r0, #80]	@ 0x50
 8003e8e:	ea4f 0bc2 	mov.w	fp, r2, lsl #3
 8003e92:	fa1f f989 	uxth.w	r9, r9
 8003e96:	f418 4a80 	ands.w	sl, r8, #16384	@ 0x4000
 8003e9a:	f8d1 3168 	ldr.w	r3, [r1, #360]	@ 0x168
 8003e9e:	44d9      	add	r9, fp
 8003ea0:	f008 0c40 	and.w	ip, r8, #64	@ 0x40
 8003ea4:	d03c      	beq.n	8003f20 <HAL_PCD_IRQHandler+0x2bc>
 8003ea6:	f109 0902 	add.w	r9, r9, #2
 8003eaa:	f83e 9019 	ldrh.w	r9, [lr, r9, lsl #1]
 8003eae:	f3c9 0909 	ubfx	r9, r9, #0, #10
 8003eb2:	4599      	cmp	r9, r3
 8003eb4:	d913      	bls.n	8003ede <HAL_PCD_IRQHandler+0x27a>
 8003eb6:	2300      	movs	r3, #0
 8003eb8:	f8c1 3168 	str.w	r3, [r1, #360]	@ 0x168
 8003ebc:	f830 3022 	ldrh.w	r3, [r0, r2, lsl #2]
 8003ec0:	f423 4380 	bic.w	r3, r3, #16384	@ 0x4000
 8003ec4:	f023 0370 	bic.w	r3, r3, #112	@ 0x70
 8003ec8:	041b      	lsls	r3, r3, #16
 8003eca:	0c1b      	lsrs	r3, r3, #16
 8003ecc:	f483 5300 	eor.w	r3, r3, #8192	@ 0x2000
 8003ed0:	f443 4300 	orr.w	r3, r3, #32768	@ 0x8000
 8003ed4:	f043 0380 	orr.w	r3, r3, #128	@ 0x80
 8003ed8:	f820 3022 	strh.w	r3, [r0, r2, lsl #2]
 8003edc:	e005      	b.n	8003eea <HAL_PCD_IRQHandler+0x286>
 8003ede:	eba3 0309 	sub.w	r3, r3, r9
 8003ee2:	f8c1 3168 	str.w	r3, [r1, #360]	@ 0x168
 8003ee6:	2b00      	cmp	r3, #0
 8003ee8:	d0e8      	beq.n	8003ebc <HAL_PCD_IRQHandler+0x258>
 8003eea:	f1bc 0f00 	cmp.w	ip, #0
 8003eee:	d00d      	beq.n	8003f0c <HAL_PCD_IRQHandler+0x2a8>
 8003ef0:	f830 3022 	ldrh.w	r3, [r0, r2, lsl #2]
 8003ef4:	f423 43e0 	bic.w	r3, r3, #28672	@ 0x7000
 8003ef8:	f023 0370 	bic.w	r3, r3, #112	@ 0x70
 8003efc:	041b      	lsls	r3, r3, #16
 8003efe:	0c1b      	lsrs	r3, r3, #16
 8003f00:	f443 4300 	orr.w	r3, r3, #32768	@ 0x8000
 8003f04:	f043 03c0 	orr.w	r3, r3, #192	@ 0xc0
 8003f08:	f820 3022 	strh.w	r3, [r0, r2, lsl #2]
 8003f0c:	f1b9 0f00 	cmp.w	r9, #0
 8003f10:	d066      	beq.n	8003fe0 <HAL_PCD_IRQHandler+0x37c>
 8003f12:	2128      	movs	r1, #40	@ 0x28
 8003f14:	fb01 4107 	mla	r1, r1, r7, r4
 8003f18:	464b      	mov	r3, r9
 8003f1a:	f8b1 2158 	ldrh.w	r2, [r1, #344]	@ 0x158
 8003f1e:	e7a8      	b.n	8003e72 <HAL_PCD_IRQHandler+0x20e>
 8003f20:	f109 0906 	add.w	r9, r9, #6
 8003f24:	f83e 9019 	ldrh.w	r9, [lr, r9, lsl #1]
 8003f28:	f3c9 0909 	ubfx	r9, r9, #0, #10
 8003f2c:	4599      	cmp	r9, r3
 8003f2e:	d912      	bls.n	8003f56 <HAL_PCD_IRQHandler+0x2f2>
 8003f30:	f8c1 a168 	str.w	sl, [r1, #360]	@ 0x168
 8003f34:	f830 3022 	ldrh.w	r3, [r0, r2, lsl #2]
 8003f38:	f423 4380 	bic.w	r3, r3, #16384	@ 0x4000
 8003f3c:	f023 0370 	bic.w	r3, r3, #112	@ 0x70
 8003f40:	041b      	lsls	r3, r3, #16
 8003f42:	0c1b      	lsrs	r3, r3, #16
 8003f44:	f483 5300 	eor.w	r3, r3, #8192	@ 0x2000
 8003f48:	f443 4300 	orr.w	r3, r3, #32768	@ 0x8000
 8003f4c:	f043 0380 	orr.w	r3, r3, #128	@ 0x80
 8003f50:	f820 3022 	strh.w	r3, [r0, r2, lsl #2]
 8003f54:	e005      	b.n	8003f62 <HAL_PCD_IRQHandler+0x2fe>
 8003f56:	eba3 0309 	sub.w	r3, r3, r9
 8003f5a:	f8c1 3168 	str.w	r3, [r1, #360]	@ 0x168
 8003f5e:	2b00      	cmp	r3, #0
 8003f60:	d0e8      	beq.n	8003f34 <HAL_PCD_IRQHandler+0x2d0>
 8003f62:	f1bc 0f00 	cmp.w	ip, #0
 8003f66:	d10d      	bne.n	8003f84 <HAL_PCD_IRQHandler+0x320>
 8003f68:	f830 3022 	ldrh.w	r3, [r0, r2, lsl #2]
 8003f6c:	f423 43e0 	bic.w	r3, r3, #28672	@ 0x7000
 8003f70:	f023 0370 	bic.w	r3, r3, #112	@ 0x70
 8003f74:	041b      	lsls	r3, r3, #16
 8003f76:	0c1b      	lsrs	r3, r3, #16
 8003f78:	f443 4300 	orr.w	r3, r3, #32768	@ 0x8000
 8003f7c:	f043 03c0 	orr.w	r3, r3, #192	@ 0xc0
 8003f80:	f820 3022 	strh.w	r3, [r0, r2, lsl #2]
 8003f84:	f1b9 0f00 	cmp.w	r9, #0
 8003f88:	d02a      	beq.n	8003fe0 <HAL_PCD_IRQHandler+0x37c>
 8003f8a:	2128      	movs	r1, #40	@ 0x28
 8003f8c:	fb01 4107 	mla	r1, r1, r7, r4
 8003f90:	464b      	mov	r3, r9
 8003f92:	f8b1 215a 	ldrh.w	r2, [r1, #346]	@ 0x15a
 8003f96:	e76c      	b.n	8003e72 <HAL_PCD_IRQHandler+0x20e>
 8003f98:	ffff8f0f 	.word	0xffff8f0f
 8003f9c:	f830 3022 	ldrh.w	r3, [r0, r2, lsl #2]
 8003fa0:	f423 43e0 	bic.w	r3, r3, #28672	@ 0x7000
 8003fa4:	f023 0370 	bic.w	r3, r3, #112	@ 0x70
 8003fa8:	041b      	lsls	r3, r3, #16
 8003faa:	0c1b      	lsrs	r3, r3, #16
 8003fac:	f443 4300 	orr.w	r3, r3, #32768	@ 0x8000
 8003fb0:	f043 03c0 	orr.w	r3, r3, #192	@ 0xc0
 8003fb4:	f820 3022 	strh.w	r3, [r0, r2, lsl #2]
 8003fb8:	f891 3150 	ldrb.w	r3, [r1, #336]	@ 0x150
 8003fbc:	f830 2023 	ldrh.w	r2, [r0, r3, lsl #2]
 8003fc0:	00db      	lsls	r3, r3, #3
 8003fc2:	f412 4f80 	tst.w	r2, #16384	@ 0x4000
 8003fc6:	f8b0 2050 	ldrh.w	r2, [r0, #80]	@ 0x50
 8003fca:	b292      	uxth	r2, r2
 8003fcc:	d054      	beq.n	8004078 <HAL_PCD_IRQHandler+0x414>
 8003fce:	3202      	adds	r2, #2
 8003fd0:	4413      	add	r3, r2
 8003fd2:	f83e 9013 	ldrh.w	r9, [lr, r3, lsl #1]
 8003fd6:	f3c9 0909 	ubfx	r9, r9, #0, #10
 8003fda:	f1b9 0f00 	cmp.w	r9, #0
 8003fde:	d19b      	bne.n	8003f18 <HAL_PCD_IRQHandler+0x2b4>
 8003fe0:	fb05 f107 	mul.w	r1, r5, r7
 8003fe4:	1863      	adds	r3, r4, r1
 8003fe6:	f8d3 216c 	ldr.w	r2, [r3, #364]	@ 0x16c
 8003fea:	444a      	add	r2, r9
 8003fec:	f8c3 216c 	str.w	r2, [r3, #364]	@ 0x16c
 8003ff0:	f8d3 2164 	ldr.w	r2, [r3, #356]	@ 0x164
 8003ff4:	444a      	add	r2, r9
 8003ff6:	f8c3 2164 	str.w	r2, [r3, #356]	@ 0x164
 8003ffa:	f8d3 2168 	ldr.w	r2, [r3, #360]	@ 0x168
 8003ffe:	b11a      	cbz	r2, 8004008 <HAL_PCD_IRQHandler+0x3a4>
 8004000:	f8d3 3160 	ldr.w	r3, [r3, #352]	@ 0x160
 8004004:	4599      	cmp	r9, r3
 8004006:	d241      	bcs.n	800408c <HAL_PCD_IRQHandler+0x428>
 8004008:	fb05 4307 	mla	r3, r5, r7, r4
 800400c:	4620      	mov	r0, r4
 800400e:	f893 1150 	ldrb.w	r1, [r3, #336]	@ 0x150
 8004012:	f003 fa9f 	bl	8007554 <HAL_PCD_DataOutStageCallback>
 8004016:	f018 0f80 	tst.w	r8, #128	@ 0x80
 800401a:	6820      	ldr	r0, [r4, #0]
 800401c:	f43f ae2f 	beq.w	8003c7e <HAL_PCD_IRQHandler+0x1a>
 8004020:	f830 3027 	ldrh.w	r3, [r0, r7, lsl #2]
 8004024:	fb05 fc07 	mul.w	ip, r5, r7
 8004028:	b29b      	uxth	r3, r3
 800402a:	4033      	ands	r3, r6
 800402c:	f443 4300 	orr.w	r3, r3, #32768	@ 0x8000
 8004030:	f820 3027 	strh.w	r3, [r0, r7, lsl #2]
 8004034:	eb04 030c 	add.w	r3, r4, ip
 8004038:	7cda      	ldrb	r2, [r3, #19]
 800403a:	2a01      	cmp	r2, #1
 800403c:	d156      	bne.n	80040ec <HAL_PCD_IRQHandler+0x488>
 800403e:	2100      	movs	r1, #0
 8004040:	fb07 5205 	mla	r2, r7, r5, r5
 8004044:	50a1      	str	r1, [r4, r2]
 8004046:	7f1a      	ldrb	r2, [r3, #28]
 8004048:	b392      	cbz	r2, 80040b0 <HAL_PCD_IRQHandler+0x44c>
 800404a:	f018 0840 	ands.w	r8, r8, #64	@ 0x40
 800404e:	7c5a      	ldrb	r2, [r3, #17]
 8004050:	d036      	beq.n	80040c0 <HAL_PCD_IRQHandler+0x45c>
 8004052:	bb12      	cbnz	r2, 800409a <HAL_PCD_IRQHandler+0x436>
 8004054:	f8b0 2050 	ldrh.w	r2, [r0, #80]	@ 0x50
 8004058:	7c1b      	ldrb	r3, [r3, #16]
 800405a:	b292      	uxth	r2, r2
 800405c:	011b      	lsls	r3, r3, #4
 800405e:	f200 4004 	addw	r0, r0, #1028	@ 0x404
 8004062:	4410      	add	r0, r2
 8004064:	5a1a      	ldrh	r2, [r3, r0]
 8004066:	f3c2 0209 	ubfx	r2, r2, #0, #10
 800406a:	521a      	strh	r2, [r3, r0]
 800406c:	5a1a      	ldrh	r2, [r3, r0]
 800406e:	b292      	uxth	r2, r2
 8004070:	f442 4200 	orr.w	r2, r2, #32768	@ 0x8000
 8004074:	521a      	strh	r2, [r3, r0]
 8004076:	e01b      	b.n	80040b0 <HAL_PCD_IRQHandler+0x44c>
 8004078:	3206      	adds	r2, #6
 800407a:	4413      	add	r3, r2
 800407c:	f83e 9013 	ldrh.w	r9, [lr, r3, lsl #1]
 8004080:	f3c9 0909 	ubfx	r9, r9, #0, #10
 8004084:	f1b9 0f00 	cmp.w	r9, #0
 8004088:	d0aa      	beq.n	8003fe0 <HAL_PCD_IRQHandler+0x37c>
 800408a:	e781      	b.n	8003f90 <HAL_PCD_IRQHandler+0x32c>
 800408c:	f501 71a8 	add.w	r1, r1, #336	@ 0x150
 8004090:	6820      	ldr	r0, [r4, #0]
 8004092:	4421      	add	r1, r4
 8004094:	f001 fe75 	bl	8005d82 <USB_EPStartXfer>
 8004098:	e7bd      	b.n	8004016 <HAL_PCD_IRQHandler+0x3b2>
 800409a:	2a01      	cmp	r2, #1
 800409c:	d108      	bne.n	80040b0 <HAL_PCD_IRQHandler+0x44c>
 800409e:	f8b0 2050 	ldrh.w	r2, [r0, #80]	@ 0x50
 80040a2:	7c1b      	ldrb	r3, [r3, #16]
 80040a4:	b292      	uxth	r2, r2
 80040a6:	f200 4004 	addw	r0, r0, #1028	@ 0x404
 80040aa:	011b      	lsls	r3, r3, #4
 80040ac:	4410      	add	r0, r2
 80040ae:	5219      	strh	r1, [r3, r0]
 80040b0:	2328      	movs	r3, #40	@ 0x28
 80040b2:	fb03 4307 	mla	r3, r3, r7, r4
 80040b6:	7c19      	ldrb	r1, [r3, #16]
 80040b8:	4620      	mov	r0, r4
 80040ba:	f003 fa54 	bl	8007566 <HAL_PCD_DataInStageCallback>
 80040be:	e5de      	b.n	8003c7e <HAL_PCD_IRQHandler+0x1a>
 80040c0:	b93a      	cbnz	r2, 80040d2 <HAL_PCD_IRQHandler+0x46e>
 80040c2:	f8b0 2050 	ldrh.w	r2, [r0, #80]	@ 0x50
 80040c6:	7c1b      	ldrb	r3, [r3, #16]
 80040c8:	b292      	uxth	r2, r2
 80040ca:	011b      	lsls	r3, r3, #4
 80040cc:	f200 400c 	addw	r0, r0, #1036	@ 0x40c
 80040d0:	e7c7      	b.n	8004062 <HAL_PCD_IRQHandler+0x3fe>
 80040d2:	2a01      	cmp	r2, #1
 80040d4:	d1ec      	bne.n	80040b0 <HAL_PCD_IRQHandler+0x44c>
 80040d6:	f8b0 2050 	ldrh.w	r2, [r0, #80]	@ 0x50
 80040da:	7c1b      	ldrb	r3, [r3, #16]
 80040dc:	b292      	uxth	r2, r2
 80040de:	f200 400c 	addw	r0, r0, #1036	@ 0x40c
 80040e2:	011b      	lsls	r3, r3, #4
 80040e4:	4410      	add	r0, r2
 80040e6:	f823 8000 	strh.w	r8, [r3, r0]
 80040ea:	e7e1      	b.n	80040b0 <HAL_PCD_IRQHandler+0x44c>
 80040ec:	7c19      	ldrb	r1, [r3, #16]
 80040ee:	f418 7e80 	ands.w	lr, r8, #256	@ 0x100
 80040f2:	6a9a      	ldr	r2, [r3, #40]	@ 0x28
 80040f4:	ea4f 0ac1 	mov.w	sl, r1, lsl #3
 80040f8:	f500 6980 	add.w	r9, r0, #1024	@ 0x400
 80040fc:	d11b      	bne.n	8004136 <HAL_PCD_IRQHandler+0x4d2>
 80040fe:	f8b0 7050 	ldrh.w	r7, [r0, #80]	@ 0x50
 8004102:	b2bf      	uxth	r7, r7
 8004104:	4457      	add	r7, sl
 8004106:	3702      	adds	r7, #2
 8004108:	f839 7017 	ldrh.w	r7, [r9, r7, lsl #1]
 800410c:	f3c7 0709 	ubfx	r7, r7, #0, #10
 8004110:	4297      	cmp	r7, r2
 8004112:	d302      	bcc.n	800411a <HAL_PCD_IRQHandler+0x4b6>
 8004114:	f8c3 e028 	str.w	lr, [r3, #40]	@ 0x28
 8004118:	e7ce      	b.n	80040b8 <HAL_PCD_IRQHandler+0x454>
 800411a:	1bd2      	subs	r2, r2, r7
 800411c:	629a      	str	r2, [r3, #40]	@ 0x28
 800411e:	6a5a      	ldr	r2, [r3, #36]	@ 0x24
 8004120:	f10c 0110 	add.w	r1, ip, #16
 8004124:	443a      	add	r2, r7
 8004126:	625a      	str	r2, [r3, #36]	@ 0x24
 8004128:	6ada      	ldr	r2, [r3, #44]	@ 0x2c
 800412a:	4421      	add	r1, r4
 800412c:	443a      	add	r2, r7
 800412e:	62da      	str	r2, [r3, #44]	@ 0x2c
 8004130:	f001 fe27 	bl	8005d82 <USB_EPStartXfer>
 8004134:	e5a3      	b.n	8003c7e <HAL_PCD_IRQHandler+0x1a>
 8004136:	f8b0 c050 	ldrh.w	ip, [r0, #80]	@ 0x50
 800413a:	f018 0e40 	ands.w	lr, r8, #64	@ 0x40
 800413e:	fa1f fc8c 	uxth.w	ip, ip
 8004142:	44d4      	add	ip, sl
 8004144:	f408 4880 	and.w	r8, r8, #16384	@ 0x4000
 8004148:	f000 80f4 	beq.w	8004334 <HAL_PCD_IRQHandler+0x6d0>
 800414c:	f10c 0c02 	add.w	ip, ip, #2
 8004150:	f839 c01c 	ldrh.w	ip, [r9, ip, lsl #1]
 8004154:	fa1f f888 	uxth.w	r8, r8
 8004158:	f3cc 0c09 	ubfx	ip, ip, #0, #10
 800415c:	4594      	cmp	ip, r2
 800415e:	bf2c      	ite	cs
 8004160:	2200      	movcs	r2, #0
 8004162:	eba2 020c 	subcc.w	r2, r2, ip
 8004166:	629a      	str	r2, [r3, #40]	@ 0x28
 8004168:	2a00      	cmp	r2, #0
 800416a:	d15b      	bne.n	8004224 <HAL_PCD_IRQHandler+0x5c0>
 800416c:	2328      	movs	r3, #40	@ 0x28
 800416e:	fb03 4307 	mla	r3, r3, r7, r4
 8004172:	7c5b      	ldrb	r3, [r3, #17]
 8004174:	2b00      	cmp	r3, #0
 8004176:	d141      	bne.n	80041fc <HAL_PCD_IRQHandler+0x598>
 8004178:	f8b0 2050 	ldrh.w	r2, [r0, #80]	@ 0x50
 800417c:	f200 4c04 	addw	ip, r0, #1028	@ 0x404
 8004180:	b292      	uxth	r2, r2
 8004182:	010b      	lsls	r3, r1, #4
 8004184:	4494      	add	ip, r2
 8004186:	f83c 2003 	ldrh.w	r2, [ip, r3]
 800418a:	f3c2 0209 	ubfx	r2, r2, #0, #10
 800418e:	f82c 2003 	strh.w	r2, [ip, r3]
 8004192:	f83c 2003 	ldrh.w	r2, [ip, r3]
 8004196:	ea6f 4242 	mvn.w	r2, r2, lsl #17
 800419a:	ea6f 4252 	mvn.w	r2, r2, lsr #17
 800419e:	b292      	uxth	r2, r2
 80041a0:	f82c 2003 	strh.w	r2, [ip, r3]
 80041a4:	f8b0 2050 	ldrh.w	r2, [r0, #80]	@ 0x50
 80041a8:	f200 400c 	addw	r0, r0, #1036	@ 0x40c
 80041ac:	b292      	uxth	r2, r2
 80041ae:	4410      	add	r0, r2
 80041b0:	5ac2      	ldrh	r2, [r0, r3]
 80041b2:	f3c2 0209 	ubfx	r2, r2, #0, #10
 80041b6:	52c2      	strh	r2, [r0, r3]
 80041b8:	5ac2      	ldrh	r2, [r0, r3]
 80041ba:	ea6f 4242 	mvn.w	r2, r2, lsl #17
 80041be:	ea6f 4252 	mvn.w	r2, r2, lsr #17
 80041c2:	b292      	uxth	r2, r2
 80041c4:	52c2      	strh	r2, [r0, r3]
 80041c6:	4620      	mov	r0, r4
 80041c8:	f003 f9cd 	bl	8007566 <HAL_PCD_DataInStageCallback>
 80041cc:	f1b8 0f00 	cmp.w	r8, #0
 80041d0:	f000 80f4 	beq.w	80043bc <HAL_PCD_IRQHandler+0x758>
 80041d4:	2328      	movs	r3, #40	@ 0x28
 80041d6:	fb03 4307 	mla	r3, r3, r7, r4
 80041da:	6822      	ldr	r2, [r4, #0]
 80041dc:	7c19      	ldrb	r1, [r3, #16]
 80041de:	f832 3021 	ldrh.w	r3, [r2, r1, lsl #2]
 80041e2:	f423 43e0 	bic.w	r3, r3, #28672	@ 0x7000
 80041e6:	f023 0370 	bic.w	r3, r3, #112	@ 0x70
 80041ea:	041b      	lsls	r3, r3, #16
 80041ec:	0c1b      	lsrs	r3, r3, #16
 80041ee:	f443 4340 	orr.w	r3, r3, #49152	@ 0xc000
 80041f2:	f043 0380 	orr.w	r3, r3, #128	@ 0x80
 80041f6:	f822 3021 	strh.w	r3, [r2, r1, lsl #2]
 80041fa:	e0df      	b.n	80043bc <HAL_PCD_IRQHandler+0x758>
 80041fc:	2b01      	cmp	r3, #1
 80041fe:	d1e2      	bne.n	80041c6 <HAL_PCD_IRQHandler+0x562>
 8004200:	f8b0 e050 	ldrh.w	lr, [r0, #80]	@ 0x50
 8004204:	f200 4c04 	addw	ip, r0, #1028	@ 0x404
 8004208:	fa1f fe8e 	uxth.w	lr, lr
 800420c:	44f4      	add	ip, lr
 800420e:	010b      	lsls	r3, r1, #4
 8004210:	f82c 2003 	strh.w	r2, [ip, r3]
 8004214:	f8b0 c050 	ldrh.w	ip, [r0, #80]	@ 0x50
 8004218:	f200 400c 	addw	r0, r0, #1036	@ 0x40c
 800421c:	fa1f fc8c 	uxth.w	ip, ip
 8004220:	4460      	add	r0, ip
 8004222:	e7cf      	b.n	80041c4 <HAL_PCD_IRQHandler+0x560>
 8004224:	f1b8 0f00 	cmp.w	r8, #0
 8004228:	d00d      	beq.n	8004246 <HAL_PCD_IRQHandler+0x5e2>
 800422a:	f830 2021 	ldrh.w	r2, [r0, r1, lsl #2]
 800422e:	f422 42e0 	bic.w	r2, r2, #28672	@ 0x7000
 8004232:	f022 0270 	bic.w	r2, r2, #112	@ 0x70
 8004236:	0412      	lsls	r2, r2, #16
 8004238:	0c12      	lsrs	r2, r2, #16
 800423a:	f442 4240 	orr.w	r2, r2, #49152	@ 0xc000
 800423e:	f042 0280 	orr.w	r2, r2, #128	@ 0x80
 8004242:	f820 2021 	strh.w	r2, [r0, r1, lsl #2]
 8004246:	f04f 0828 	mov.w	r8, #40	@ 0x28
 800424a:	fb08 4807 	mla	r8, r8, r7, r4
 800424e:	f898 2034 	ldrb.w	r2, [r8, #52]	@ 0x34
 8004252:	2a01      	cmp	r2, #1
 8004254:	f040 80b2 	bne.w	80043bc <HAL_PCD_IRQHandler+0x758>
 8004258:	f8d8 2024 	ldr.w	r2, [r8, #36]	@ 0x24
 800425c:	eb02 0e0c 	add.w	lr, r2, ip
 8004260:	f8c8 e024 	str.w	lr, [r8, #36]	@ 0x24
 8004264:	6ada      	ldr	r2, [r3, #44]	@ 0x2c
 8004266:	4462      	add	r2, ip
 8004268:	62da      	str	r2, [r3, #44]	@ 0x2c
 800426a:	f8d8 3030 	ldr.w	r3, [r8, #48]	@ 0x30
 800426e:	f8d8 2020 	ldr.w	r2, [r8, #32]
 8004272:	4293      	cmp	r3, r2
 8004274:	d335      	bcc.n	80042e2 <HAL_PCD_IRQHandler+0x67e>
 8004276:	1a9b      	subs	r3, r3, r2
 8004278:	f8c8 3030 	str.w	r3, [r8, #48]	@ 0x30
 800427c:	2328      	movs	r3, #40	@ 0x28
 800427e:	fb03 4307 	mla	r3, r3, r7, r4
 8004282:	f893 c011 	ldrb.w	ip, [r3, #17]
 8004286:	b293      	uxth	r3, r2
 8004288:	f1bc 0f00 	cmp.w	ip, #0
 800428c:	d145      	bne.n	800431a <HAL_PCD_IRQHandler+0x6b6>
 800428e:	f8b0 8050 	ldrh.w	r8, [r0, #80]	@ 0x50
 8004292:	f200 4c04 	addw	ip, r0, #1028	@ 0x404
 8004296:	fa1f f888 	uxth.w	r8, r8
 800429a:	44c4      	add	ip, r8
 800429c:	0109      	lsls	r1, r1, #4
 800429e:	f83c 8001 	ldrh.w	r8, [ip, r1]
 80042a2:	2a3e      	cmp	r2, #62	@ 0x3e
 80042a4:	f3c8 0809 	ubfx	r8, r8, #0, #10
 80042a8:	f82c 8001 	strh.w	r8, [ip, r1]
 80042ac:	d925      	bls.n	80042fa <HAL_PCD_IRQHandler+0x696>
 80042ae:	ea4f 1852 	mov.w	r8, r2, lsr #5
 80042b2:	06d2      	lsls	r2, r2, #27
 80042b4:	f83c 2001 	ldrh.w	r2, [ip, r1]
 80042b8:	bf08      	it	eq
 80042ba:	f108 38ff 	addeq.w	r8, r8, #4294967295
 80042be:	b292      	uxth	r2, r2
 80042c0:	ea42 2288 	orr.w	r2, r2, r8, lsl #10
 80042c4:	ea6f 4242 	mvn.w	r2, r2, lsl #17
 80042c8:	ea6f 4252 	mvn.w	r2, r2, lsr #17
 80042cc:	b292      	uxth	r2, r2
 80042ce:	f82c 2001 	strh.w	r2, [ip, r1]
 80042d2:	2228      	movs	r2, #40	@ 0x28
 80042d4:	fb02 4207 	mla	r2, r2, r7, r4
 80042d8:	8b12      	ldrh	r2, [r2, #24]
 80042da:	4671      	mov	r1, lr
 80042dc:	f001 fd41 	bl	8005d62 <USB_WritePMA>
 80042e0:	e06c      	b.n	80043bc <HAL_PCD_IRQHandler+0x758>
 80042e2:	b91b      	cbnz	r3, 80042ec <HAL_PCD_IRQHandler+0x688>
 80042e4:	4662      	mov	r2, ip
 80042e6:	f888 3034 	strb.w	r3, [r8, #52]	@ 0x34
 80042ea:	e7c7      	b.n	800427c <HAL_PCD_IRQHandler+0x618>
 80042ec:	2200      	movs	r2, #0
 80042ee:	f888 2034 	strb.w	r2, [r8, #52]	@ 0x34
 80042f2:	f8c8 2030 	str.w	r2, [r8, #48]	@ 0x30
 80042f6:	461a      	mov	r2, r3
 80042f8:	e7c0      	b.n	800427c <HAL_PCD_IRQHandler+0x618>
 80042fa:	b912      	cbnz	r2, 8004302 <HAL_PCD_IRQHandler+0x69e>
 80042fc:	f83c 2001 	ldrh.w	r2, [ip, r1]
 8004300:	e7e0      	b.n	80042c4 <HAL_PCD_IRQHandler+0x660>
 8004302:	ea4f 0852 	mov.w	r8, r2, lsr #1
 8004306:	07d2      	lsls	r2, r2, #31
 8004308:	f83c 2001 	ldrh.w	r2, [ip, r1]
 800430c:	bf48      	it	mi
 800430e:	f108 0801 	addmi.w	r8, r8, #1
 8004312:	b292      	uxth	r2, r2
 8004314:	ea42 2288 	orr.w	r2, r2, r8, lsl #10
 8004318:	e7d8      	b.n	80042cc <HAL_PCD_IRQHandler+0x668>
 800431a:	f1bc 0f01 	cmp.w	ip, #1
 800431e:	d1d8      	bne.n	80042d2 <HAL_PCD_IRQHandler+0x66e>
 8004320:	f8b0 c050 	ldrh.w	ip, [r0, #80]	@ 0x50
 8004324:	f200 4204 	addw	r2, r0, #1028	@ 0x404
 8004328:	fa1f fc8c 	uxth.w	ip, ip
 800432c:	4462      	add	r2, ip
 800432e:	0109      	lsls	r1, r1, #4
 8004330:	5253      	strh	r3, [r2, r1]
 8004332:	e7ce      	b.n	80042d2 <HAL_PCD_IRQHandler+0x66e>
 8004334:	f10c 0c06 	add.w	ip, ip, #6
 8004338:	f839 c01c 	ldrh.w	ip, [r9, ip, lsl #1]
 800433c:	fa1f f888 	uxth.w	r8, r8
 8004340:	f3cc 0c09 	ubfx	ip, ip, #0, #10
 8004344:	4594      	cmp	ip, r2
 8004346:	bf8c      	ite	hi
 8004348:	4672      	movhi	r2, lr
 800434a:	eba2 020c 	subls.w	r2, r2, ip
 800434e:	629a      	str	r2, [r3, #40]	@ 0x28
 8004350:	2a00      	cmp	r2, #0
 8004352:	d15d      	bne.n	8004410 <HAL_PCD_IRQHandler+0x7ac>
 8004354:	2328      	movs	r3, #40	@ 0x28
 8004356:	fb03 4307 	mla	r3, r3, r7, r4
 800435a:	7c5b      	ldrb	r3, [r3, #17]
 800435c:	2b00      	cmp	r3, #0
 800435e:	d143      	bne.n	80043e8 <HAL_PCD_IRQHandler+0x784>
 8004360:	f8b0 2050 	ldrh.w	r2, [r0, #80]	@ 0x50
 8004364:	f200 4c04 	addw	ip, r0, #1028	@ 0x404
 8004368:	b292      	uxth	r2, r2
 800436a:	010b      	lsls	r3, r1, #4
 800436c:	4494      	add	ip, r2
 800436e:	f83c 2003 	ldrh.w	r2, [ip, r3]
 8004372:	f3c2 0209 	ubfx	r2, r2, #0, #10
 8004376:	f82c 2003 	strh.w	r2, [ip, r3]
 800437a:	f83c 2003 	ldrh.w	r2, [ip, r3]
 800437e:	ea6f 4242 	mvn.w	r2, r2, lsl #17
 8004382:	ea6f 4252 	mvn.w	r2, r2, lsr #17
 8004386:	b292      	uxth	r2, r2
 8004388:	f82c 2003 	strh.w	r2, [ip, r3]
 800438c:	f8b0 2050 	ldrh.w	r2, [r0, #80]	@ 0x50
 8004390:	f200 400c 	addw	r0, r0, #1036	@ 0x40c
 8004394:	b292      	uxth	r2, r2
 8004396:	4410      	add	r0, r2
 8004398:	5ac2      	ldrh	r2, [r0, r3]
 800439a:	f3c2 0209 	ubfx	r2, r2, #0, #10
 800439e:	52c2      	strh	r2, [r0, r3]
 80043a0:	5ac2      	ldrh	r2, [r0, r3]
 80043a2:	ea6f 4242 	mvn.w	r2, r2, lsl #17
 80043a6:	ea6f 4252 	mvn.w	r2, r2, lsr #17
 80043aa:	b292      	uxth	r2, r2
 80043ac:	52c2      	strh	r2, [r0, r3]
 80043ae:	4620      	mov	r0, r4
 80043b0:	f003 f8d9 	bl	8007566 <HAL_PCD_DataInStageCallback>
 80043b4:	f1b8 0f00 	cmp.w	r8, #0
 80043b8:	f43f af0c 	beq.w	80041d4 <HAL_PCD_IRQHandler+0x570>
 80043bc:	2328      	movs	r3, #40	@ 0x28
 80043be:	fb03 4307 	mla	r3, r3, r7, r4
 80043c2:	6822      	ldr	r2, [r4, #0]
 80043c4:	7c19      	ldrb	r1, [r3, #16]
 80043c6:	f832 3021 	ldrh.w	r3, [r2, r1, lsl #2]
 80043ca:	f423 43e0 	bic.w	r3, r3, #28672	@ 0x7000
 80043ce:	f023 0340 	bic.w	r3, r3, #64	@ 0x40
 80043d2:	041b      	lsls	r3, r3, #16
 80043d4:	0c1b      	lsrs	r3, r3, #16
 80043d6:	f083 0330 	eor.w	r3, r3, #48	@ 0x30
 80043da:	f443 4300 	orr.w	r3, r3, #32768	@ 0x8000
 80043de:	f043 0380 	orr.w	r3, r3, #128	@ 0x80
 80043e2:	f822 3021 	strh.w	r3, [r2, r1, lsl #2]
 80043e6:	e44a      	b.n	8003c7e <HAL_PCD_IRQHandler+0x1a>
 80043e8:	2b01      	cmp	r3, #1
 80043ea:	d1e0      	bne.n	80043ae <HAL_PCD_IRQHandler+0x74a>
 80043ec:	f8b0 e050 	ldrh.w	lr, [r0, #80]	@ 0x50
 80043f0:	f200 4c04 	addw	ip, r0, #1028	@ 0x404
 80043f4:	fa1f fe8e 	uxth.w	lr, lr
 80043f8:	44f4      	add	ip, lr
 80043fa:	010b      	lsls	r3, r1, #4
 80043fc:	f82c 2003 	strh.w	r2, [ip, r3]
 8004400:	f8b0 c050 	ldrh.w	ip, [r0, #80]	@ 0x50
 8004404:	f200 400c 	addw	r0, r0, #1036	@ 0x40c
 8004408:	fa1f fc8c 	uxth.w	ip, ip
 800440c:	4460      	add	r0, ip
 800440e:	e7cd      	b.n	80043ac <HAL_PCD_IRQHandler+0x748>
 8004410:	f1b8 0f00 	cmp.w	r8, #0
 8004414:	d10d      	bne.n	8004432 <HAL_PCD_IRQHandler+0x7ce>
 8004416:	f830 2021 	ldrh.w	r2, [r0, r1, lsl #2]
 800441a:	f422 42e0 	bic.w	r2, r2, #28672	@ 0x7000
 800441e:	f022 0270 	bic.w	r2, r2, #112	@ 0x70
 8004422:	0412      	lsls	r2, r2, #16
 8004424:	0c12      	lsrs	r2, r2, #16
 8004426:	f442 4240 	orr.w	r2, r2, #49152	@ 0xc000
 800442a:	f042 0280 	orr.w	r2, r2, #128	@ 0x80
 800442e:	f820 2021 	strh.w	r2, [r0, r1, lsl #2]
 8004432:	f04f 0828 	mov.w	r8, #40	@ 0x28
 8004436:	fb08 4807 	mla	r8, r8, r7, r4
 800443a:	f898 2034 	ldrb.w	r2, [r8, #52]	@ 0x34
 800443e:	2a01      	cmp	r2, #1
 8004440:	d1bc      	bne.n	80043bc <HAL_PCD_IRQHandler+0x758>
 8004442:	f8d8 2024 	ldr.w	r2, [r8, #36]	@ 0x24
 8004446:	eb02 0e0c 	add.w	lr, r2, ip
 800444a:	f8c8 e024 	str.w	lr, [r8, #36]	@ 0x24
 800444e:	6ada      	ldr	r2, [r3, #44]	@ 0x2c
 8004450:	4462      	add	r2, ip
 8004452:	62da      	str	r2, [r3, #44]	@ 0x2c
 8004454:	f8d8 3030 	ldr.w	r3, [r8, #48]	@ 0x30
 8004458:	f8d8 2020 	ldr.w	r2, [r8, #32]
 800445c:	4293      	cmp	r3, r2
 800445e:	d332      	bcc.n	80044c6 <HAL_PCD_IRQHandler+0x862>
 8004460:	1a9b      	subs	r3, r3, r2
 8004462:	f8c8 3030 	str.w	r3, [r8, #48]	@ 0x30
 8004466:	2328      	movs	r3, #40	@ 0x28
 8004468:	fb03 4307 	mla	r3, r3, r7, r4
 800446c:	f893 c011 	ldrb.w	ip, [r3, #17]
 8004470:	b293      	uxth	r3, r2
 8004472:	f1bc 0f00 	cmp.w	ip, #0
 8004476:	d142      	bne.n	80044fe <HAL_PCD_IRQHandler+0x89a>
 8004478:	f8b0 8050 	ldrh.w	r8, [r0, #80]	@ 0x50
 800447c:	f200 4c0c 	addw	ip, r0, #1036	@ 0x40c
 8004480:	fa1f f888 	uxth.w	r8, r8
 8004484:	44c4      	add	ip, r8
 8004486:	0109      	lsls	r1, r1, #4
 8004488:	f83c 8001 	ldrh.w	r8, [ip, r1]
 800448c:	2a3e      	cmp	r2, #62	@ 0x3e
 800448e:	f3c8 0809 	ubfx	r8, r8, #0, #10
 8004492:	f82c 8001 	strh.w	r8, [ip, r1]
 8004496:	d922      	bls.n	80044de <HAL_PCD_IRQHandler+0x87a>
 8004498:	ea4f 1852 	mov.w	r8, r2, lsr #5
 800449c:	06d2      	lsls	r2, r2, #27
 800449e:	f83c 2001 	ldrh.w	r2, [ip, r1]
 80044a2:	bf08      	it	eq
 80044a4:	f108 38ff 	addeq.w	r8, r8, #4294967295
 80044a8:	b292      	uxth	r2, r2
 80044aa:	ea42 2288 	orr.w	r2, r2, r8, lsl #10
 80044ae:	ea6f 4242 	mvn.w	r2, r2, lsl #17
 80044b2:	ea6f 4252 	mvn.w	r2, r2, lsr #17
 80044b6:	b292      	uxth	r2, r2
 80044b8:	f82c 2001 	strh.w	r2, [ip, r1]
 80044bc:	2228      	movs	r2, #40	@ 0x28
 80044be:	fb02 4207 	mla	r2, r2, r7, r4
 80044c2:	8b52      	ldrh	r2, [r2, #26]
 80044c4:	e709      	b.n	80042da <HAL_PCD_IRQHandler+0x676>
 80044c6:	b91b      	cbnz	r3, 80044d0 <HAL_PCD_IRQHandler+0x86c>
 80044c8:	4662      	mov	r2, ip
 80044ca:	f888 3034 	strb.w	r3, [r8, #52]	@ 0x34
 80044ce:	e7ca      	b.n	8004466 <HAL_PCD_IRQHandler+0x802>
 80044d0:	2200      	movs	r2, #0
 80044d2:	f8c8 2030 	str.w	r2, [r8, #48]	@ 0x30
 80044d6:	f888 2034 	strb.w	r2, [r8, #52]	@ 0x34
 80044da:	461a      	mov	r2, r3
 80044dc:	e7c3      	b.n	8004466 <HAL_PCD_IRQHandler+0x802>
 80044de:	b912      	cbnz	r2, 80044e6 <HAL_PCD_IRQHandler+0x882>
 80044e0:	f83c 2001 	ldrh.w	r2, [ip, r1]
 80044e4:	e7e3      	b.n	80044ae <HAL_PCD_IRQHandler+0x84a>
 80044e6:	ea4f 0852 	mov.w	r8, r2, lsr #1
 80044ea:	07d2      	lsls	r2, r2, #31
 80044ec:	f83c 2001 	ldrh.w	r2, [ip, r1]
 80044f0:	bf48      	it	mi
 80044f2:	f108 0801 	addmi.w	r8, r8, #1
 80044f6:	b292      	uxth	r2, r2
 80044f8:	ea42 2288 	orr.w	r2, r2, r8, lsl #10
 80044fc:	e7db      	b.n	80044b6 <HAL_PCD_IRQHandler+0x852>
 80044fe:	f1bc 0f01 	cmp.w	ip, #1
 8004502:	d1db      	bne.n	80044bc <HAL_PCD_IRQHandler+0x858>
 8004504:	f8b0 2050 	ldrh.w	r2, [r0, #80]	@ 0x50
 8004508:	f200 4c0c 	addw	ip, r0, #1036	@ 0x40c
 800450c:	b292      	uxth	r2, r2
 800450e:	4494      	add	ip, r2
 8004510:	010a      	lsls	r2, r1, #4
 8004512:	f82c 3002 	strh.w	r3, [ip, r2]
 8004516:	e7d1      	b.n	80044bc <HAL_PCD_IRQHandler+0x858>
 8004518:	0546      	lsls	r6, r0, #21
 800451a:	d512      	bpl.n	8004542 <HAL_PCD_IRQHandler+0x8de>
 800451c:	6822      	ldr	r2, [r4, #0]
 800451e:	4620      	mov	r0, r4
 8004520:	f8b2 3044 	ldrh.w	r3, [r2, #68]	@ 0x44
 8004524:	f423 6380 	bic.w	r3, r3, #1024	@ 0x400
 8004528:	041b      	lsls	r3, r3, #16
 800452a:	0c1b      	lsrs	r3, r3, #16
 800452c:	f8a2 3044 	strh.w	r3, [r2, #68]	@ 0x44
 8004530:	f003 f825 	bl	800757e <HAL_PCD_ResetCallback>
 8004534:	4629      	mov	r1, r5
 8004536:	4620      	mov	r0, r4
 8004538:	b005      	add	sp, #20
 800453a:	e8bd 4ff0 	ldmia.w	sp!, {r4, r5, r6, r7, r8, r9, sl, fp, lr}
 800453e:	f7ff bb7d 	b.w	8003c3c <HAL_PCD_SetAddress>
 8004542:	0441      	lsls	r1, r0, #17
 8004544:	d50a      	bpl.n	800455c <HAL_PCD_IRQHandler+0x8f8>
 8004546:	6822      	ldr	r2, [r4, #0]
 8004548:	f8b2 3044 	ldrh.w	r3, [r2, #68]	@ 0x44
 800454c:	f423 4380 	bic.w	r3, r3, #16384	@ 0x4000
 8004550:	041b      	lsls	r3, r3, #16
 8004552:	0c1b      	lsrs	r3, r3, #16
 8004554:	f8a2 3044 	strh.w	r3, [r2, #68]	@ 0x44
 8004558:	f7ff bb96 	b.w	8003c88 <HAL_PCD_IRQHandler+0x24>
 800455c:	0482      	lsls	r2, r0, #18
 800455e:	d505      	bpl.n	800456c <HAL_PCD_IRQHandler+0x908>
 8004560:	6822      	ldr	r2, [r4, #0]
 8004562:	f8b2 3044 	ldrh.w	r3, [r2, #68]	@ 0x44
 8004566:	f423 5300 	bic.w	r3, r3, #8192	@ 0x2000
 800456a:	e7f1      	b.n	8004550 <HAL_PCD_IRQHandler+0x8ec>
 800456c:	04c3      	lsls	r3, r0, #19
 800456e:	d519      	bpl.n	80045a4 <HAL_PCD_IRQHandler+0x940>
 8004570:	6822      	ldr	r2, [r4, #0]
 8004572:	4620      	mov	r0, r4
 8004574:	f8b2 3040 	ldrh.w	r3, [r2, #64]	@ 0x40
 8004578:	f023 0304 	bic.w	r3, r3, #4
 800457c:	041b      	lsls	r3, r3, #16
 800457e:	0c1b      	lsrs	r3, r3, #16
 8004580:	f8a2 3040 	strh.w	r3, [r2, #64]	@ 0x40
 8004584:	f8b2 3040 	ldrh.w	r3, [r2, #64]	@ 0x40
 8004588:	f023 0308 	bic.w	r3, r3, #8
 800458c:	041b      	lsls	r3, r3, #16
 800458e:	0c1b      	lsrs	r3, r3, #16
 8004590:	f8a2 3040 	strh.w	r3, [r2, #64]	@ 0x40
 8004594:	f003 f816 	bl	80075c4 <HAL_PCD_ResumeCallback>
 8004598:	6822      	ldr	r2, [r4, #0]
 800459a:	f8b2 3044 	ldrh.w	r3, [r2, #68]	@ 0x44
 800459e:	f423 5380 	bic.w	r3, r3, #4096	@ 0x1000
 80045a2:	e7d5      	b.n	8004550 <HAL_PCD_IRQHandler+0x8ec>
 80045a4:	0507      	lsls	r7, r0, #20
 80045a6:	d548      	bpl.n	800463a <HAL_PCD_IRQHandler+0x9d6>
 80045a8:	4668      	mov	r0, sp
 80045aa:	6823      	ldr	r3, [r4, #0]
 80045ac:	4606      	mov	r6, r0
 80045ae:	4619      	mov	r1, r3
 80045b0:	461a      	mov	r2, r3
 80045b2:	f103 0520 	add.w	r5, r3, #32
 80045b6:	f832 7b04 	ldrh.w	r7, [r2], #4
 80045ba:	4295      	cmp	r5, r2
 80045bc:	f826 7b02 	strh.w	r7, [r6], #2
 80045c0:	d1f9      	bne.n	80045b6 <HAL_PCD_IRQHandler+0x952>
 80045c2:	f8b3 2040 	ldrh.w	r2, [r3, #64]	@ 0x40
 80045c6:	b292      	uxth	r2, r2
 80045c8:	f042 0201 	orr.w	r2, r2, #1
 80045cc:	f8a3 2040 	strh.w	r2, [r3, #64]	@ 0x40
 80045d0:	f8b3 2040 	ldrh.w	r2, [r3, #64]	@ 0x40
 80045d4:	f022 0201 	bic.w	r2, r2, #1
 80045d8:	0412      	lsls	r2, r2, #16
 80045da:	0c12      	lsrs	r2, r2, #16
 80045dc:	f8a3 2040 	strh.w	r2, [r3, #64]	@ 0x40
 80045e0:	f8b3 2044 	ldrh.w	r2, [r3, #68]	@ 0x44
 80045e4:	0556      	lsls	r6, r2, #21
 80045e6:	d5fb      	bpl.n	80045e0 <HAL_PCD_IRQHandler+0x97c>
 80045e8:	f8b3 2044 	ldrh.w	r2, [r3, #68]	@ 0x44
 80045ec:	f422 6280 	bic.w	r2, r2, #1024	@ 0x400
 80045f0:	0412      	lsls	r2, r2, #16
 80045f2:	0c12      	lsrs	r2, r2, #16
 80045f4:	f8a3 2044 	strh.w	r2, [r3, #68]	@ 0x44
 80045f8:	f830 2b02 	ldrh.w	r2, [r0], #2
 80045fc:	f821 2b04 	strh.w	r2, [r1], #4
 8004600:	428d      	cmp	r5, r1
 8004602:	d1f9      	bne.n	80045f8 <HAL_PCD_IRQHandler+0x994>
 8004604:	f8b3 2040 	ldrh.w	r2, [r3, #64]	@ 0x40
 8004608:	4620      	mov	r0, r4
 800460a:	b292      	uxth	r2, r2
 800460c:	f042 0208 	orr.w	r2, r2, #8
 8004610:	f8a3 2040 	strh.w	r2, [r3, #64]	@ 0x40
 8004614:	f8b3 2044 	ldrh.w	r2, [r3, #68]	@ 0x44
 8004618:	f422 6200 	bic.w	r2, r2, #2048	@ 0x800
 800461c:	0412      	lsls	r2, r2, #16
 800461e:	0c12      	lsrs	r2, r2, #16
 8004620:	f8a3 2044 	strh.w	r2, [r3, #68]	@ 0x44
 8004624:	f8b3 2040 	ldrh.w	r2, [r3, #64]	@ 0x40
 8004628:	b292      	uxth	r2, r2
 800462a:	f042 0204 	orr.w	r2, r2, #4
 800462e:	f8a3 2040 	strh.w	r2, [r3, #64]	@ 0x40
 8004632:	f002 ffb7 	bl	80075a4 <HAL_PCD_SuspendCallback>
 8004636:	f7ff bb27 	b.w	8003c88 <HAL_PCD_IRQHandler+0x24>
 800463a:	0582      	lsls	r2, r0, #22
 800463c:	d50d      	bpl.n	800465a <HAL_PCD_IRQHandler+0x9f6>
 800463e:	6822      	ldr	r2, [r4, #0]
 8004640:	4620      	mov	r0, r4
 8004642:	f8b2 3044 	ldrh.w	r3, [r2, #68]	@ 0x44
 8004646:	f423 7300 	bic.w	r3, r3, #512	@ 0x200
 800464a:	041b      	lsls	r3, r3, #16
 800464c:	0c1b      	lsrs	r3, r3, #16
 800464e:	f8a2 3044 	strh.w	r3, [r2, #68]	@ 0x44
 8004652:	f002 ff90 	bl	8007576 <HAL_PCD_SOFCallback>
 8004656:	f7ff bb17 	b.w	8003c88 <HAL_PCD_IRQHandler+0x24>
 800465a:	05c3      	lsls	r3, r0, #23
 800465c:	f57f ab14 	bpl.w	8003c88 <HAL_PCD_IRQHandler+0x24>
 8004660:	6822      	ldr	r2, [r4, #0]
 8004662:	f8b2 3044 	ldrh.w	r3, [r2, #68]	@ 0x44
 8004666:	f423 7380 	bic.w	r3, r3, #256	@ 0x100
 800466a:	e771      	b.n	8004550 <HAL_PCD_IRQHandler+0x8ec>

0800466c <HAL_PCD_EP_Open>:
 800466c:	b570      	push	{r4, r5, r6, lr}
 800466e:	2428      	movs	r4, #40	@ 0x28
 8004670:	4605      	mov	r5, r0
 8004672:	f001 0007 	and.w	r0, r1, #7
 8004676:	4344      	muls	r4, r0
 8004678:	f011 0f80 	tst.w	r1, #128	@ 0x80
 800467c:	bf14      	ite	ne
 800467e:	f104 0110 	addne.w	r1, r4, #16
 8004682:	f504 71a8 	addeq.w	r1, r4, #336	@ 0x150
 8004686:	eb05 0604 	add.w	r6, r5, r4
 800468a:	bf15      	itete	ne
 800468c:	2401      	movne	r4, #1
 800468e:	2400      	moveq	r4, #0
 8004690:	7474      	strbne	r4, [r6, #17]
 8004692:	f886 4151 	strbeq.w	r4, [r6, #337]	@ 0x151
 8004696:	bf14      	ite	ne
 8004698:	1949      	addne	r1, r1, r5
 800469a:	1949      	addeq	r1, r1, r5
 800469c:	2b02      	cmp	r3, #2
 800469e:	70cb      	strb	r3, [r1, #3]
 80046a0:	bf08      	it	eq
 80046a2:	2300      	moveq	r3, #0
 80046a4:	7008      	strb	r0, [r1, #0]
 80046a6:	bf08      	it	eq
 80046a8:	710b      	strbeq	r3, [r1, #4]
 80046aa:	610a      	str	r2, [r1, #16]
 80046ac:	f895 3290 	ldrb.w	r3, [r5, #656]	@ 0x290
 80046b0:	2b01      	cmp	r3, #1
 80046b2:	d009      	beq.n	80046c8 <HAL_PCD_EP_Open+0x5c>
 80046b4:	2301      	movs	r3, #1
 80046b6:	6828      	ldr	r0, [r5, #0]
 80046b8:	f885 3290 	strb.w	r3, [r5, #656]	@ 0x290
 80046bc:	f001 f97c 	bl	80059b8 <USB_ActivateEndpoint>
 80046c0:	2000      	movs	r0, #0
 80046c2:	f885 0290 	strb.w	r0, [r5, #656]	@ 0x290
 80046c6:	bd70      	pop	{r4, r5, r6, pc}
 80046c8:	2002      	movs	r0, #2
 80046ca:	e7fc      	b.n	80046c6 <HAL_PCD_EP_Open+0x5a>

080046cc <HAL_PCD_EP_Receive>:
 80046cc:	b570      	push	{r4, r5, r6, lr}
 80046ce:	2428      	movs	r4, #40	@ 0x28
 80046d0:	2600      	movs	r6, #0
 80046d2:	f001 0107 	and.w	r1, r1, #7
 80046d6:	434c      	muls	r4, r1
 80046d8:	1905      	adds	r5, r0, r4
 80046da:	f885 1150 	strb.w	r1, [r5, #336]	@ 0x150
 80046de:	f504 71a8 	add.w	r1, r4, #336	@ 0x150
 80046e2:	4401      	add	r1, r0
 80046e4:	e9c5 2359 	strd	r2, r3, [r5, #356]	@ 0x164
 80046e8:	f8c5 616c 	str.w	r6, [r5, #364]	@ 0x16c
 80046ec:	f885 6151 	strb.w	r6, [r5, #337]	@ 0x151
 80046f0:	6800      	ldr	r0, [r0, #0]
 80046f2:	f001 fb46 	bl	8005d82 <USB_EPStartXfer>
 80046f6:	4630      	mov	r0, r6
 80046f8:	bd70      	pop	{r4, r5, r6, pc}

080046fa <HAL_PCD_EP_Transmit>:
 80046fa:	b570      	push	{r4, r5, r6, lr}
 80046fc:	2528      	movs	r5, #40	@ 0x28
 80046fe:	f001 0107 	and.w	r1, r1, #7
 8004702:	434d      	muls	r5, r1
 8004704:	1944      	adds	r4, r0, r5
 8004706:	2600      	movs	r6, #0
 8004708:	e9c4 2309 	strd	r2, r3, [r4, #36]	@ 0x24
 800470c:	2201      	movs	r2, #1
 800470e:	7421      	strb	r1, [r4, #16]
 8004710:	f105 0110 	add.w	r1, r5, #16
 8004714:	4401      	add	r1, r0
 8004716:	f884 2034 	strb.w	r2, [r4, #52]	@ 0x34
 800471a:	6323      	str	r3, [r4, #48]	@ 0x30
 800471c:	62e6      	str	r6, [r4, #44]	@ 0x2c
 800471e:	7462      	strb	r2, [r4, #17]
 8004720:	6800      	ldr	r0, [r0, #0]
 8004722:	f001 fb2e 	bl	8005d82 <USB_EPStartXfer>
 8004726:	4630      	mov	r0, r6
 8004728:	bd70      	pop	{r4, r5, r6, pc}

0800472a <HAL_PCD_EP_SetStall>:
 800472a:	b538      	push	{r3, r4, r5, lr}
 800472c:	7903      	ldrb	r3, [r0, #4]
 800472e:	f001 0507 	and.w	r5, r1, #7
 8004732:	42ab      	cmp	r3, r5
 8004734:	4604      	mov	r4, r0
 8004736:	d32a      	bcc.n	800478e <HAL_PCD_EP_SetStall+0x64>
 8004738:	f011 0f80 	tst.w	r1, #128	@ 0x80
 800473c:	f04f 0328 	mov.w	r3, #40	@ 0x28
 8004740:	d01c      	beq.n	800477c <HAL_PCD_EP_SetStall+0x52>
 8004742:	2201      	movs	r2, #1
 8004744:	436b      	muls	r3, r5
 8004746:	f103 0110 	add.w	r1, r3, #16
 800474a:	4403      	add	r3, r0
 800474c:	4401      	add	r1, r0
 800474e:	745a      	strb	r2, [r3, #17]
 8004750:	2301      	movs	r3, #1
 8004752:	700d      	strb	r5, [r1, #0]
 8004754:	708b      	strb	r3, [r1, #2]
 8004756:	f894 2290 	ldrb.w	r2, [r4, #656]	@ 0x290
 800475a:	429a      	cmp	r2, r3
 800475c:	d019      	beq.n	8004792 <HAL_PCD_EP_SetStall+0x68>
 800475e:	6820      	ldr	r0, [r4, #0]
 8004760:	f884 3290 	strb.w	r3, [r4, #656]	@ 0x290
 8004764:	f001 fa88 	bl	8005c78 <USB_EPSetStall>
 8004768:	b925      	cbnz	r5, 8004774 <HAL_PCD_EP_SetStall+0x4a>
 800476a:	6820      	ldr	r0, [r4, #0]
 800476c:	f504 7126 	add.w	r1, r4, #664	@ 0x298
 8004770:	f001 faf5 	bl	8005d5e <USB_EP0_OutStart>
 8004774:	2000      	movs	r0, #0
 8004776:	f884 0290 	strb.w	r0, [r4, #656]	@ 0x290
 800477a:	bd38      	pop	{r3, r4, r5, pc}
 800477c:	2200      	movs	r2, #0
 800477e:	434b      	muls	r3, r1
 8004780:	f503 71a8 	add.w	r1, r3, #336	@ 0x150
 8004784:	4403      	add	r3, r0
 8004786:	4401      	add	r1, r0
 8004788:	f883 2151 	strb.w	r2, [r3, #337]	@ 0x151
 800478c:	e7e0      	b.n	8004750 <HAL_PCD_EP_SetStall+0x26>
 800478e:	2001      	movs	r0, #1
 8004790:	e7f3      	b.n	800477a <HAL_PCD_EP_SetStall+0x50>
 8004792:	2002      	movs	r0, #2
 8004794:	e7f1      	b.n	800477a <HAL_PCD_EP_SetStall+0x50>

08004796 <HAL_PCD_EP_ClrStall>:
 8004796:	b538      	push	{r3, r4, r5, lr}
 8004798:	7902      	ldrb	r2, [r0, #4]
 800479a:	f001 030f 	and.w	r3, r1, #15
 800479e:	429a      	cmp	r2, r3
 80047a0:	4604      	mov	r4, r0
 80047a2:	d326      	bcc.n	80047f2 <HAL_PCD_EP_ClrStall+0x5c>
 80047a4:	2328      	movs	r3, #40	@ 0x28
 80047a6:	f001 0207 	and.w	r2, r1, #7
 80047aa:	4353      	muls	r3, r2
 80047ac:	f011 0f80 	tst.w	r1, #128	@ 0x80
 80047b0:	bf14      	ite	ne
 80047b2:	f103 0110 	addne.w	r1, r3, #16
 80047b6:	f503 71a8 	addeq.w	r1, r3, #336	@ 0x150
 80047ba:	4418      	add	r0, r3
 80047bc:	f04f 0500 	mov.w	r5, #0
 80047c0:	bf15      	itete	ne
 80047c2:	2301      	movne	r3, #1
 80047c4:	2300      	moveq	r3, #0
 80047c6:	1909      	addne	r1, r1, r4
 80047c8:	1909      	addeq	r1, r1, r4
 80047ca:	bf14      	ite	ne
 80047cc:	7443      	strbne	r3, [r0, #17]
 80047ce:	f880 3151 	strbeq.w	r3, [r0, #337]	@ 0x151
 80047d2:	708d      	strb	r5, [r1, #2]
 80047d4:	700a      	strb	r2, [r1, #0]
 80047d6:	f894 3290 	ldrb.w	r3, [r4, #656]	@ 0x290
 80047da:	2b01      	cmp	r3, #1
 80047dc:	d00b      	beq.n	80047f6 <HAL_PCD_EP_ClrStall+0x60>
 80047de:	2301      	movs	r3, #1
 80047e0:	6820      	ldr	r0, [r4, #0]
 80047e2:	f884 3290 	strb.w	r3, [r4, #656]	@ 0x290
 80047e6:	f001 fa67 	bl	8005cb8 <USB_EPClearStall>
 80047ea:	4628      	mov	r0, r5
 80047ec:	f884 5290 	strb.w	r5, [r4, #656]	@ 0x290
 80047f0:	bd38      	pop	{r3, r4, r5, pc}
 80047f2:	2001      	movs	r0, #1
 80047f4:	e7fc      	b.n	80047f0 <HAL_PCD_EP_ClrStall+0x5a>
 80047f6:	2002      	movs	r0, #2
 80047f8:	e7fa      	b.n	80047f0 <HAL_PCD_EP_ClrStall+0x5a>
	...

080047fc <HAL_RCC_OscConfig>:
 80047fc:	e92d 41f3 	stmdb	sp!, {r0, r1, r4, r5, r6, r7, r8, lr}
 8004800:	4605      	mov	r5, r0
 8004802:	b338      	cbz	r0, 8004854 <HAL_RCC_OscConfig+0x58>
 8004804:	6803      	ldr	r3, [r0, #0]
 8004806:	07db      	lsls	r3, r3, #31
 8004808:	d410      	bmi.n	800482c <HAL_RCC_OscConfig+0x30>
 800480a:	682b      	ldr	r3, [r5, #0]
 800480c:	079f      	lsls	r7, r3, #30
 800480e:	d45e      	bmi.n	80048ce <HAL_RCC_OscConfig+0xd2>
 8004810:	682b      	ldr	r3, [r5, #0]
 8004812:	0719      	lsls	r1, r3, #28
 8004814:	f100 8095 	bmi.w	8004942 <HAL_RCC_OscConfig+0x146>
 8004818:	682b      	ldr	r3, [r5, #0]
 800481a:	075a      	lsls	r2, r3, #29
 800481c:	f100 80c1 	bmi.w	80049a2 <HAL_RCC_OscConfig+0x1a6>
 8004820:	69eb      	ldr	r3, [r5, #28]
 8004822:	2b00      	cmp	r3, #0
 8004824:	f040 812c 	bne.w	8004a80 <HAL_RCC_OscConfig+0x284>
 8004828:	2000      	movs	r0, #0
 800482a:	e029      	b.n	8004880 <HAL_RCC_OscConfig+0x84>
 800482c:	4c90      	ldr	r4, [pc, #576]	@ (8004a70 <HAL_RCC_OscConfig+0x274>)
 800482e:	6863      	ldr	r3, [r4, #4]
 8004830:	f003 030c 	and.w	r3, r3, #12
 8004834:	2b04      	cmp	r3, #4
 8004836:	d007      	beq.n	8004848 <HAL_RCC_OscConfig+0x4c>
 8004838:	6863      	ldr	r3, [r4, #4]
 800483a:	f003 030c 	and.w	r3, r3, #12
 800483e:	2b08      	cmp	r3, #8
 8004840:	d10a      	bne.n	8004858 <HAL_RCC_OscConfig+0x5c>
 8004842:	6863      	ldr	r3, [r4, #4]
 8004844:	03de      	lsls	r6, r3, #15
 8004846:	d507      	bpl.n	8004858 <HAL_RCC_OscConfig+0x5c>
 8004848:	6823      	ldr	r3, [r4, #0]
 800484a:	039c      	lsls	r4, r3, #14
 800484c:	d5dd      	bpl.n	800480a <HAL_RCC_OscConfig+0xe>
 800484e:	686b      	ldr	r3, [r5, #4]
 8004850:	2b00      	cmp	r3, #0
 8004852:	d1da      	bne.n	800480a <HAL_RCC_OscConfig+0xe>
 8004854:	2001      	movs	r0, #1
 8004856:	e013      	b.n	8004880 <HAL_RCC_OscConfig+0x84>
 8004858:	686b      	ldr	r3, [r5, #4]
 800485a:	f5b3 3f80 	cmp.w	r3, #65536	@ 0x10000
 800485e:	d112      	bne.n	8004886 <HAL_RCC_OscConfig+0x8a>
 8004860:	6823      	ldr	r3, [r4, #0]
 8004862:	f443 3380 	orr.w	r3, r3, #65536	@ 0x10000
 8004866:	6023      	str	r3, [r4, #0]
 8004868:	f7fe fbcc 	bl	8003004 <HAL_GetTick>
 800486c:	4606      	mov	r6, r0
 800486e:	6823      	ldr	r3, [r4, #0]
 8004870:	0398      	lsls	r0, r3, #14
 8004872:	d4ca      	bmi.n	800480a <HAL_RCC_OscConfig+0xe>
 8004874:	f7fe fbc6 	bl	8003004 <HAL_GetTick>
 8004878:	1b80      	subs	r0, r0, r6
 800487a:	2864      	cmp	r0, #100	@ 0x64
 800487c:	d9f7      	bls.n	800486e <HAL_RCC_OscConfig+0x72>
 800487e:	2003      	movs	r0, #3
 8004880:	b002      	add	sp, #8
 8004882:	e8bd 81f0 	ldmia.w	sp!, {r4, r5, r6, r7, r8, pc}
 8004886:	b99b      	cbnz	r3, 80048b0 <HAL_RCC_OscConfig+0xb4>
 8004888:	6823      	ldr	r3, [r4, #0]
 800488a:	f423 3380 	bic.w	r3, r3, #65536	@ 0x10000
 800488e:	6023      	str	r3, [r4, #0]
 8004890:	6823      	ldr	r3, [r4, #0]
 8004892:	f423 2380 	bic.w	r3, r3, #262144	@ 0x40000
 8004896:	6023      	str	r3, [r4, #0]
 8004898:	f7fe fbb4 	bl	8003004 <HAL_GetTick>
 800489c:	4606      	mov	r6, r0
 800489e:	6823      	ldr	r3, [r4, #0]
 80048a0:	0399      	lsls	r1, r3, #14
 80048a2:	d5b2      	bpl.n	800480a <HAL_RCC_OscConfig+0xe>
 80048a4:	f7fe fbae 	bl	8003004 <HAL_GetTick>
 80048a8:	1b80      	subs	r0, r0, r6
 80048aa:	2864      	cmp	r0, #100	@ 0x64
 80048ac:	d9f7      	bls.n	800489e <HAL_RCC_OscConfig+0xa2>
 80048ae:	e7e6      	b.n	800487e <HAL_RCC_OscConfig+0x82>
 80048b0:	f5b3 2fa0 	cmp.w	r3, #327680	@ 0x50000
 80048b4:	6823      	ldr	r3, [r4, #0]
 80048b6:	d103      	bne.n	80048c0 <HAL_RCC_OscConfig+0xc4>
 80048b8:	f443 2380 	orr.w	r3, r3, #262144	@ 0x40000
 80048bc:	6023      	str	r3, [r4, #0]
 80048be:	e7cf      	b.n	8004860 <HAL_RCC_OscConfig+0x64>
 80048c0:	f423 3380 	bic.w	r3, r3, #65536	@ 0x10000
 80048c4:	6023      	str	r3, [r4, #0]
 80048c6:	6823      	ldr	r3, [r4, #0]
 80048c8:	f423 2380 	bic.w	r3, r3, #262144	@ 0x40000
 80048cc:	e7cb      	b.n	8004866 <HAL_RCC_OscConfig+0x6a>
 80048ce:	4c68      	ldr	r4, [pc, #416]	@ (8004a70 <HAL_RCC_OscConfig+0x274>)
 80048d0:	6863      	ldr	r3, [r4, #4]
 80048d2:	f013 0f0c 	tst.w	r3, #12
 80048d6:	d007      	beq.n	80048e8 <HAL_RCC_OscConfig+0xec>
 80048d8:	6863      	ldr	r3, [r4, #4]
 80048da:	f003 030c 	and.w	r3, r3, #12
 80048de:	2b08      	cmp	r3, #8
 80048e0:	d110      	bne.n	8004904 <HAL_RCC_OscConfig+0x108>
 80048e2:	6863      	ldr	r3, [r4, #4]
 80048e4:	03da      	lsls	r2, r3, #15
 80048e6:	d40d      	bmi.n	8004904 <HAL_RCC_OscConfig+0x108>
 80048e8:	6823      	ldr	r3, [r4, #0]
 80048ea:	079b      	lsls	r3, r3, #30
 80048ec:	d502      	bpl.n	80048f4 <HAL_RCC_OscConfig+0xf8>
 80048ee:	692b      	ldr	r3, [r5, #16]
 80048f0:	2b01      	cmp	r3, #1
 80048f2:	d1af      	bne.n	8004854 <HAL_RCC_OscConfig+0x58>
 80048f4:	6823      	ldr	r3, [r4, #0]
 80048f6:	696a      	ldr	r2, [r5, #20]
 80048f8:	f023 03f8 	bic.w	r3, r3, #248	@ 0xf8
 80048fc:	ea43 03c2 	orr.w	r3, r3, r2, lsl #3
 8004900:	6023      	str	r3, [r4, #0]
 8004902:	e785      	b.n	8004810 <HAL_RCC_OscConfig+0x14>
 8004904:	692a      	ldr	r2, [r5, #16]
 8004906:	4b5b      	ldr	r3, [pc, #364]	@ (8004a74 <HAL_RCC_OscConfig+0x278>)
 8004908:	b16a      	cbz	r2, 8004926 <HAL_RCC_OscConfig+0x12a>
 800490a:	2201      	movs	r2, #1
 800490c:	601a      	str	r2, [r3, #0]
 800490e:	f7fe fb79 	bl	8003004 <HAL_GetTick>
 8004912:	4606      	mov	r6, r0
 8004914:	6823      	ldr	r3, [r4, #0]
 8004916:	079f      	lsls	r7, r3, #30
 8004918:	d4ec      	bmi.n	80048f4 <HAL_RCC_OscConfig+0xf8>
 800491a:	f7fe fb73 	bl	8003004 <HAL_GetTick>
 800491e:	1b80      	subs	r0, r0, r6
 8004920:	2802      	cmp	r0, #2
 8004922:	d9f7      	bls.n	8004914 <HAL_RCC_OscConfig+0x118>
 8004924:	e7ab      	b.n	800487e <HAL_RCC_OscConfig+0x82>
 8004926:	601a      	str	r2, [r3, #0]
 8004928:	f7fe fb6c 	bl	8003004 <HAL_GetTick>
 800492c:	4606      	mov	r6, r0
 800492e:	6823      	ldr	r3, [r4, #0]
 8004930:	0798      	lsls	r0, r3, #30
 8004932:	f57f af6d 	bpl.w	8004810 <HAL_RCC_OscConfig+0x14>
 8004936:	f7fe fb65 	bl	8003004 <HAL_GetTick>
 800493a:	1b80      	subs	r0, r0, r6
 800493c:	2802      	cmp	r0, #2
 800493e:	d9f6      	bls.n	800492e <HAL_RCC_OscConfig+0x132>
 8004940:	e79d      	b.n	800487e <HAL_RCC_OscConfig+0x82>
 8004942:	69aa      	ldr	r2, [r5, #24]
 8004944:	4e4a      	ldr	r6, [pc, #296]	@ (8004a70 <HAL_RCC_OscConfig+0x274>)
 8004946:	4b4b      	ldr	r3, [pc, #300]	@ (8004a74 <HAL_RCC_OscConfig+0x278>)
 8004948:	b1e2      	cbz	r2, 8004984 <HAL_RCC_OscConfig+0x188>
 800494a:	2201      	movs	r2, #1
 800494c:	f8c3 2480 	str.w	r2, [r3, #1152]	@ 0x480
 8004950:	f7fe fb58 	bl	8003004 <HAL_GetTick>
 8004954:	4604      	mov	r4, r0
 8004956:	6a73      	ldr	r3, [r6, #36]	@ 0x24
 8004958:	079b      	lsls	r3, r3, #30
 800495a:	d50d      	bpl.n	8004978 <HAL_RCC_OscConfig+0x17c>
 800495c:	f44f 52fa 	mov.w	r2, #8000	@ 0x1f40
 8004960:	4b45      	ldr	r3, [pc, #276]	@ (8004a78 <HAL_RCC_OscConfig+0x27c>)
 8004962:	681b      	ldr	r3, [r3, #0]
 8004964:	fbb3 f3f2 	udiv	r3, r3, r2
 8004968:	9301      	str	r3, [sp, #4]
 800496a:	bf00      	nop
 800496c:	9b01      	ldr	r3, [sp, #4]
 800496e:	1e5a      	subs	r2, r3, #1
 8004970:	9201      	str	r2, [sp, #4]
 8004972:	2b00      	cmp	r3, #0
 8004974:	d1f9      	bne.n	800496a <HAL_RCC_OscConfig+0x16e>
 8004976:	e74f      	b.n	8004818 <HAL_RCC_OscConfig+0x1c>
 8004978:	f7fe fb44 	bl	8003004 <HAL_GetTick>
 800497c:	1b00      	subs	r0, r0, r4
 800497e:	2802      	cmp	r0, #2
 8004980:	d9e9      	bls.n	8004956 <HAL_RCC_OscConfig+0x15a>
 8004982:	e77c      	b.n	800487e <HAL_RCC_OscConfig+0x82>
 8004984:	f8c3 2480 	str.w	r2, [r3, #1152]	@ 0x480
 8004988:	f7fe fb3c 	bl	8003004 <HAL_GetTick>
 800498c:	4604      	mov	r4, r0
 800498e:	6a73      	ldr	r3, [r6, #36]	@ 0x24
 8004990:	079f      	lsls	r7, r3, #30
 8004992:	f57f af41 	bpl.w	8004818 <HAL_RCC_OscConfig+0x1c>
 8004996:	f7fe fb35 	bl	8003004 <HAL_GetTick>
 800499a:	1b00      	subs	r0, r0, r4
 800499c:	2802      	cmp	r0, #2
 800499e:	d9f6      	bls.n	800498e <HAL_RCC_OscConfig+0x192>
 80049a0:	e76d      	b.n	800487e <HAL_RCC_OscConfig+0x82>
 80049a2:	4c33      	ldr	r4, [pc, #204]	@ (8004a70 <HAL_RCC_OscConfig+0x274>)
 80049a4:	69e3      	ldr	r3, [r4, #28]
 80049a6:	00d8      	lsls	r0, r3, #3
 80049a8:	d424      	bmi.n	80049f4 <HAL_RCC_OscConfig+0x1f8>
 80049aa:	2701      	movs	r7, #1
 80049ac:	69e3      	ldr	r3, [r4, #28]
 80049ae:	f043 5380 	orr.w	r3, r3, #268435456	@ 0x10000000
 80049b2:	61e3      	str	r3, [r4, #28]
 80049b4:	69e3      	ldr	r3, [r4, #28]
 80049b6:	f003 5380 	and.w	r3, r3, #268435456	@ 0x10000000
 80049ba:	9300      	str	r3, [sp, #0]
 80049bc:	9b00      	ldr	r3, [sp, #0]
 80049be:	4e2f      	ldr	r6, [pc, #188]	@ (8004a7c <HAL_RCC_OscConfig+0x280>)
 80049c0:	6833      	ldr	r3, [r6, #0]
 80049c2:	05d9      	lsls	r1, r3, #23
 80049c4:	d518      	bpl.n	80049f8 <HAL_RCC_OscConfig+0x1fc>
 80049c6:	68eb      	ldr	r3, [r5, #12]
 80049c8:	2b01      	cmp	r3, #1
 80049ca:	d126      	bne.n	8004a1a <HAL_RCC_OscConfig+0x21e>
 80049cc:	6a23      	ldr	r3, [r4, #32]
 80049ce:	f043 0301 	orr.w	r3, r3, #1
 80049d2:	6223      	str	r3, [r4, #32]
 80049d4:	f7fe fb16 	bl	8003004 <HAL_GetTick>
 80049d8:	f241 3888 	movw	r8, #5000	@ 0x1388
 80049dc:	4606      	mov	r6, r0
 80049de:	6a23      	ldr	r3, [r4, #32]
 80049e0:	079b      	lsls	r3, r3, #30
 80049e2:	d53f      	bpl.n	8004a64 <HAL_RCC_OscConfig+0x268>
 80049e4:	2f00      	cmp	r7, #0
 80049e6:	f43f af1b 	beq.w	8004820 <HAL_RCC_OscConfig+0x24>
 80049ea:	69e3      	ldr	r3, [r4, #28]
 80049ec:	f023 5380 	bic.w	r3, r3, #268435456	@ 0x10000000
 80049f0:	61e3      	str	r3, [r4, #28]
 80049f2:	e715      	b.n	8004820 <HAL_RCC_OscConfig+0x24>
 80049f4:	2700      	movs	r7, #0
 80049f6:	e7e2      	b.n	80049be <HAL_RCC_OscConfig+0x1c2>
 80049f8:	6833      	ldr	r3, [r6, #0]
 80049fa:	f443 7380 	orr.w	r3, r3, #256	@ 0x100
 80049fe:	6033      	str	r3, [r6, #0]
 8004a00:	f7fe fb00 	bl	8003004 <HAL_GetTick>
 8004a04:	4680      	mov	r8, r0
 8004a06:	6833      	ldr	r3, [r6, #0]
 8004a08:	05da      	lsls	r2, r3, #23
 8004a0a:	d4dc      	bmi.n	80049c6 <HAL_RCC_OscConfig+0x1ca>
 8004a0c:	f7fe fafa 	bl	8003004 <HAL_GetTick>
 8004a10:	eba0 0008 	sub.w	r0, r0, r8
 8004a14:	2864      	cmp	r0, #100	@ 0x64
 8004a16:	d9f6      	bls.n	8004a06 <HAL_RCC_OscConfig+0x20a>
 8004a18:	e731      	b.n	800487e <HAL_RCC_OscConfig+0x82>
 8004a1a:	b9ab      	cbnz	r3, 8004a48 <HAL_RCC_OscConfig+0x24c>
 8004a1c:	6a23      	ldr	r3, [r4, #32]
 8004a1e:	f241 3888 	movw	r8, #5000	@ 0x1388
 8004a22:	f023 0301 	bic.w	r3, r3, #1
 8004a26:	6223      	str	r3, [r4, #32]
 8004a28:	6a23      	ldr	r3, [r4, #32]
 8004a2a:	f023 0304 	bic.w	r3, r3, #4
 8004a2e:	6223      	str	r3, [r4, #32]
 8004a30:	f7fe fae8 	bl	8003004 <HAL_GetTick>
 8004a34:	4606      	mov	r6, r0
 8004a36:	6a23      	ldr	r3, [r4, #32]
 8004a38:	0798      	lsls	r0, r3, #30
 8004a3a:	d5d3      	bpl.n	80049e4 <HAL_RCC_OscConfig+0x1e8>
 8004a3c:	f7fe fae2 	bl	8003004 <HAL_GetTick>
 8004a40:	1b80      	subs	r0, r0, r6
 8004a42:	4540      	cmp	r0, r8
 8004a44:	d9f7      	bls.n	8004a36 <HAL_RCC_OscConfig+0x23a>
 8004a46:	e71a      	b.n	800487e <HAL_RCC_OscConfig+0x82>
 8004a48:	2b05      	cmp	r3, #5
 8004a4a:	6a23      	ldr	r3, [r4, #32]
 8004a4c:	d103      	bne.n	8004a56 <HAL_RCC_OscConfig+0x25a>
 8004a4e:	f043 0304 	orr.w	r3, r3, #4
 8004a52:	6223      	str	r3, [r4, #32]
 8004a54:	e7ba      	b.n	80049cc <HAL_RCC_OscConfig+0x1d0>
 8004a56:	f023 0301 	bic.w	r3, r3, #1
 8004a5a:	6223      	str	r3, [r4, #32]
 8004a5c:	6a23      	ldr	r3, [r4, #32]
 8004a5e:	f023 0304 	bic.w	r3, r3, #4
 8004a62:	e7b6      	b.n	80049d2 <HAL_RCC_OscConfig+0x1d6>
 8004a64:	f7fe face 	bl	8003004 <HAL_GetTick>
 8004a68:	1b80      	subs	r0, r0, r6
 8004a6a:	4540      	cmp	r0, r8
 8004a6c:	d9b7      	bls.n	80049de <HAL_RCC_OscConfig+0x1e2>
 8004a6e:	e706      	b.n	800487e <HAL_RCC_OscConfig+0x82>
 8004a70:	40021000 	.word	0x40021000
 8004a74:	42420000 	.word	0x42420000
 8004a78:	2000000c 	.word	0x2000000c
 8004a7c:	40007000 	.word	0x40007000
 8004a80:	4c2a      	ldr	r4, [pc, #168]	@ (8004b2c <HAL_RCC_OscConfig+0x330>)
 8004a82:	6862      	ldr	r2, [r4, #4]
 8004a84:	f002 020c 	and.w	r2, r2, #12
 8004a88:	2a08      	cmp	r2, #8
 8004a8a:	d03e      	beq.n	8004b0a <HAL_RCC_OscConfig+0x30e>
 8004a8c:	2200      	movs	r2, #0
 8004a8e:	2b02      	cmp	r3, #2
 8004a90:	4b27      	ldr	r3, [pc, #156]	@ (8004b30 <HAL_RCC_OscConfig+0x334>)
 8004a92:	661a      	str	r2, [r3, #96]	@ 0x60
 8004a94:	d12c      	bne.n	8004af0 <HAL_RCC_OscConfig+0x2f4>
 8004a96:	f7fe fab5 	bl	8003004 <HAL_GetTick>
 8004a9a:	4606      	mov	r6, r0
 8004a9c:	6823      	ldr	r3, [r4, #0]
 8004a9e:	0199      	lsls	r1, r3, #6
 8004aa0:	d420      	bmi.n	8004ae4 <HAL_RCC_OscConfig+0x2e8>
 8004aa2:	6a2b      	ldr	r3, [r5, #32]
 8004aa4:	f5b3 3f80 	cmp.w	r3, #65536	@ 0x10000
 8004aa8:	d105      	bne.n	8004ab6 <HAL_RCC_OscConfig+0x2ba>
 8004aaa:	6862      	ldr	r2, [r4, #4]
 8004aac:	68a9      	ldr	r1, [r5, #8]
 8004aae:	f422 3200 	bic.w	r2, r2, #131072	@ 0x20000
 8004ab2:	430a      	orrs	r2, r1
 8004ab4:	6062      	str	r2, [r4, #4]
 8004ab6:	6a69      	ldr	r1, [r5, #36]	@ 0x24
 8004ab8:	6862      	ldr	r2, [r4, #4]
 8004aba:	430b      	orrs	r3, r1
 8004abc:	f422 1274 	bic.w	r2, r2, #3997696	@ 0x3d0000
 8004ac0:	4313      	orrs	r3, r2
 8004ac2:	2201      	movs	r2, #1
 8004ac4:	6063      	str	r3, [r4, #4]
 8004ac6:	4b1a      	ldr	r3, [pc, #104]	@ (8004b30 <HAL_RCC_OscConfig+0x334>)
 8004ac8:	661a      	str	r2, [r3, #96]	@ 0x60
 8004aca:	f7fe fa9b 	bl	8003004 <HAL_GetTick>
 8004ace:	4605      	mov	r5, r0
 8004ad0:	6823      	ldr	r3, [r4, #0]
 8004ad2:	019a      	lsls	r2, r3, #6
 8004ad4:	f53f aea8 	bmi.w	8004828 <HAL_RCC_OscConfig+0x2c>
 8004ad8:	f7fe fa94 	bl	8003004 <HAL_GetTick>
 8004adc:	1b40      	subs	r0, r0, r5
 8004ade:	2802      	cmp	r0, #2
 8004ae0:	d9f6      	bls.n	8004ad0 <HAL_RCC_OscConfig+0x2d4>
 8004ae2:	e6cc      	b.n	800487e <HAL_RCC_OscConfig+0x82>
 8004ae4:	f7fe fa8e 	bl	8003004 <HAL_GetTick>
 8004ae8:	1b80      	subs	r0, r0, r6
 8004aea:	2802      	cmp	r0, #2
 8004aec:	d9d6      	bls.n	8004a9c <HAL_RCC_OscConfig+0x2a0>
 8004aee:	e6c6      	b.n	800487e <HAL_RCC_OscConfig+0x82>
 8004af0:	f7fe fa88 	bl	8003004 <HAL_GetTick>
 8004af4:	4605      	mov	r5, r0
 8004af6:	6823      	ldr	r3, [r4, #0]
 8004af8:	019b      	lsls	r3, r3, #6
 8004afa:	f57f ae95 	bpl.w	8004828 <HAL_RCC_OscConfig+0x2c>
 8004afe:	f7fe fa81 	bl	8003004 <HAL_GetTick>
 8004b02:	1b40      	subs	r0, r0, r5
 8004b04:	2802      	cmp	r0, #2
 8004b06:	d9f6      	bls.n	8004af6 <HAL_RCC_OscConfig+0x2fa>
 8004b08:	e6b9      	b.n	800487e <HAL_RCC_OscConfig+0x82>
 8004b0a:	2b01      	cmp	r3, #1
 8004b0c:	f43f aea2 	beq.w	8004854 <HAL_RCC_OscConfig+0x58>
 8004b10:	6860      	ldr	r0, [r4, #4]
 8004b12:	6a2b      	ldr	r3, [r5, #32]
 8004b14:	f400 3280 	and.w	r2, r0, #65536	@ 0x10000
 8004b18:	429a      	cmp	r2, r3
 8004b1a:	f47f ae9b 	bne.w	8004854 <HAL_RCC_OscConfig+0x58>
 8004b1e:	6a6b      	ldr	r3, [r5, #36]	@ 0x24
 8004b20:	f400 1070 	and.w	r0, r0, #3932160	@ 0x3c0000
 8004b24:	1ac0      	subs	r0, r0, r3
 8004b26:	bf18      	it	ne
 8004b28:	2001      	movne	r0, #1
 8004b2a:	e6a9      	b.n	8004880 <HAL_RCC_OscConfig+0x84>
 8004b2c:	40021000 	.word	0x40021000
 8004b30:	42420000 	.word	0x42420000

08004b34 <HAL_RCC_GetSysClockFreq>:
 8004b34:	4a0d      	ldr	r2, [pc, #52]	@ (8004b6c <HAL_RCC_GetSysClockFreq+0x38>)
 8004b36:	6853      	ldr	r3, [r2, #4]
 8004b38:	f003 010c 	and.w	r1, r3, #12
 8004b3c:	2908      	cmp	r1, #8
 8004b3e:	d112      	bne.n	8004b66 <HAL_RCC_GetSysClockFreq+0x32>
 8004b40:	480b      	ldr	r0, [pc, #44]	@ (8004b70 <HAL_RCC_GetSysClockFreq+0x3c>)
 8004b42:	f3c3 4183 	ubfx	r1, r3, #18, #4
 8004b46:	03db      	lsls	r3, r3, #15
 8004b48:	5c40      	ldrb	r0, [r0, r1]
 8004b4a:	d509      	bpl.n	8004b60 <HAL_RCC_GetSysClockFreq+0x2c>
 8004b4c:	6853      	ldr	r3, [r2, #4]
 8004b4e:	4a09      	ldr	r2, [pc, #36]	@ (8004b74 <HAL_RCC_GetSysClockFreq+0x40>)
 8004b50:	f3c3 4340 	ubfx	r3, r3, #17, #1
 8004b54:	4350      	muls	r0, r2
 8004b56:	4a08      	ldr	r2, [pc, #32]	@ (8004b78 <HAL_RCC_GetSysClockFreq+0x44>)
 8004b58:	5cd3      	ldrb	r3, [r2, r3]
 8004b5a:	fbb0 f0f3 	udiv	r0, r0, r3
 8004b5e:	4770      	bx	lr
 8004b60:	4b06      	ldr	r3, [pc, #24]	@ (8004b7c <HAL_RCC_GetSysClockFreq+0x48>)
 8004b62:	4358      	muls	r0, r3
 8004b64:	4770      	bx	lr
 8004b66:	4803      	ldr	r0, [pc, #12]	@ (8004b74 <HAL_RCC_GetSysClockFreq+0x40>)
 8004b68:	4770      	bx	lr
 8004b6a:	bf00      	nop
 8004b6c:	40021000 	.word	0x40021000
 8004b70:	0800a1c1 	.word	0x0800a1c1
 8004b74:	007a1200 	.word	0x007a1200
 8004b78:	0800a1bf 	.word	0x0800a1bf
 8004b7c:	003d0900 	.word	0x003d0900

08004b80 <HAL_RCC_ClockConfig>:
 8004b80:	e92d 41f0 	stmdb	sp!, {r4, r5, r6, r7, r8, lr}
 8004b84:	460d      	mov	r5, r1
 8004b86:	4604      	mov	r4, r0
 8004b88:	b910      	cbnz	r0, 8004b90 <HAL_RCC_ClockConfig+0x10>
 8004b8a:	2001      	movs	r0, #1
 8004b8c:	e8bd 81f0 	ldmia.w	sp!, {r4, r5, r6, r7, r8, pc}
 8004b90:	4a44      	ldr	r2, [pc, #272]	@ (8004ca4 <HAL_RCC_ClockConfig+0x124>)
 8004b92:	6813      	ldr	r3, [r2, #0]
 8004b94:	f003 0307 	and.w	r3, r3, #7
 8004b98:	428b      	cmp	r3, r1
 8004b9a:	d328      	bcc.n	8004bee <HAL_RCC_ClockConfig+0x6e>
 8004b9c:	6821      	ldr	r1, [r4, #0]
 8004b9e:	078e      	lsls	r6, r1, #30
 8004ba0:	d430      	bmi.n	8004c04 <HAL_RCC_ClockConfig+0x84>
 8004ba2:	07ca      	lsls	r2, r1, #31
 8004ba4:	d443      	bmi.n	8004c2e <HAL_RCC_ClockConfig+0xae>
 8004ba6:	4a3f      	ldr	r2, [pc, #252]	@ (8004ca4 <HAL_RCC_ClockConfig+0x124>)
 8004ba8:	6813      	ldr	r3, [r2, #0]
 8004baa:	f003 0307 	and.w	r3, r3, #7
 8004bae:	42ab      	cmp	r3, r5
 8004bb0:	d865      	bhi.n	8004c7e <HAL_RCC_ClockConfig+0xfe>
 8004bb2:	6822      	ldr	r2, [r4, #0]
 8004bb4:	4d3c      	ldr	r5, [pc, #240]	@ (8004ca8 <HAL_RCC_ClockConfig+0x128>)
 8004bb6:	f012 0f04 	tst.w	r2, #4
 8004bba:	d16c      	bne.n	8004c96 <HAL_RCC_ClockConfig+0x116>
 8004bbc:	0713      	lsls	r3, r2, #28
 8004bbe:	d506      	bpl.n	8004bce <HAL_RCC_ClockConfig+0x4e>
 8004bc0:	686b      	ldr	r3, [r5, #4]
 8004bc2:	6922      	ldr	r2, [r4, #16]
 8004bc4:	f423 5360 	bic.w	r3, r3, #14336	@ 0x3800
 8004bc8:	ea43 03c2 	orr.w	r3, r3, r2, lsl #3
 8004bcc:	606b      	str	r3, [r5, #4]
 8004bce:	f7ff ffb1 	bl	8004b34 <HAL_RCC_GetSysClockFreq>
 8004bd2:	686b      	ldr	r3, [r5, #4]
 8004bd4:	4a35      	ldr	r2, [pc, #212]	@ (8004cac <HAL_RCC_ClockConfig+0x12c>)
 8004bd6:	f3c3 1303 	ubfx	r3, r3, #4, #4
 8004bda:	5cd3      	ldrb	r3, [r2, r3]
 8004bdc:	40d8      	lsrs	r0, r3
 8004bde:	4b34      	ldr	r3, [pc, #208]	@ (8004cb0 <HAL_RCC_ClockConfig+0x130>)
 8004be0:	6018      	str	r0, [r3, #0]
 8004be2:	4b34      	ldr	r3, [pc, #208]	@ (8004cb4 <HAL_RCC_ClockConfig+0x134>)
 8004be4:	6818      	ldr	r0, [r3, #0]
 8004be6:	f7fe f9cb 	bl	8002f80 <HAL_InitTick>
 8004bea:	2000      	movs	r0, #0
 8004bec:	e7ce      	b.n	8004b8c <HAL_RCC_ClockConfig+0xc>
 8004bee:	6813      	ldr	r3, [r2, #0]
 8004bf0:	f023 0307 	bic.w	r3, r3, #7
 8004bf4:	430b      	orrs	r3, r1
 8004bf6:	6013      	str	r3, [r2, #0]
 8004bf8:	6813      	ldr	r3, [r2, #0]
 8004bfa:	f003 0307 	and.w	r3, r3, #7
 8004bfe:	428b      	cmp	r3, r1
 8004c00:	d1c3      	bne.n	8004b8a <HAL_RCC_ClockConfig+0xa>
 8004c02:	e7cb      	b.n	8004b9c <HAL_RCC_ClockConfig+0x1c>
 8004c04:	4b28      	ldr	r3, [pc, #160]	@ (8004ca8 <HAL_RCC_ClockConfig+0x128>)
 8004c06:	f011 0f04 	tst.w	r1, #4
 8004c0a:	bf1e      	ittt	ne
 8004c0c:	685a      	ldrne	r2, [r3, #4]
 8004c0e:	f442 62e0 	orrne.w	r2, r2, #1792	@ 0x700
 8004c12:	605a      	strne	r2, [r3, #4]
 8004c14:	0708      	lsls	r0, r1, #28
 8004c16:	bf42      	ittt	mi
 8004c18:	685a      	ldrmi	r2, [r3, #4]
 8004c1a:	f442 5260 	orrmi.w	r2, r2, #14336	@ 0x3800
 8004c1e:	605a      	strmi	r2, [r3, #4]
 8004c20:	685a      	ldr	r2, [r3, #4]
 8004c22:	68a0      	ldr	r0, [r4, #8]
 8004c24:	f022 02f0 	bic.w	r2, r2, #240	@ 0xf0
 8004c28:	4302      	orrs	r2, r0
 8004c2a:	605a      	str	r2, [r3, #4]
 8004c2c:	e7b9      	b.n	8004ba2 <HAL_RCC_ClockConfig+0x22>
 8004c2e:	6862      	ldr	r2, [r4, #4]
 8004c30:	4e1d      	ldr	r6, [pc, #116]	@ (8004ca8 <HAL_RCC_ClockConfig+0x128>)
 8004c32:	2a01      	cmp	r2, #1
 8004c34:	6833      	ldr	r3, [r6, #0]
 8004c36:	d11a      	bne.n	8004c6e <HAL_RCC_ClockConfig+0xee>
 8004c38:	f413 3f00 	tst.w	r3, #131072	@ 0x20000
 8004c3c:	d0a5      	beq.n	8004b8a <HAL_RCC_ClockConfig+0xa>
 8004c3e:	6873      	ldr	r3, [r6, #4]
 8004c40:	f241 3888 	movw	r8, #5000	@ 0x1388
 8004c44:	f023 0303 	bic.w	r3, r3, #3
 8004c48:	4313      	orrs	r3, r2
 8004c4a:	6073      	str	r3, [r6, #4]
 8004c4c:	f7fe f9da 	bl	8003004 <HAL_GetTick>
 8004c50:	4607      	mov	r7, r0
 8004c52:	6873      	ldr	r3, [r6, #4]
 8004c54:	6862      	ldr	r2, [r4, #4]
 8004c56:	f003 030c 	and.w	r3, r3, #12
 8004c5a:	ebb3 0f82 	cmp.w	r3, r2, lsl #2
 8004c5e:	d0a2      	beq.n	8004ba6 <HAL_RCC_ClockConfig+0x26>
 8004c60:	f7fe f9d0 	bl	8003004 <HAL_GetTick>
 8004c64:	1bc0      	subs	r0, r0, r7
 8004c66:	4540      	cmp	r0, r8
 8004c68:	d9f3      	bls.n	8004c52 <HAL_RCC_ClockConfig+0xd2>
 8004c6a:	2003      	movs	r0, #3
 8004c6c:	e78e      	b.n	8004b8c <HAL_RCC_ClockConfig+0xc>
 8004c6e:	2a02      	cmp	r2, #2
 8004c70:	d102      	bne.n	8004c78 <HAL_RCC_ClockConfig+0xf8>
 8004c72:	f013 7f00 	tst.w	r3, #33554432	@ 0x2000000
 8004c76:	e7e1      	b.n	8004c3c <HAL_RCC_ClockConfig+0xbc>
 8004c78:	f013 0f02 	tst.w	r3, #2
 8004c7c:	e7de      	b.n	8004c3c <HAL_RCC_ClockConfig+0xbc>
 8004c7e:	6813      	ldr	r3, [r2, #0]
 8004c80:	f023 0307 	bic.w	r3, r3, #7
 8004c84:	432b      	orrs	r3, r5
 8004c86:	6013      	str	r3, [r2, #0]
 8004c88:	6813      	ldr	r3, [r2, #0]
 8004c8a:	f003 0307 	and.w	r3, r3, #7
 8004c8e:	42ab      	cmp	r3, r5
 8004c90:	f47f af7b 	bne.w	8004b8a <HAL_RCC_ClockConfig+0xa>
 8004c94:	e78d      	b.n	8004bb2 <HAL_RCC_ClockConfig+0x32>
 8004c96:	686b      	ldr	r3, [r5, #4]
 8004c98:	68e1      	ldr	r1, [r4, #12]
 8004c9a:	f423 63e0 	bic.w	r3, r3, #1792	@ 0x700
 8004c9e:	430b      	orrs	r3, r1
 8004ca0:	606b      	str	r3, [r5, #4]
 8004ca2:	e78b      	b.n	8004bbc <HAL_RCC_ClockConfig+0x3c>
 8004ca4:	40022000 	.word	0x40022000
 8004ca8:	40021000 	.word	0x40021000
 8004cac:	0800a1af 	.word	0x0800a1af
 8004cb0:	2000000c 	.word	0x2000000c
 8004cb4:	20000014 	.word	0x20000014

08004cb8 <HAL_RCC_GetPCLK1Freq>:
 8004cb8:	4b04      	ldr	r3, [pc, #16]	@ (8004ccc <HAL_RCC_GetPCLK1Freq+0x14>)
 8004cba:	4a05      	ldr	r2, [pc, #20]	@ (8004cd0 <HAL_RCC_GetPCLK1Freq+0x18>)
 8004cbc:	685b      	ldr	r3, [r3, #4]
 8004cbe:	f3c3 2302 	ubfx	r3, r3, #8, #3
 8004cc2:	5cd3      	ldrb	r3, [r2, r3]
 8004cc4:	4a03      	ldr	r2, [pc, #12]	@ (8004cd4 <HAL_RCC_GetPCLK1Freq+0x1c>)
 8004cc6:	6810      	ldr	r0, [r2, #0]
 8004cc8:	40d8      	lsrs	r0, r3
 8004cca:	4770      	bx	lr
 8004ccc:	40021000 	.word	0x40021000
 8004cd0:	0800a1a7 	.word	0x0800a1a7
 8004cd4:	2000000c 	.word	0x2000000c

08004cd8 <HAL_RCC_GetPCLK2Freq>:
 8004cd8:	4b04      	ldr	r3, [pc, #16]	@ (8004cec <HAL_RCC_GetPCLK2Freq+0x14>)
 8004cda:	4a05      	ldr	r2, [pc, #20]	@ (8004cf0 <HAL_RCC_GetPCLK2Freq+0x18>)
 8004cdc:	685b      	ldr	r3, [r3, #4]
 8004cde:	f3c3 23c2 	ubfx	r3, r3, #11, #3
 8004ce2:	5cd3      	ldrb	r3, [r2, r3]
 8004ce4:	4a03      	ldr	r2, [pc, #12]	@ (8004cf4 <HAL_RCC_GetPCLK2Freq+0x1c>)
 8004ce6:	6810      	ldr	r0, [r2, #0]
 8004ce8:	40d8      	lsrs	r0, r3
 8004cea:	4770      	bx	lr
 8004cec:	40021000 	.word	0x40021000
 8004cf0:	0800a1a7 	.word	0x0800a1a7
 8004cf4:	2000000c 	.word	0x2000000c

08004cf8 <HAL_RCCEx_PeriphCLKConfig>:
 8004cf8:	6803      	ldr	r3, [r0, #0]
 8004cfa:	e92d 41f3 	stmdb	sp!, {r0, r1, r4, r5, r6, r7, r8, lr}
 8004cfe:	4605      	mov	r5, r0
 8004d00:	07d8      	lsls	r0, r3, #31
 8004d02:	d521      	bpl.n	8004d48 <HAL_RCCEx_PeriphCLKConfig+0x50>
 8004d04:	4c36      	ldr	r4, [pc, #216]	@ (8004de0 <HAL_RCCEx_PeriphCLKConfig+0xe8>)
 8004d06:	69e3      	ldr	r3, [r4, #28]
 8004d08:	00d9      	lsls	r1, r3, #3
 8004d0a:	d42b      	bmi.n	8004d64 <HAL_RCCEx_PeriphCLKConfig+0x6c>
 8004d0c:	2601      	movs	r6, #1
 8004d0e:	69e3      	ldr	r3, [r4, #28]
 8004d10:	f043 5380 	orr.w	r3, r3, #268435456	@ 0x10000000
 8004d14:	61e3      	str	r3, [r4, #28]
 8004d16:	69e3      	ldr	r3, [r4, #28]
 8004d18:	f003 5380 	and.w	r3, r3, #268435456	@ 0x10000000
 8004d1c:	9301      	str	r3, [sp, #4]
 8004d1e:	9b01      	ldr	r3, [sp, #4]
 8004d20:	4f30      	ldr	r7, [pc, #192]	@ (8004de4 <HAL_RCCEx_PeriphCLKConfig+0xec>)
 8004d22:	683b      	ldr	r3, [r7, #0]
 8004d24:	05da      	lsls	r2, r3, #23
 8004d26:	d51f      	bpl.n	8004d68 <HAL_RCCEx_PeriphCLKConfig+0x70>
 8004d28:	6a23      	ldr	r3, [r4, #32]
 8004d2a:	686a      	ldr	r2, [r5, #4]
 8004d2c:	f413 7340 	ands.w	r3, r3, #768	@ 0x300
 8004d30:	d12e      	bne.n	8004d90 <HAL_RCCEx_PeriphCLKConfig+0x98>
 8004d32:	6a23      	ldr	r3, [r4, #32]
 8004d34:	686a      	ldr	r2, [r5, #4]
 8004d36:	f423 7340 	bic.w	r3, r3, #768	@ 0x300
 8004d3a:	4313      	orrs	r3, r2
 8004d3c:	6223      	str	r3, [r4, #32]
 8004d3e:	b11e      	cbz	r6, 8004d48 <HAL_RCCEx_PeriphCLKConfig+0x50>
 8004d40:	69e3      	ldr	r3, [r4, #28]
 8004d42:	f023 5380 	bic.w	r3, r3, #268435456	@ 0x10000000
 8004d46:	61e3      	str	r3, [r4, #28]
 8004d48:	682a      	ldr	r2, [r5, #0]
 8004d4a:	0791      	lsls	r1, r2, #30
 8004d4c:	d506      	bpl.n	8004d5c <HAL_RCCEx_PeriphCLKConfig+0x64>
 8004d4e:	4924      	ldr	r1, [pc, #144]	@ (8004de0 <HAL_RCCEx_PeriphCLKConfig+0xe8>)
 8004d50:	68a8      	ldr	r0, [r5, #8]
 8004d52:	684b      	ldr	r3, [r1, #4]
 8004d54:	f423 4340 	bic.w	r3, r3, #49152	@ 0xc000
 8004d58:	4303      	orrs	r3, r0
 8004d5a:	604b      	str	r3, [r1, #4]
 8004d5c:	06d3      	lsls	r3, r2, #27
 8004d5e:	d436      	bmi.n	8004dce <HAL_RCCEx_PeriphCLKConfig+0xd6>
 8004d60:	2000      	movs	r0, #0
 8004d62:	e012      	b.n	8004d8a <HAL_RCCEx_PeriphCLKConfig+0x92>
 8004d64:	2600      	movs	r6, #0
 8004d66:	e7db      	b.n	8004d20 <HAL_RCCEx_PeriphCLKConfig+0x28>
 8004d68:	683b      	ldr	r3, [r7, #0]
 8004d6a:	f443 7380 	orr.w	r3, r3, #256	@ 0x100
 8004d6e:	603b      	str	r3, [r7, #0]
 8004d70:	f7fe f948 	bl	8003004 <HAL_GetTick>
 8004d74:	4680      	mov	r8, r0
 8004d76:	683b      	ldr	r3, [r7, #0]
 8004d78:	05db      	lsls	r3, r3, #23
 8004d7a:	d4d5      	bmi.n	8004d28 <HAL_RCCEx_PeriphCLKConfig+0x30>
 8004d7c:	f7fe f942 	bl	8003004 <HAL_GetTick>
 8004d80:	eba0 0008 	sub.w	r0, r0, r8
 8004d84:	2864      	cmp	r0, #100	@ 0x64
 8004d86:	d9f6      	bls.n	8004d76 <HAL_RCCEx_PeriphCLKConfig+0x7e>
 8004d88:	2003      	movs	r0, #3
 8004d8a:	b002      	add	sp, #8
 8004d8c:	e8bd 81f0 	ldmia.w	sp!, {r4, r5, r6, r7, r8, pc}
 8004d90:	f402 7240 	and.w	r2, r2, #768	@ 0x300
 8004d94:	429a      	cmp	r2, r3
 8004d96:	d0cc      	beq.n	8004d32 <HAL_RCCEx_PeriphCLKConfig+0x3a>
 8004d98:	2001      	movs	r0, #1
 8004d9a:	4a13      	ldr	r2, [pc, #76]	@ (8004de8 <HAL_RCCEx_PeriphCLKConfig+0xf0>)
 8004d9c:	6a23      	ldr	r3, [r4, #32]
 8004d9e:	f8c2 0440 	str.w	r0, [r2, #1088]	@ 0x440
 8004da2:	2000      	movs	r0, #0
 8004da4:	f423 7140 	bic.w	r1, r3, #768	@ 0x300
 8004da8:	07df      	lsls	r7, r3, #31
 8004daa:	f8c2 0440 	str.w	r0, [r2, #1088]	@ 0x440
 8004dae:	6221      	str	r1, [r4, #32]
 8004db0:	d5bf      	bpl.n	8004d32 <HAL_RCCEx_PeriphCLKConfig+0x3a>
 8004db2:	f7fe f927 	bl	8003004 <HAL_GetTick>
 8004db6:	f241 3888 	movw	r8, #5000	@ 0x1388
 8004dba:	4607      	mov	r7, r0
 8004dbc:	6a23      	ldr	r3, [r4, #32]
 8004dbe:	0798      	lsls	r0, r3, #30
 8004dc0:	d4b7      	bmi.n	8004d32 <HAL_RCCEx_PeriphCLKConfig+0x3a>
 8004dc2:	f7fe f91f 	bl	8003004 <HAL_GetTick>
 8004dc6:	1bc0      	subs	r0, r0, r7
 8004dc8:	4540      	cmp	r0, r8
 8004dca:	d9f7      	bls.n	8004dbc <HAL_RCCEx_PeriphCLKConfig+0xc4>
 8004dcc:	e7dc      	b.n	8004d88 <HAL_RCCEx_PeriphCLKConfig+0x90>
 8004dce:	4a04      	ldr	r2, [pc, #16]	@ (8004de0 <HAL_RCCEx_PeriphCLKConfig+0xe8>)
 8004dd0:	68e9      	ldr	r1, [r5, #12]
 8004dd2:	6853      	ldr	r3, [r2, #4]
 8004dd4:	f423 0380 	bic.w	r3, r3, #4194304	@ 0x400000
 8004dd8:	430b      	orrs	r3, r1
 8004dda:	6053      	str	r3, [r2, #4]
 8004ddc:	e7c0      	b.n	8004d60 <HAL_RCCEx_PeriphCLKConfig+0x68>
 8004dde:	bf00      	nop
 8004de0:	40021000 	.word	0x40021000
 8004de4:	40007000 	.word	0x40007000
 8004de8:	42420000 	.word	0x42420000

08004dec <HAL_TIM_PeriodElapsedCallback>:
 8004dec:	4770      	bx	lr

08004dee <HAL_TIM_OC_DelayElapsedCallback>:
 8004dee:	4770      	bx	lr

08004df0 <HAL_TIM_IC_CaptureCallback>:
 8004df0:	4770      	bx	lr

08004df2 <HAL_TIM_PWM_PulseFinishedCallback>:
 8004df2:	4770      	bx	lr

08004df4 <HAL_TIM_TriggerCallback>:
 8004df4:	4770      	bx	lr

08004df6 <HAL_TIM_IRQHandler>:
 8004df6:	6803      	ldr	r3, [r0, #0]
 8004df8:	b570      	push	{r4, r5, r6, lr}
 8004dfa:	68dd      	ldr	r5, [r3, #12]
 8004dfc:	691e      	ldr	r6, [r3, #16]
 8004dfe:	4604      	mov	r4, r0
 8004e00:	07b1      	lsls	r1, r6, #30
 8004e02:	d50d      	bpl.n	8004e20 <HAL_TIM_IRQHandler+0x2a>
 8004e04:	07aa      	lsls	r2, r5, #30
 8004e06:	d50b      	bpl.n	8004e20 <HAL_TIM_IRQHandler+0x2a>
 8004e08:	f06f 0202 	mvn.w	r2, #2
 8004e0c:	611a      	str	r2, [r3, #16]
 8004e0e:	2201      	movs	r2, #1
 8004e10:	7702      	strb	r2, [r0, #28]
 8004e12:	699b      	ldr	r3, [r3, #24]
 8004e14:	079b      	lsls	r3, r3, #30
 8004e16:	d069      	beq.n	8004eec <HAL_TIM_IRQHandler+0xf6>
 8004e18:	f7ff ffea 	bl	8004df0 <HAL_TIM_IC_CaptureCallback>
 8004e1c:	2300      	movs	r3, #0
 8004e1e:	7723      	strb	r3, [r4, #28]
 8004e20:	0771      	lsls	r1, r6, #29
 8004e22:	d510      	bpl.n	8004e46 <HAL_TIM_IRQHandler+0x50>
 8004e24:	076a      	lsls	r2, r5, #29
 8004e26:	d50e      	bpl.n	8004e46 <HAL_TIM_IRQHandler+0x50>
 8004e28:	f06f 0204 	mvn.w	r2, #4
 8004e2c:	6823      	ldr	r3, [r4, #0]
 8004e2e:	4620      	mov	r0, r4
 8004e30:	611a      	str	r2, [r3, #16]
 8004e32:	2202      	movs	r2, #2
 8004e34:	7722      	strb	r2, [r4, #28]
 8004e36:	699b      	ldr	r3, [r3, #24]
 8004e38:	f413 7f40 	tst.w	r3, #768	@ 0x300
 8004e3c:	d05c      	beq.n	8004ef8 <HAL_TIM_IRQHandler+0x102>
 8004e3e:	f7ff ffd7 	bl	8004df0 <HAL_TIM_IC_CaptureCallback>
 8004e42:	2300      	movs	r3, #0
 8004e44:	7723      	strb	r3, [r4, #28]
 8004e46:	0733      	lsls	r3, r6, #28
 8004e48:	d50f      	bpl.n	8004e6a <HAL_TIM_IRQHandler+0x74>
 8004e4a:	0728      	lsls	r0, r5, #28
 8004e4c:	d50d      	bpl.n	8004e6a <HAL_TIM_IRQHandler+0x74>
 8004e4e:	f06f 0208 	mvn.w	r2, #8
 8004e52:	6823      	ldr	r3, [r4, #0]
 8004e54:	4620      	mov	r0, r4
 8004e56:	611a      	str	r2, [r3, #16]
 8004e58:	2204      	movs	r2, #4
 8004e5a:	7722      	strb	r2, [r4, #28]
 8004e5c:	69db      	ldr	r3, [r3, #28]
 8004e5e:	0799      	lsls	r1, r3, #30
 8004e60:	d050      	beq.n	8004f04 <HAL_TIM_IRQHandler+0x10e>
 8004e62:	f7ff ffc5 	bl	8004df0 <HAL_TIM_IC_CaptureCallback>
 8004e66:	2300      	movs	r3, #0
 8004e68:	7723      	strb	r3, [r4, #28]
 8004e6a:	06f2      	lsls	r2, r6, #27
 8004e6c:	d510      	bpl.n	8004e90 <HAL_TIM_IRQHandler+0x9a>
 8004e6e:	06eb      	lsls	r3, r5, #27
 8004e70:	d50e      	bpl.n	8004e90 <HAL_TIM_IRQHandler+0x9a>
 8004e72:	f06f 0210 	mvn.w	r2, #16
 8004e76:	6823      	ldr	r3, [r4, #0]
 8004e78:	4620      	mov	r0, r4
 8004e7a:	611a      	str	r2, [r3, #16]
 8004e7c:	2208      	movs	r2, #8
 8004e7e:	7722      	strb	r2, [r4, #28]
 8004e80:	69db      	ldr	r3, [r3, #28]
 8004e82:	f413 7f40 	tst.w	r3, #768	@ 0x300
 8004e86:	d043      	beq.n	8004f10 <HAL_TIM_IRQHandler+0x11a>
 8004e88:	f7ff ffb2 	bl	8004df0 <HAL_TIM_IC_CaptureCallback>
 8004e8c:	2300      	movs	r3, #0
 8004e8e:	7723      	strb	r3, [r4, #28]
 8004e90:	07f0      	lsls	r0, r6, #31
 8004e92:	d508      	bpl.n	8004ea6 <HAL_TIM_IRQHandler+0xb0>
 8004e94:	07e9      	lsls	r1, r5, #31
 8004e96:	d506      	bpl.n	8004ea6 <HAL_TIM_IRQHandler+0xb0>
 8004e98:	f06f 0201 	mvn.w	r2, #1
 8004e9c:	6823      	ldr	r3, [r4, #0]
 8004e9e:	4620      	mov	r0, r4
 8004ea0:	611a      	str	r2, [r3, #16]
 8004ea2:	f7ff ffa3 	bl	8004dec <HAL_TIM_PeriodElapsedCallback>
 8004ea6:	0632      	lsls	r2, r6, #24
 8004ea8:	d508      	bpl.n	8004ebc <HAL_TIM_IRQHandler+0xc6>
 8004eaa:	062b      	lsls	r3, r5, #24
 8004eac:	d506      	bpl.n	8004ebc <HAL_TIM_IRQHandler+0xc6>
 8004eae:	f06f 0280 	mvn.w	r2, #128	@ 0x80
 8004eb2:	6823      	ldr	r3, [r4, #0]
 8004eb4:	4620      	mov	r0, r4
 8004eb6:	611a      	str	r2, [r3, #16]
 8004eb8:	f000 f963 	bl	8005182 <HAL_TIMEx_BreakCallback>
 8004ebc:	0670      	lsls	r0, r6, #25
 8004ebe:	d508      	bpl.n	8004ed2 <HAL_TIM_IRQHandler+0xdc>
 8004ec0:	0669      	lsls	r1, r5, #25
 8004ec2:	d506      	bpl.n	8004ed2 <HAL_TIM_IRQHandler+0xdc>
 8004ec4:	f06f 0240 	mvn.w	r2, #64	@ 0x40
 8004ec8:	6823      	ldr	r3, [r4, #0]
 8004eca:	4620      	mov	r0, r4
 8004ecc:	611a      	str	r2, [r3, #16]
 8004ece:	f7ff ff91 	bl	8004df4 <HAL_TIM_TriggerCallback>
 8004ed2:	06b2      	lsls	r2, r6, #26
 8004ed4:	d522      	bpl.n	8004f1c <HAL_TIM_IRQHandler+0x126>
 8004ed6:	06ab      	lsls	r3, r5, #26
 8004ed8:	d520      	bpl.n	8004f1c <HAL_TIM_IRQHandler+0x126>
 8004eda:	f06f 0220 	mvn.w	r2, #32
 8004ede:	6823      	ldr	r3, [r4, #0]
 8004ee0:	4620      	mov	r0, r4
 8004ee2:	e8bd 4070 	ldmia.w	sp!, {r4, r5, r6, lr}
 8004ee6:	611a      	str	r2, [r3, #16]
 8004ee8:	f000 b94a 	b.w	8005180 <HAL_TIMEx_CommutCallback>
 8004eec:	f7ff ff7f 	bl	8004dee <HAL_TIM_OC_DelayElapsedCallback>
 8004ef0:	4620      	mov	r0, r4
 8004ef2:	f7ff ff7e 	bl	8004df2 <HAL_TIM_PWM_PulseFinishedCallback>
 8004ef6:	e791      	b.n	8004e1c <HAL_TIM_IRQHandler+0x26>
 8004ef8:	f7ff ff79 	bl	8004dee <HAL_TIM_OC_DelayElapsedCallback>
 8004efc:	4620      	mov	r0, r4
 8004efe:	f7ff ff78 	bl	8004df2 <HAL_TIM_PWM_PulseFinishedCallback>
 8004f02:	e79e      	b.n	8004e42 <HAL_TIM_IRQHandler+0x4c>
 8004f04:	f7ff ff73 	bl	8004dee <HAL_TIM_OC_DelayElapsedCallback>
 8004f08:	4620      	mov	r0, r4
 8004f0a:	f7ff ff72 	bl	8004df2 <HAL_TIM_PWM_PulseFinishedCallback>
 8004f0e:	e7aa      	b.n	8004e66 <HAL_TIM_IRQHandler+0x70>
 8004f10:	f7ff ff6d 	bl	8004dee <HAL_TIM_OC_DelayElapsedCallback>
 8004f14:	4620      	mov	r0, r4
 8004f16:	f7ff ff6c 	bl	8004df2 <HAL_TIM_PWM_PulseFinishedCallback>
 8004f1a:	e7b7      	b.n	8004e8c <HAL_TIM_IRQHandler+0x96>
 8004f1c:	bd70      	pop	{r4, r5, r6, pc}
	...

08004f20 <TIM_Base_SetConfig>:
 8004f20:	4a17      	ldr	r2, [pc, #92]	@ (8004f80 <TIM_Base_SetConfig+0x60>)
 8004f22:	6803      	ldr	r3, [r0, #0]
 8004f24:	4290      	cmp	r0, r2
 8004f26:	d00a      	beq.n	8004f3e <TIM_Base_SetConfig+0x1e>
 8004f28:	f1b0 4f80 	cmp.w	r0, #1073741824	@ 0x40000000
 8004f2c:	d007      	beq.n	8004f3e <TIM_Base_SetConfig+0x1e>
 8004f2e:	f5a2 3294 	sub.w	r2, r2, #75776	@ 0x12800
 8004f32:	4290      	cmp	r0, r2
 8004f34:	d003      	beq.n	8004f3e <TIM_Base_SetConfig+0x1e>
 8004f36:	f502 6280 	add.w	r2, r2, #1024	@ 0x400
 8004f3a:	4290      	cmp	r0, r2
 8004f3c:	d107      	bne.n	8004f4e <TIM_Base_SetConfig+0x2e>
 8004f3e:	684a      	ldr	r2, [r1, #4]
 8004f40:	f023 0370 	bic.w	r3, r3, #112	@ 0x70
 8004f44:	4313      	orrs	r3, r2
 8004f46:	68ca      	ldr	r2, [r1, #12]
 8004f48:	f423 7340 	bic.w	r3, r3, #768	@ 0x300
 8004f4c:	4313      	orrs	r3, r2
 8004f4e:	694a      	ldr	r2, [r1, #20]
 8004f50:	f023 0380 	bic.w	r3, r3, #128	@ 0x80
 8004f54:	4313      	orrs	r3, r2
 8004f56:	6003      	str	r3, [r0, #0]
 8004f58:	688b      	ldr	r3, [r1, #8]
 8004f5a:	62c3      	str	r3, [r0, #44]	@ 0x2c
 8004f5c:	680b      	ldr	r3, [r1, #0]
 8004f5e:	6283      	str	r3, [r0, #40]	@ 0x28
 8004f60:	4b07      	ldr	r3, [pc, #28]	@ (8004f80 <TIM_Base_SetConfig+0x60>)
 8004f62:	4298      	cmp	r0, r3
 8004f64:	bf04      	itt	eq
 8004f66:	690b      	ldreq	r3, [r1, #16]
 8004f68:	6303      	streq	r3, [r0, #48]	@ 0x30
 8004f6a:	2301      	movs	r3, #1
 8004f6c:	6143      	str	r3, [r0, #20]
 8004f6e:	6903      	ldr	r3, [r0, #16]
 8004f70:	07db      	lsls	r3, r3, #31
 8004f72:	bf42      	ittt	mi
 8004f74:	6903      	ldrmi	r3, [r0, #16]
 8004f76:	f023 0301 	bicmi.w	r3, r3, #1
 8004f7a:	6103      	strmi	r3, [r0, #16]
 8004f7c:	4770      	bx	lr
 8004f7e:	bf00      	nop
 8004f80:	40012c00 	.word	0x40012c00

08004f84 <HAL_TIM_Base_Init>:
 8004f84:	b510      	push	{r4, lr}
 8004f86:	4604      	mov	r4, r0
 8004f88:	b330      	cbz	r0, 8004fd8 <HAL_TIM_Base_Init+0x54>
 8004f8a:	f890 303d 	ldrb.w	r3, [r0, #61]	@ 0x3d
 8004f8e:	f003 02ff 	and.w	r2, r3, #255	@ 0xff
 8004f92:	b91b      	cbnz	r3, 8004f9c <HAL_TIM_Base_Init+0x18>
 8004f94:	f880 203c 	strb.w	r2, [r0, #60]	@ 0x3c
 8004f98:	f7fd fe78 	bl	8002c8c <HAL_TIM_Base_MspInit>
 8004f9c:	2302      	movs	r3, #2
 8004f9e:	6820      	ldr	r0, [r4, #0]
 8004fa0:	f884 303d 	strb.w	r3, [r4, #61]	@ 0x3d
 8004fa4:	1d21      	adds	r1, r4, #4
 8004fa6:	f7ff ffbb 	bl	8004f20 <TIM_Base_SetConfig>
 8004faa:	2301      	movs	r3, #1
 8004fac:	2000      	movs	r0, #0
 8004fae:	f884 3046 	strb.w	r3, [r4, #70]	@ 0x46
 8004fb2:	f884 303e 	strb.w	r3, [r4, #62]	@ 0x3e
 8004fb6:	f884 303f 	strb.w	r3, [r4, #63]	@ 0x3f
 8004fba:	f884 3040 	strb.w	r3, [r4, #64]	@ 0x40
 8004fbe:	f884 3041 	strb.w	r3, [r4, #65]	@ 0x41
 8004fc2:	f884 3042 	strb.w	r3, [r4, #66]	@ 0x42
 8004fc6:	f884 3043 	strb.w	r3, [r4, #67]	@ 0x43
 8004fca:	f884 3044 	strb.w	r3, [r4, #68]	@ 0x44
 8004fce:	f884 3045 	strb.w	r3, [r4, #69]	@ 0x45
 8004fd2:	f884 303d 	strb.w	r3, [r4, #61]	@ 0x3d
 8004fd6:	bd10      	pop	{r4, pc}
 8004fd8:	2001      	movs	r0, #1
 8004fda:	e7fc      	b.n	8004fd6 <HAL_TIM_Base_Init+0x52>

08004fdc <TIM_ETR_SetConfig>:
 8004fdc:	b510      	push	{r4, lr}
 8004fde:	6884      	ldr	r4, [r0, #8]
 8004fe0:	430a      	orrs	r2, r1
 8004fe2:	f424 447f 	bic.w	r4, r4, #65280	@ 0xff00
 8004fe6:	ea42 2203 	orr.w	r2, r2, r3, lsl #8
 8004fea:	4322      	orrs	r2, r4
 8004fec:	6082      	str	r2, [r0, #8]
 8004fee:	bd10      	pop	{r4, pc}

08004ff0 <HAL_TIM_ConfigClockSource>:
 8004ff0:	b538      	push	{r3, r4, r5, lr}
 8004ff2:	f890 303c 	ldrb.w	r3, [r0, #60]	@ 0x3c
 8004ff6:	4604      	mov	r4, r0
 8004ff8:	2b01      	cmp	r3, #1
 8004ffa:	f04f 0002 	mov.w	r0, #2
 8004ffe:	f000 808e 	beq.w	800511e <HAL_TIM_ConfigClockSource+0x12e>
 8005002:	2201      	movs	r2, #1
 8005004:	f884 003d 	strb.w	r0, [r4, #61]	@ 0x3d
 8005008:	6820      	ldr	r0, [r4, #0]
 800500a:	f884 203c 	strb.w	r2, [r4, #60]	@ 0x3c
 800500e:	6883      	ldr	r3, [r0, #8]
 8005010:	f423 437f 	bic.w	r3, r3, #65280	@ 0xff00
 8005014:	f023 0377 	bic.w	r3, r3, #119	@ 0x77
 8005018:	6083      	str	r3, [r0, #8]
 800501a:	680b      	ldr	r3, [r1, #0]
 800501c:	2b60      	cmp	r3, #96	@ 0x60
 800501e:	d04f      	beq.n	80050c0 <HAL_TIM_ConfigClockSource+0xd0>
 8005020:	d832      	bhi.n	8005088 <HAL_TIM_ConfigClockSource+0x98>
 8005022:	2b40      	cmp	r3, #64	@ 0x40
 8005024:	d064      	beq.n	80050f0 <HAL_TIM_ConfigClockSource+0x100>
 8005026:	d816      	bhi.n	8005056 <HAL_TIM_ConfigClockSource+0x66>
 8005028:	2b20      	cmp	r3, #32
 800502a:	d00d      	beq.n	8005048 <HAL_TIM_ConfigClockSource+0x58>
 800502c:	d80a      	bhi.n	8005044 <HAL_TIM_ConfigClockSource+0x54>
 800502e:	f033 0110 	bics.w	r1, r3, #16
 8005032:	d009      	beq.n	8005048 <HAL_TIM_ConfigClockSource+0x58>
 8005034:	2301      	movs	r3, #1
 8005036:	f884 303d 	strb.w	r3, [r4, #61]	@ 0x3d
 800503a:	2300      	movs	r3, #0
 800503c:	f884 303c 	strb.w	r3, [r4, #60]	@ 0x3c
 8005040:	4610      	mov	r0, r2
 8005042:	bd38      	pop	{r3, r4, r5, pc}
 8005044:	2b30      	cmp	r3, #48	@ 0x30
 8005046:	d1f5      	bne.n	8005034 <HAL_TIM_ConfigClockSource+0x44>
 8005048:	6882      	ldr	r2, [r0, #8]
 800504a:	f022 0270 	bic.w	r2, r2, #112	@ 0x70
 800504e:	4313      	orrs	r3, r2
 8005050:	f043 0307 	orr.w	r3, r3, #7
 8005054:	e028      	b.n	80050a8 <HAL_TIM_ConfigClockSource+0xb8>
 8005056:	2b50      	cmp	r3, #80	@ 0x50
 8005058:	d1ec      	bne.n	8005034 <HAL_TIM_ConfigClockSource+0x44>
 800505a:	684a      	ldr	r2, [r1, #4]
 800505c:	68cd      	ldr	r5, [r1, #12]
 800505e:	6a01      	ldr	r1, [r0, #32]
 8005060:	6a03      	ldr	r3, [r0, #32]
 8005062:	f021 010a 	bic.w	r1, r1, #10
 8005066:	f023 0301 	bic.w	r3, r3, #1
 800506a:	6203      	str	r3, [r0, #32]
 800506c:	6983      	ldr	r3, [r0, #24]
 800506e:	430a      	orrs	r2, r1
 8005070:	f023 03f0 	bic.w	r3, r3, #240	@ 0xf0
 8005074:	ea43 1305 	orr.w	r3, r3, r5, lsl #4
 8005078:	6183      	str	r3, [r0, #24]
 800507a:	6202      	str	r2, [r0, #32]
 800507c:	6883      	ldr	r3, [r0, #8]
 800507e:	f023 0370 	bic.w	r3, r3, #112	@ 0x70
 8005082:	f043 0357 	orr.w	r3, r3, #87	@ 0x57
 8005086:	e00f      	b.n	80050a8 <HAL_TIM_ConfigClockSource+0xb8>
 8005088:	f5b3 5f80 	cmp.w	r3, #4096	@ 0x1000
 800508c:	d00d      	beq.n	80050aa <HAL_TIM_ConfigClockSource+0xba>
 800508e:	f5b3 5f00 	cmp.w	r3, #8192	@ 0x2000
 8005092:	d00c      	beq.n	80050ae <HAL_TIM_ConfigClockSource+0xbe>
 8005094:	2b70      	cmp	r3, #112	@ 0x70
 8005096:	d1cd      	bne.n	8005034 <HAL_TIM_ConfigClockSource+0x44>
 8005098:	68cb      	ldr	r3, [r1, #12]
 800509a:	e9d1 2101 	ldrd	r2, r1, [r1, #4]
 800509e:	f7ff ff9d 	bl	8004fdc <TIM_ETR_SetConfig>
 80050a2:	6883      	ldr	r3, [r0, #8]
 80050a4:	f043 0377 	orr.w	r3, r3, #119	@ 0x77
 80050a8:	6083      	str	r3, [r0, #8]
 80050aa:	2200      	movs	r2, #0
 80050ac:	e7c2      	b.n	8005034 <HAL_TIM_ConfigClockSource+0x44>
 80050ae:	68cb      	ldr	r3, [r1, #12]
 80050b0:	e9d1 2101 	ldrd	r2, r1, [r1, #4]
 80050b4:	f7ff ff92 	bl	8004fdc <TIM_ETR_SetConfig>
 80050b8:	6883      	ldr	r3, [r0, #8]
 80050ba:	f443 4380 	orr.w	r3, r3, #16384	@ 0x4000
 80050be:	e7f3      	b.n	80050a8 <HAL_TIM_ConfigClockSource+0xb8>
 80050c0:	6a03      	ldr	r3, [r0, #32]
 80050c2:	6a02      	ldr	r2, [r0, #32]
 80050c4:	684d      	ldr	r5, [r1, #4]
 80050c6:	f022 0210 	bic.w	r2, r2, #16
 80050ca:	68c9      	ldr	r1, [r1, #12]
 80050cc:	6202      	str	r2, [r0, #32]
 80050ce:	6982      	ldr	r2, [r0, #24]
 80050d0:	f023 03a0 	bic.w	r3, r3, #160	@ 0xa0
 80050d4:	f422 4270 	bic.w	r2, r2, #61440	@ 0xf000
 80050d8:	ea43 1305 	orr.w	r3, r3, r5, lsl #4
 80050dc:	ea42 3201 	orr.w	r2, r2, r1, lsl #12
 80050e0:	6182      	str	r2, [r0, #24]
 80050e2:	6203      	str	r3, [r0, #32]
 80050e4:	6883      	ldr	r3, [r0, #8]
 80050e6:	f023 0370 	bic.w	r3, r3, #112	@ 0x70
 80050ea:	f043 0367 	orr.w	r3, r3, #103	@ 0x67
 80050ee:	e7db      	b.n	80050a8 <HAL_TIM_ConfigClockSource+0xb8>
 80050f0:	684a      	ldr	r2, [r1, #4]
 80050f2:	68cd      	ldr	r5, [r1, #12]
 80050f4:	6a01      	ldr	r1, [r0, #32]
 80050f6:	6a03      	ldr	r3, [r0, #32]
 80050f8:	f021 010a 	bic.w	r1, r1, #10
 80050fc:	f023 0301 	bic.w	r3, r3, #1
 8005100:	6203      	str	r3, [r0, #32]
 8005102:	6983      	ldr	r3, [r0, #24]
 8005104:	430a      	orrs	r2, r1
 8005106:	f023 03f0 	bic.w	r3, r3, #240	@ 0xf0
 800510a:	ea43 1305 	orr.w	r3, r3, r5, lsl #4
 800510e:	6183      	str	r3, [r0, #24]
 8005110:	6202      	str	r2, [r0, #32]
 8005112:	6883      	ldr	r3, [r0, #8]
 8005114:	f023 0370 	bic.w	r3, r3, #112	@ 0x70
 8005118:	f043 0347 	orr.w	r3, r3, #71	@ 0x47
 800511c:	e7c4      	b.n	80050a8 <HAL_TIM_ConfigClockSource+0xb8>
 800511e:	4602      	mov	r2, r0
 8005120:	e78e      	b.n	8005040 <HAL_TIM_ConfigClockSource+0x50>
	...

08005124 <HAL_TIMEx_MasterConfigSynchronization>:
 8005124:	b530      	push	{r4, r5, lr}
 8005126:	f890 303c 	ldrb.w	r3, [r0, #60]	@ 0x3c
 800512a:	4602      	mov	r2, r0
 800512c:	2b01      	cmp	r3, #1
 800512e:	f04f 0002 	mov.w	r0, #2
 8005132:	d022      	beq.n	800517a <HAL_TIMEx_MasterConfigSynchronization+0x56>
 8005134:	6813      	ldr	r3, [r2, #0]
 8005136:	f882 003d 	strb.w	r0, [r2, #61]	@ 0x3d
 800513a:	685c      	ldr	r4, [r3, #4]
 800513c:	680d      	ldr	r5, [r1, #0]
 800513e:	f024 0470 	bic.w	r4, r4, #112	@ 0x70
 8005142:	432c      	orrs	r4, r5
 8005144:	6898      	ldr	r0, [r3, #8]
 8005146:	605c      	str	r4, [r3, #4]
 8005148:	4c0c      	ldr	r4, [pc, #48]	@ (800517c <HAL_TIMEx_MasterConfigSynchronization+0x58>)
 800514a:	42a3      	cmp	r3, r4
 800514c:	d00a      	beq.n	8005164 <HAL_TIMEx_MasterConfigSynchronization+0x40>
 800514e:	f1b3 4f80 	cmp.w	r3, #1073741824	@ 0x40000000
 8005152:	d007      	beq.n	8005164 <HAL_TIMEx_MasterConfigSynchronization+0x40>
 8005154:	f5a4 3494 	sub.w	r4, r4, #75776	@ 0x12800
 8005158:	42a3      	cmp	r3, r4
 800515a:	d003      	beq.n	8005164 <HAL_TIMEx_MasterConfigSynchronization+0x40>
 800515c:	f504 6480 	add.w	r4, r4, #1024	@ 0x400
 8005160:	42a3      	cmp	r3, r4
 8005162:	d104      	bne.n	800516e <HAL_TIMEx_MasterConfigSynchronization+0x4a>
 8005164:	6849      	ldr	r1, [r1, #4]
 8005166:	f020 0080 	bic.w	r0, r0, #128	@ 0x80
 800516a:	4301      	orrs	r1, r0
 800516c:	6099      	str	r1, [r3, #8]
 800516e:	2301      	movs	r3, #1
 8005170:	2000      	movs	r0, #0
 8005172:	f882 303d 	strb.w	r3, [r2, #61]	@ 0x3d
 8005176:	f882 003c 	strb.w	r0, [r2, #60]	@ 0x3c
 800517a:	bd30      	pop	{r4, r5, pc}
 800517c:	40012c00 	.word	0x40012c00

08005180 <HAL_TIMEx_CommutCallback>:
 8005180:	4770      	bx	lr

08005182 <HAL_TIMEx_BreakCallback>:
 8005182:	4770      	bx	lr

08005184 <UART_EndRxTransfer>:
 8005184:	6802      	ldr	r2, [r0, #0]
 8005186:	f102 030c 	add.w	r3, r2, #12
 800518a:	e853 3f00 	ldrex	r3, [r3]
 800518e:	f423 7390 	bic.w	r3, r3, #288	@ 0x120
 8005192:	320c      	adds	r2, #12
 8005194:	e842 3100 	strex	r1, r3, [r2]
 8005198:	6802      	ldr	r2, [r0, #0]
 800519a:	2900      	cmp	r1, #0
 800519c:	d1f2      	bne.n	8005184 <UART_EndRxTransfer>
 800519e:	f102 0314 	add.w	r3, r2, #20
 80051a2:	e853 3f00 	ldrex	r3, [r3]
 80051a6:	f023 0301 	bic.w	r3, r3, #1
 80051aa:	f102 0c14 	add.w	ip, r2, #20
 80051ae:	e84c 3100 	strex	r1, r3, [ip]
 80051b2:	2900      	cmp	r1, #0
 80051b4:	d1f3      	bne.n	800519e <UART_EndRxTransfer+0x1a>
 80051b6:	6b03      	ldr	r3, [r0, #48]	@ 0x30
 80051b8:	2b01      	cmp	r3, #1
 80051ba:	d10b      	bne.n	80051d4 <UART_EndRxTransfer+0x50>
 80051bc:	f102 030c 	add.w	r3, r2, #12
 80051c0:	e853 3f00 	ldrex	r3, [r3]
 80051c4:	f023 0310 	bic.w	r3, r3, #16
 80051c8:	f102 0c0c 	add.w	ip, r2, #12
 80051cc:	e84c 3100 	strex	r1, r3, [ip]
 80051d0:	2900      	cmp	r1, #0
 80051d2:	d1f3      	bne.n	80051bc <UART_EndRxTransfer+0x38>
 80051d4:	2320      	movs	r3, #32
 80051d6:	f880 3042 	strb.w	r3, [r0, #66]	@ 0x42
 80051da:	2300      	movs	r3, #0
 80051dc:	6303      	str	r3, [r0, #48]	@ 0x30
 80051de:	4770      	bx	lr

080051e0 <UART_SetConfig>:
 80051e0:	b510      	push	{r4, lr}
 80051e2:	4604      	mov	r4, r0
 80051e4:	6803      	ldr	r3, [r0, #0]
 80051e6:	68c1      	ldr	r1, [r0, #12]
 80051e8:	691a      	ldr	r2, [r3, #16]
 80051ea:	f422 5240 	bic.w	r2, r2, #12288	@ 0x3000
 80051ee:	430a      	orrs	r2, r1
 80051f0:	611a      	str	r2, [r3, #16]
 80051f2:	6882      	ldr	r2, [r0, #8]
 80051f4:	6900      	ldr	r0, [r0, #16]
 80051f6:	68d9      	ldr	r1, [r3, #12]
 80051f8:	4302      	orrs	r2, r0
 80051fa:	6960      	ldr	r0, [r4, #20]
 80051fc:	f421 51b0 	bic.w	r1, r1, #5632	@ 0x1600
 8005200:	f021 010c 	bic.w	r1, r1, #12
 8005204:	4302      	orrs	r2, r0
 8005206:	430a      	orrs	r2, r1
 8005208:	60da      	str	r2, [r3, #12]
 800520a:	695a      	ldr	r2, [r3, #20]
 800520c:	69a1      	ldr	r1, [r4, #24]
 800520e:	f422 7240 	bic.w	r2, r2, #768	@ 0x300
 8005212:	430a      	orrs	r2, r1
 8005214:	615a      	str	r2, [r3, #20]
 8005216:	4a0e      	ldr	r2, [pc, #56]	@ (8005250 <UART_SetConfig+0x70>)
 8005218:	4293      	cmp	r3, r2
 800521a:	d115      	bne.n	8005248 <UART_SetConfig+0x68>
 800521c:	f7ff fd5c 	bl	8004cd8 <HAL_RCC_GetPCLK2Freq>
 8005220:	2319      	movs	r3, #25
 8005222:	4343      	muls	r3, r0
 8005224:	6862      	ldr	r2, [r4, #4]
 8005226:	6820      	ldr	r0, [r4, #0]
 8005228:	0092      	lsls	r2, r2, #2
 800522a:	fbb3 f3f2 	udiv	r3, r3, r2
 800522e:	2264      	movs	r2, #100	@ 0x64
 8005230:	fbb3 f1f2 	udiv	r1, r3, r2
 8005234:	fb02 3311 	mls	r3, r2, r1, r3
 8005238:	011b      	lsls	r3, r3, #4
 800523a:	3332      	adds	r3, #50	@ 0x32
 800523c:	fbb3 f3f2 	udiv	r3, r3, r2
 8005240:	eb03 1301 	add.w	r3, r3, r1, lsl #4
 8005244:	6083      	str	r3, [r0, #8]
 8005246:	bd10      	pop	{r4, pc}
 8005248:	f7ff fd36 	bl	8004cb8 <HAL_RCC_GetPCLK1Freq>
 800524c:	e7e8      	b.n	8005220 <UART_SetConfig+0x40>
 800524e:	bf00      	nop
 8005250:	40013800 	.word	0x40013800

08005254 <UART_WaitOnFlagUntilTimeout.constprop.0>:
 8005254:	b5f7      	push	{r0, r1, r2, r4, r5, r6, r7, lr}
 8005256:	4605      	mov	r5, r0
 8005258:	460c      	mov	r4, r1
 800525a:	4617      	mov	r7, r2
 800525c:	461e      	mov	r6, r3
 800525e:	682a      	ldr	r2, [r5, #0]
 8005260:	6813      	ldr	r3, [r2, #0]
 8005262:	ea34 0303 	bics.w	r3, r4, r3
 8005266:	d101      	bne.n	800526c <UART_WaitOnFlagUntilTimeout.constprop.0+0x18>
 8005268:	2000      	movs	r0, #0
 800526a:	e021      	b.n	80052b0 <UART_WaitOnFlagUntilTimeout.constprop.0+0x5c>
 800526c:	1c70      	adds	r0, r6, #1
 800526e:	d0f7      	beq.n	8005260 <UART_WaitOnFlagUntilTimeout.constprop.0+0xc>
 8005270:	f7fd fec8 	bl	8003004 <HAL_GetTick>
 8005274:	1bc0      	subs	r0, r0, r7
 8005276:	4286      	cmp	r6, r0
 8005278:	d31c      	bcc.n	80052b4 <UART_WaitOnFlagUntilTimeout.constprop.0+0x60>
 800527a:	b1de      	cbz	r6, 80052b4 <UART_WaitOnFlagUntilTimeout.constprop.0+0x60>
 800527c:	682b      	ldr	r3, [r5, #0]
 800527e:	68da      	ldr	r2, [r3, #12]
 8005280:	0751      	lsls	r1, r2, #29
 8005282:	d5ec      	bpl.n	800525e <UART_WaitOnFlagUntilTimeout.constprop.0+0xa>
 8005284:	2c80      	cmp	r4, #128	@ 0x80
 8005286:	d0ea      	beq.n	800525e <UART_WaitOnFlagUntilTimeout.constprop.0+0xa>
 8005288:	2c40      	cmp	r4, #64	@ 0x40
 800528a:	d0e8      	beq.n	800525e <UART_WaitOnFlagUntilTimeout.constprop.0+0xa>
 800528c:	681a      	ldr	r2, [r3, #0]
 800528e:	0712      	lsls	r2, r2, #28
 8005290:	d5e5      	bpl.n	800525e <UART_WaitOnFlagUntilTimeout.constprop.0+0xa>
 8005292:	2400      	movs	r4, #0
 8005294:	9401      	str	r4, [sp, #4]
 8005296:	681a      	ldr	r2, [r3, #0]
 8005298:	4628      	mov	r0, r5
 800529a:	9201      	str	r2, [sp, #4]
 800529c:	685b      	ldr	r3, [r3, #4]
 800529e:	9301      	str	r3, [sp, #4]
 80052a0:	9b01      	ldr	r3, [sp, #4]
 80052a2:	f7ff ff6f 	bl	8005184 <UART_EndRxTransfer>
 80052a6:	2308      	movs	r3, #8
 80052a8:	2001      	movs	r0, #1
 80052aa:	646b      	str	r3, [r5, #68]	@ 0x44
 80052ac:	f885 4040 	strb.w	r4, [r5, #64]	@ 0x40
 80052b0:	b003      	add	sp, #12
 80052b2:	bdf0      	pop	{r4, r5, r6, r7, pc}
 80052b4:	2003      	movs	r0, #3
 80052b6:	e7fb      	b.n	80052b0 <UART_WaitOnFlagUntilTimeout.constprop.0+0x5c>

080052b8 <HAL_UART_Init>:
 80052b8:	b510      	push	{r4, lr}
 80052ba:	4604      	mov	r4, r0
 80052bc:	b348      	cbz	r0, 8005312 <HAL_UART_Init+0x5a>
 80052be:	f890 3041 	ldrb.w	r3, [r0, #65]	@ 0x41
 80052c2:	f003 02ff 	and.w	r2, r3, #255	@ 0xff
 80052c6:	b91b      	cbnz	r3, 80052d0 <HAL_UART_Init+0x18>
 80052c8:	f880 2040 	strb.w	r2, [r0, #64]	@ 0x40
 80052cc:	f7fd fcfc 	bl	8002cc8 <HAL_UART_MspInit>
 80052d0:	2324      	movs	r3, #36	@ 0x24
 80052d2:	6822      	ldr	r2, [r4, #0]
 80052d4:	f884 3041 	strb.w	r3, [r4, #65]	@ 0x41
 80052d8:	68d3      	ldr	r3, [r2, #12]
 80052da:	4620      	mov	r0, r4
 80052dc:	f423 5300 	bic.w	r3, r3, #8192	@ 0x2000
 80052e0:	60d3      	str	r3, [r2, #12]
 80052e2:	f7ff ff7d 	bl	80051e0 <UART_SetConfig>
 80052e6:	6823      	ldr	r3, [r4, #0]
 80052e8:	2000      	movs	r0, #0
 80052ea:	691a      	ldr	r2, [r3, #16]
 80052ec:	f422 4290 	bic.w	r2, r2, #18432	@ 0x4800
 80052f0:	611a      	str	r2, [r3, #16]
 80052f2:	695a      	ldr	r2, [r3, #20]
 80052f4:	f022 022a 	bic.w	r2, r2, #42	@ 0x2a
 80052f8:	615a      	str	r2, [r3, #20]
 80052fa:	68da      	ldr	r2, [r3, #12]
 80052fc:	f442 5200 	orr.w	r2, r2, #8192	@ 0x2000
 8005300:	60da      	str	r2, [r3, #12]
 8005302:	2320      	movs	r3, #32
 8005304:	6460      	str	r0, [r4, #68]	@ 0x44
 8005306:	f884 3041 	strb.w	r3, [r4, #65]	@ 0x41
 800530a:	f884 3042 	strb.w	r3, [r4, #66]	@ 0x42
 800530e:	6360      	str	r0, [r4, #52]	@ 0x34
 8005310:	bd10      	pop	{r4, pc}
 8005312:	2001      	movs	r0, #1
 8005314:	e7fc      	b.n	8005310 <HAL_UART_Init+0x58>

08005316 <HAL_UART_Transmit>:
 8005316:	e92d 43f8 	stmdb	sp!, {r3, r4, r5, r6, r7, r8, r9, lr}
 800531a:	4698      	mov	r8, r3
 800531c:	f890 3041 	ldrb.w	r3, [r0, #65]	@ 0x41
 8005320:	4604      	mov	r4, r0
 8005322:	2b20      	cmp	r3, #32
 8005324:	460e      	mov	r6, r1
 8005326:	4617      	mov	r7, r2
 8005328:	d13f      	bne.n	80053aa <HAL_UART_Transmit+0x94>
 800532a:	2900      	cmp	r1, #0
 800532c:	d03f      	beq.n	80053ae <HAL_UART_Transmit+0x98>
 800532e:	2a00      	cmp	r2, #0
 8005330:	d03d      	beq.n	80053ae <HAL_UART_Transmit+0x98>
 8005332:	2321      	movs	r3, #33	@ 0x21
 8005334:	2500      	movs	r5, #0
 8005336:	6445      	str	r5, [r0, #68]	@ 0x44
 8005338:	f880 3041 	strb.w	r3, [r0, #65]	@ 0x41
 800533c:	f7fd fe62 	bl	8003004 <HAL_GetTick>
 8005340:	68a3      	ldr	r3, [r4, #8]
 8005342:	4681      	mov	r9, r0
 8005344:	f5b3 5f80 	cmp.w	r3, #4096	@ 0x1000
 8005348:	84a7      	strh	r7, [r4, #36]	@ 0x24
 800534a:	84e7      	strh	r7, [r4, #38]	@ 0x26
 800534c:	d103      	bne.n	8005356 <HAL_UART_Transmit+0x40>
 800534e:	6923      	ldr	r3, [r4, #16]
 8005350:	b90b      	cbnz	r3, 8005356 <HAL_UART_Transmit+0x40>
 8005352:	4635      	mov	r5, r6
 8005354:	461e      	mov	r6, r3
 8005356:	8ce3      	ldrh	r3, [r4, #38]	@ 0x26
 8005358:	b29b      	uxth	r3, r3
 800535a:	b953      	cbnz	r3, 8005372 <HAL_UART_Transmit+0x5c>
 800535c:	4643      	mov	r3, r8
 800535e:	464a      	mov	r2, r9
 8005360:	2140      	movs	r1, #64	@ 0x40
 8005362:	4620      	mov	r0, r4
 8005364:	f7ff ff76 	bl	8005254 <UART_WaitOnFlagUntilTimeout.constprop.0>
 8005368:	2320      	movs	r3, #32
 800536a:	b950      	cbnz	r0, 8005382 <HAL_UART_Transmit+0x6c>
 800536c:	f884 3041 	strb.w	r3, [r4, #65]	@ 0x41
 8005370:	e00a      	b.n	8005388 <HAL_UART_Transmit+0x72>
 8005372:	4643      	mov	r3, r8
 8005374:	464a      	mov	r2, r9
 8005376:	2180      	movs	r1, #128	@ 0x80
 8005378:	4620      	mov	r0, r4
 800537a:	f7ff ff6b 	bl	8005254 <UART_WaitOnFlagUntilTimeout.constprop.0>
 800537e:	b128      	cbz	r0, 800538c <HAL_UART_Transmit+0x76>
 8005380:	2320      	movs	r3, #32
 8005382:	2003      	movs	r0, #3
 8005384:	f884 3041 	strb.w	r3, [r4, #65]	@ 0x41
 8005388:	e8bd 83f8 	ldmia.w	sp!, {r3, r4, r5, r6, r7, r8, r9, pc}
 800538c:	6822      	ldr	r2, [r4, #0]
 800538e:	b94e      	cbnz	r6, 80053a4 <HAL_UART_Transmit+0x8e>
 8005390:	f835 3b02 	ldrh.w	r3, [r5], #2
 8005394:	f3c3 0308 	ubfx	r3, r3, #0, #9
 8005398:	6053      	str	r3, [r2, #4]
 800539a:	8ce1      	ldrh	r1, [r4, #38]	@ 0x26
 800539c:	3901      	subs	r1, #1
 800539e:	b289      	uxth	r1, r1
 80053a0:	84e1      	strh	r1, [r4, #38]	@ 0x26
 80053a2:	e7d8      	b.n	8005356 <HAL_UART_Transmit+0x40>
 80053a4:	f816 3b01 	ldrb.w	r3, [r6], #1
 80053a8:	e7f6      	b.n	8005398 <HAL_UART_Transmit+0x82>
 80053aa:	2002      	movs	r0, #2
 80053ac:	e7ec      	b.n	8005388 <HAL_UART_Transmit+0x72>
 80053ae:	2001      	movs	r0, #1
 80053b0:	e7ea      	b.n	8005388 <HAL_UART_Transmit+0x72>

080053b2 <HAL_UART_Receive>:
 80053b2:	e92d 43f8 	stmdb	sp!, {r3, r4, r5, r6, r7, r8, r9, lr}
 80053b6:	461f      	mov	r7, r3
 80053b8:	f890 3042 	ldrb.w	r3, [r0, #66]	@ 0x42
 80053bc:	4604      	mov	r4, r0
 80053be:	2b20      	cmp	r3, #32
 80053c0:	460e      	mov	r6, r1
 80053c2:	4691      	mov	r9, r2
 80053c4:	d148      	bne.n	8005458 <HAL_UART_Receive+0xa6>
 80053c6:	2900      	cmp	r1, #0
 80053c8:	d048      	beq.n	800545c <HAL_UART_Receive+0xaa>
 80053ca:	2a00      	cmp	r2, #0
 80053cc:	d046      	beq.n	800545c <HAL_UART_Receive+0xaa>
 80053ce:	2322      	movs	r3, #34	@ 0x22
 80053d0:	2500      	movs	r5, #0
 80053d2:	6445      	str	r5, [r0, #68]	@ 0x44
 80053d4:	f880 3042 	strb.w	r3, [r0, #66]	@ 0x42
 80053d8:	6305      	str	r5, [r0, #48]	@ 0x30
 80053da:	f7fd fe13 	bl	8003004 <HAL_GetTick>
 80053de:	68a3      	ldr	r3, [r4, #8]
 80053e0:	4680      	mov	r8, r0
 80053e2:	f5b3 5f80 	cmp.w	r3, #4096	@ 0x1000
 80053e6:	f8a4 902c 	strh.w	r9, [r4, #44]	@ 0x2c
 80053ea:	f8a4 902e 	strh.w	r9, [r4, #46]	@ 0x2e
 80053ee:	d103      	bne.n	80053f8 <HAL_UART_Receive+0x46>
 80053f0:	6923      	ldr	r3, [r4, #16]
 80053f2:	b90b      	cbnz	r3, 80053f8 <HAL_UART_Receive+0x46>
 80053f4:	4635      	mov	r5, r6
 80053f6:	461e      	mov	r6, r3
 80053f8:	8de0      	ldrh	r0, [r4, #46]	@ 0x2e
 80053fa:	b280      	uxth	r0, r0
 80053fc:	b918      	cbnz	r0, 8005406 <HAL_UART_Receive+0x54>
 80053fe:	2320      	movs	r3, #32
 8005400:	f884 3042 	strb.w	r3, [r4, #66]	@ 0x42
 8005404:	e00a      	b.n	800541c <HAL_UART_Receive+0x6a>
 8005406:	463b      	mov	r3, r7
 8005408:	4642      	mov	r2, r8
 800540a:	2120      	movs	r1, #32
 800540c:	4620      	mov	r0, r4
 800540e:	f7ff ff21 	bl	8005254 <UART_WaitOnFlagUntilTimeout.constprop.0>
 8005412:	b128      	cbz	r0, 8005420 <HAL_UART_Receive+0x6e>
 8005414:	2320      	movs	r3, #32
 8005416:	2003      	movs	r0, #3
 8005418:	f884 3042 	strb.w	r3, [r4, #66]	@ 0x42
 800541c:	e8bd 83f8 	ldmia.w	sp!, {r3, r4, r5, r6, r7, r8, r9, pc}
 8005420:	6823      	ldr	r3, [r4, #0]
 8005422:	b94e      	cbnz	r6, 8005438 <HAL_UART_Receive+0x86>
 8005424:	685b      	ldr	r3, [r3, #4]
 8005426:	f3c3 0308 	ubfx	r3, r3, #0, #9
 800542a:	f825 3b02 	strh.w	r3, [r5], #2
 800542e:	8de3      	ldrh	r3, [r4, #46]	@ 0x2e
 8005430:	3b01      	subs	r3, #1
 8005432:	b29b      	uxth	r3, r3
 8005434:	85e3      	strh	r3, [r4, #46]	@ 0x2e
 8005436:	e7df      	b.n	80053f8 <HAL_UART_Receive+0x46>
 8005438:	68a2      	ldr	r2, [r4, #8]
 800543a:	f5b2 5f80 	cmp.w	r2, #4096	@ 0x1000
 800543e:	d002      	beq.n	8005446 <HAL_UART_Receive+0x94>
 8005440:	b932      	cbnz	r2, 8005450 <HAL_UART_Receive+0x9e>
 8005442:	6922      	ldr	r2, [r4, #16]
 8005444:	b922      	cbnz	r2, 8005450 <HAL_UART_Receive+0x9e>
 8005446:	6859      	ldr	r1, [r3, #4]
 8005448:	b2c9      	uxtb	r1, r1
 800544a:	f806 1b01 	strb.w	r1, [r6], #1
 800544e:	e7ee      	b.n	800542e <HAL_UART_Receive+0x7c>
 8005450:	6859      	ldr	r1, [r3, #4]
 8005452:	f001 017f 	and.w	r1, r1, #127	@ 0x7f
 8005456:	e7f8      	b.n	800544a <HAL_UART_Receive+0x98>
 8005458:	2002      	movs	r0, #2
 800545a:	e7df      	b.n	800541c <HAL_UART_Receive+0x6a>
 800545c:	2001      	movs	r0, #1
 800545e:	e7dd      	b.n	800541c <HAL_UART_Receive+0x6a>

08005460 <HAL_UART_Abort>:
 8005460:	b510      	push	{r4, lr}
 8005462:	4604      	mov	r4, r0
 8005464:	6822      	ldr	r2, [r4, #0]
 8005466:	f102 030c 	add.w	r3, r2, #12
 800546a:	e853 3f00 	ldrex	r3, [r3]
 800546e:	f423 73f0 	bic.w	r3, r3, #480	@ 0x1e0
 8005472:	320c      	adds	r2, #12
 8005474:	e842 3100 	strex	r1, r3, [r2]
 8005478:	6823      	ldr	r3, [r4, #0]
 800547a:	2900      	cmp	r1, #0
 800547c:	d1f2      	bne.n	8005464 <HAL_UART_Abort+0x4>
 800547e:	f103 0214 	add.w	r2, r3, #20
 8005482:	e852 2f00 	ldrex	r2, [r2]
 8005486:	f022 0201 	bic.w	r2, r2, #1
 800548a:	f103 0014 	add.w	r0, r3, #20
 800548e:	e840 2100 	strex	r1, r2, [r0]
 8005492:	2900      	cmp	r1, #0
 8005494:	d1f3      	bne.n	800547e <HAL_UART_Abort+0x1e>
 8005496:	6b22      	ldr	r2, [r4, #48]	@ 0x30
 8005498:	2a01      	cmp	r2, #1
 800549a:	d10b      	bne.n	80054b4 <HAL_UART_Abort+0x54>
 800549c:	f103 020c 	add.w	r2, r3, #12
 80054a0:	e852 2f00 	ldrex	r2, [r2]
 80054a4:	f022 0210 	bic.w	r2, r2, #16
 80054a8:	f103 000c 	add.w	r0, r3, #12
 80054ac:	e840 2100 	strex	r1, r2, [r0]
 80054b0:	2900      	cmp	r1, #0
 80054b2:	d1f3      	bne.n	800549c <HAL_UART_Abort+0x3c>
 80054b4:	695a      	ldr	r2, [r3, #20]
 80054b6:	0612      	lsls	r2, r2, #24
 80054b8:	d51a      	bpl.n	80054f0 <HAL_UART_Abort+0x90>
 80054ba:	f103 0214 	add.w	r2, r3, #20
 80054be:	e852 2f00 	ldrex	r2, [r2]
 80054c2:	f022 0280 	bic.w	r2, r2, #128	@ 0x80
 80054c6:	f103 0014 	add.w	r0, r3, #20
 80054ca:	e840 2100 	strex	r1, r2, [r0]
 80054ce:	2900      	cmp	r1, #0
 80054d0:	d1f3      	bne.n	80054ba <HAL_UART_Abort+0x5a>
 80054d2:	6ba0      	ldr	r0, [r4, #56]	@ 0x38
 80054d4:	b160      	cbz	r0, 80054f0 <HAL_UART_Abort+0x90>
 80054d6:	6341      	str	r1, [r0, #52]	@ 0x34
 80054d8:	f7fd fe10 	bl	80030fc <HAL_DMA_Abort>
 80054dc:	b140      	cbz	r0, 80054f0 <HAL_UART_Abort+0x90>
 80054de:	6ba0      	ldr	r0, [r4, #56]	@ 0x38
 80054e0:	f7fd fe72 	bl	80031c8 <HAL_DMA_GetError>
 80054e4:	2820      	cmp	r0, #32
 80054e6:	d103      	bne.n	80054f0 <HAL_UART_Abort+0x90>
 80054e8:	2310      	movs	r3, #16
 80054ea:	2003      	movs	r0, #3
 80054ec:	6463      	str	r3, [r4, #68]	@ 0x44
 80054ee:	bd10      	pop	{r4, pc}
 80054f0:	6822      	ldr	r2, [r4, #0]
 80054f2:	6953      	ldr	r3, [r2, #20]
 80054f4:	065b      	lsls	r3, r3, #25
 80054f6:	d516      	bpl.n	8005526 <HAL_UART_Abort+0xc6>
 80054f8:	f102 0314 	add.w	r3, r2, #20
 80054fc:	e853 3f00 	ldrex	r3, [r3]
 8005500:	f023 0340 	bic.w	r3, r3, #64	@ 0x40
 8005504:	f102 0014 	add.w	r0, r2, #20
 8005508:	e840 3100 	strex	r1, r3, [r0]
 800550c:	2900      	cmp	r1, #0
 800550e:	d1f3      	bne.n	80054f8 <HAL_UART_Abort+0x98>
 8005510:	6be0      	ldr	r0, [r4, #60]	@ 0x3c
 8005512:	b140      	cbz	r0, 8005526 <HAL_UART_Abort+0xc6>
 8005514:	6341      	str	r1, [r0, #52]	@ 0x34
 8005516:	f7fd fdf1 	bl	80030fc <HAL_DMA_Abort>
 800551a:	b120      	cbz	r0, 8005526 <HAL_UART_Abort+0xc6>
 800551c:	6be0      	ldr	r0, [r4, #60]	@ 0x3c
 800551e:	f7fd fe53 	bl	80031c8 <HAL_DMA_GetError>
 8005522:	2820      	cmp	r0, #32
 8005524:	d0e0      	beq.n	80054e8 <HAL_UART_Abort+0x88>
 8005526:	2000      	movs	r0, #0
 8005528:	2320      	movs	r3, #32
 800552a:	84e0      	strh	r0, [r4, #38]	@ 0x26
 800552c:	85e0      	strh	r0, [r4, #46]	@ 0x2e
 800552e:	6460      	str	r0, [r4, #68]	@ 0x44
 8005530:	f884 3042 	strb.w	r3, [r4, #66]	@ 0x42
 8005534:	f884 3041 	strb.w	r3, [r4, #65]	@ 0x41
 8005538:	6320      	str	r0, [r4, #48]	@ 0x30
 800553a:	e7d8      	b.n	80054ee <HAL_UART_Abort+0x8e>

0800553c <UART_DMAAbortOnError>:
 800553c:	b508      	push	{r3, lr}
 800553e:	2300      	movs	r3, #0
 8005540:	6a40      	ldr	r0, [r0, #36]	@ 0x24
 8005542:	85c3      	strh	r3, [r0, #46]	@ 0x2e
 8005544:	84c3      	strh	r3, [r0, #38]	@ 0x26
 8005546:	f7fc fbf1 	bl	8001d2c <HAL_UART_ErrorCallback>
 800554a:	bd08      	pop	{r3, pc}

0800554c <HAL_UART_AbortReceiveCpltCallback>:
 800554c:	4770      	bx	lr
	...

08005550 <HAL_UART_AbortReceive_IT>:
 8005550:	b510      	push	{r4, lr}
 8005552:	4604      	mov	r4, r0
 8005554:	6822      	ldr	r2, [r4, #0]
 8005556:	f102 030c 	add.w	r3, r2, #12
 800555a:	e853 3f00 	ldrex	r3, [r3]
 800555e:	f423 7390 	bic.w	r3, r3, #288	@ 0x120
 8005562:	320c      	adds	r2, #12
 8005564:	e842 3100 	strex	r1, r3, [r2]
 8005568:	6823      	ldr	r3, [r4, #0]
 800556a:	2900      	cmp	r1, #0
 800556c:	d1f2      	bne.n	8005554 <HAL_UART_AbortReceive_IT+0x4>
 800556e:	f103 0214 	add.w	r2, r3, #20
 8005572:	e852 2f00 	ldrex	r2, [r2]
 8005576:	f022 0201 	bic.w	r2, r2, #1
 800557a:	f103 0014 	add.w	r0, r3, #20
 800557e:	e840 2100 	strex	r1, r2, [r0]
 8005582:	2900      	cmp	r1, #0
 8005584:	d1f3      	bne.n	800556e <HAL_UART_AbortReceive_IT+0x1e>
 8005586:	6b22      	ldr	r2, [r4, #48]	@ 0x30
 8005588:	2a01      	cmp	r2, #1
 800558a:	d10b      	bne.n	80055a4 <HAL_UART_AbortReceive_IT+0x54>
 800558c:	f103 020c 	add.w	r2, r3, #12
 8005590:	e852 2f00 	ldrex	r2, [r2]
 8005594:	f022 0210 	bic.w	r2, r2, #16
 8005598:	f103 000c 	add.w	r0, r3, #12
 800559c:	e840 2100 	strex	r1, r2, [r0]
 80055a0:	2900      	cmp	r1, #0
 80055a2:	d1f3      	bne.n	800558c <HAL_UART_AbortReceive_IT+0x3c>
 80055a4:	695a      	ldr	r2, [r3, #20]
 80055a6:	f012 0240 	ands.w	r2, r2, #64	@ 0x40
 80055aa:	d020      	beq.n	80055ee <HAL_UART_AbortReceive_IT+0x9e>
 80055ac:	f103 0214 	add.w	r2, r3, #20
 80055b0:	e852 2f00 	ldrex	r2, [r2]
 80055b4:	f022 0240 	bic.w	r2, r2, #64	@ 0x40
 80055b8:	f103 0014 	add.w	r0, r3, #20
 80055bc:	e840 2100 	strex	r1, r2, [r0]
 80055c0:	2900      	cmp	r1, #0
 80055c2:	d1f3      	bne.n	80055ac <HAL_UART_AbortReceive_IT+0x5c>
 80055c4:	6be0      	ldr	r0, [r4, #60]	@ 0x3c
 80055c6:	b148      	cbz	r0, 80055dc <HAL_UART_AbortReceive_IT+0x8c>
 80055c8:	4b0c      	ldr	r3, [pc, #48]	@ (80055fc <HAL_UART_AbortReceive_IT+0xac>)
 80055ca:	6343      	str	r3, [r0, #52]	@ 0x34
 80055cc:	f7fd fdb6 	bl	800313c <HAL_DMA_Abort_IT>
 80055d0:	b110      	cbz	r0, 80055d8 <HAL_UART_AbortReceive_IT+0x88>
 80055d2:	6be0      	ldr	r0, [r4, #60]	@ 0x3c
 80055d4:	6b43      	ldr	r3, [r0, #52]	@ 0x34
 80055d6:	4798      	blx	r3
 80055d8:	2000      	movs	r0, #0
 80055da:	bd10      	pop	{r4, pc}
 80055dc:	2320      	movs	r3, #32
 80055de:	85e0      	strh	r0, [r4, #46]	@ 0x2e
 80055e0:	f884 3042 	strb.w	r3, [r4, #66]	@ 0x42
 80055e4:	6320      	str	r0, [r4, #48]	@ 0x30
 80055e6:	4620      	mov	r0, r4
 80055e8:	f7ff ffb0 	bl	800554c <HAL_UART_AbortReceiveCpltCallback>
 80055ec:	e7f4      	b.n	80055d8 <HAL_UART_AbortReceive_IT+0x88>
 80055ee:	2320      	movs	r3, #32
 80055f0:	85e2      	strh	r2, [r4, #46]	@ 0x2e
 80055f2:	f884 3042 	strb.w	r3, [r4, #66]	@ 0x42
 80055f6:	6322      	str	r2, [r4, #48]	@ 0x30
 80055f8:	e7f5      	b.n	80055e6 <HAL_UART_AbortReceive_IT+0x96>
 80055fa:	bf00      	nop
 80055fc:	08005601 	.word	0x08005601

08005600 <UART_DMARxOnlyAbortCallback>:
 8005600:	b508      	push	{r3, lr}
 8005602:	2220      	movs	r2, #32
 8005604:	2300      	movs	r3, #0
 8005606:	6a40      	ldr	r0, [r0, #36]	@ 0x24
 8005608:	85c3      	strh	r3, [r0, #46]	@ 0x2e
 800560a:	f880 2042 	strb.w	r2, [r0, #66]	@ 0x42
 800560e:	6303      	str	r3, [r0, #48]	@ 0x30
 8005610:	f7ff ff9c 	bl	800554c <HAL_UART_AbortReceiveCpltCallback>
 8005614:	bd08      	pop	{r3, pc}

08005616 <HAL_UARTEx_RxEventCallback>:
 8005616:	4770      	bx	lr

08005618 <UART_Receive_IT.isra.0>:
 8005618:	f890 3042 	ldrb.w	r3, [r0, #66]	@ 0x42
 800561c:	b507      	push	{r0, r1, r2, lr}
 800561e:	2b22      	cmp	r3, #34	@ 0x22
 8005620:	d142      	bne.n	80056a8 <UART_Receive_IT.isra.0+0x90>
 8005622:	6881      	ldr	r1, [r0, #8]
 8005624:	6802      	ldr	r2, [r0, #0]
 8005626:	f5b1 5f80 	cmp.w	r1, #4096	@ 0x1000
 800562a:	6a83      	ldr	r3, [r0, #40]	@ 0x28
 800562c:	d13f      	bne.n	80056ae <UART_Receive_IT.isra.0+0x96>
 800562e:	6901      	ldr	r1, [r0, #16]
 8005630:	2900      	cmp	r1, #0
 8005632:	d13f      	bne.n	80056b4 <UART_Receive_IT.isra.0+0x9c>
 8005634:	6852      	ldr	r2, [r2, #4]
 8005636:	f3c2 0208 	ubfx	r2, r2, #0, #9
 800563a:	f823 2b02 	strh.w	r2, [r3], #2
 800563e:	6283      	str	r3, [r0, #40]	@ 0x28
 8005640:	8dc3      	ldrh	r3, [r0, #46]	@ 0x2e
 8005642:	3b01      	subs	r3, #1
 8005644:	b29b      	uxth	r3, r3
 8005646:	85c3      	strh	r3, [r0, #46]	@ 0x2e
 8005648:	2b00      	cmp	r3, #0
 800564a:	d12d      	bne.n	80056a8 <UART_Receive_IT.isra.0+0x90>
 800564c:	6802      	ldr	r2, [r0, #0]
 800564e:	68d1      	ldr	r1, [r2, #12]
 8005650:	f021 0120 	bic.w	r1, r1, #32
 8005654:	60d1      	str	r1, [r2, #12]
 8005656:	68d1      	ldr	r1, [r2, #12]
 8005658:	f421 7180 	bic.w	r1, r1, #256	@ 0x100
 800565c:	60d1      	str	r1, [r2, #12]
 800565e:	6951      	ldr	r1, [r2, #20]
 8005660:	f021 0101 	bic.w	r1, r1, #1
 8005664:	6151      	str	r1, [r2, #20]
 8005666:	2220      	movs	r2, #32
 8005668:	f880 2042 	strb.w	r2, [r0, #66]	@ 0x42
 800566c:	6343      	str	r3, [r0, #52]	@ 0x34
 800566e:	6b02      	ldr	r2, [r0, #48]	@ 0x30
 8005670:	2a01      	cmp	r2, #1
 8005672:	6802      	ldr	r2, [r0, #0]
 8005674:	d128      	bne.n	80056c8 <UART_Receive_IT.isra.0+0xb0>
 8005676:	6303      	str	r3, [r0, #48]	@ 0x30
 8005678:	f102 030c 	add.w	r3, r2, #12
 800567c:	e853 3f00 	ldrex	r3, [r3]
 8005680:	f023 0310 	bic.w	r3, r3, #16
 8005684:	f102 0c0c 	add.w	ip, r2, #12
 8005688:	e84c 3100 	strex	r1, r3, [ip]
 800568c:	2900      	cmp	r1, #0
 800568e:	d1f3      	bne.n	8005678 <UART_Receive_IT.isra.0+0x60>
 8005690:	6813      	ldr	r3, [r2, #0]
 8005692:	06db      	lsls	r3, r3, #27
 8005694:	d505      	bpl.n	80056a2 <UART_Receive_IT.isra.0+0x8a>
 8005696:	9101      	str	r1, [sp, #4]
 8005698:	6813      	ldr	r3, [r2, #0]
 800569a:	9301      	str	r3, [sp, #4]
 800569c:	6853      	ldr	r3, [r2, #4]
 800569e:	9301      	str	r3, [sp, #4]
 80056a0:	9b01      	ldr	r3, [sp, #4]
 80056a2:	8d81      	ldrh	r1, [r0, #44]	@ 0x2c
 80056a4:	f7ff ffb7 	bl	8005616 <HAL_UARTEx_RxEventCallback>
 80056a8:	b003      	add	sp, #12
 80056aa:	f85d fb04 	ldr.w	pc, [sp], #4
 80056ae:	b939      	cbnz	r1, 80056c0 <UART_Receive_IT.isra.0+0xa8>
 80056b0:	6901      	ldr	r1, [r0, #16]
 80056b2:	b929      	cbnz	r1, 80056c0 <UART_Receive_IT.isra.0+0xa8>
 80056b4:	6852      	ldr	r2, [r2, #4]
 80056b6:	b2d2      	uxtb	r2, r2
 80056b8:	701a      	strb	r2, [r3, #0]
 80056ba:	6a83      	ldr	r3, [r0, #40]	@ 0x28
 80056bc:	3301      	adds	r3, #1
 80056be:	e7be      	b.n	800563e <UART_Receive_IT.isra.0+0x26>
 80056c0:	6852      	ldr	r2, [r2, #4]
 80056c2:	f002 027f 	and.w	r2, r2, #127	@ 0x7f
 80056c6:	e7f7      	b.n	80056b8 <UART_Receive_IT.isra.0+0xa0>
 80056c8:	f7fc fb16 	bl	8001cf8 <HAL_UART_RxCpltCallback>
 80056cc:	e7ec      	b.n	80056a8 <UART_Receive_IT.isra.0+0x90>
	...

080056d0 <HAL_UART_IRQHandler>:
 80056d0:	6803      	ldr	r3, [r0, #0]
 80056d2:	b573      	push	{r0, r1, r4, r5, r6, lr}
 80056d4:	681a      	ldr	r2, [r3, #0]
 80056d6:	4604      	mov	r4, r0
 80056d8:	0716      	lsls	r6, r2, #28
 80056da:	68d9      	ldr	r1, [r3, #12]
 80056dc:	695d      	ldr	r5, [r3, #20]
 80056de:	d108      	bne.n	80056f2 <HAL_UART_IRQHandler+0x22>
 80056e0:	0696      	lsls	r6, r2, #26
 80056e2:	d568      	bpl.n	80057b6 <HAL_UART_IRQHandler+0xe6>
 80056e4:	068d      	lsls	r5, r1, #26
 80056e6:	d566      	bpl.n	80057b6 <HAL_UART_IRQHandler+0xe6>
 80056e8:	b002      	add	sp, #8
 80056ea:	e8bd 4070 	ldmia.w	sp!, {r4, r5, r6, lr}
 80056ee:	f7ff bf93 	b.w	8005618 <UART_Receive_IT.isra.0>
 80056f2:	f005 0001 	and.w	r0, r5, #1
 80056f6:	f401 7590 	and.w	r5, r1, #288	@ 0x120
 80056fa:	4305      	orrs	r5, r0
 80056fc:	d05b      	beq.n	80057b6 <HAL_UART_IRQHandler+0xe6>
 80056fe:	07d6      	lsls	r6, r2, #31
 8005700:	d505      	bpl.n	800570e <HAL_UART_IRQHandler+0x3e>
 8005702:	05cd      	lsls	r5, r1, #23
 8005704:	bf42      	ittt	mi
 8005706:	6c63      	ldrmi	r3, [r4, #68]	@ 0x44
 8005708:	f043 0301 	orrmi.w	r3, r3, #1
 800570c:	6463      	strmi	r3, [r4, #68]	@ 0x44
 800570e:	0753      	lsls	r3, r2, #29
 8005710:	d504      	bpl.n	800571c <HAL_UART_IRQHandler+0x4c>
 8005712:	b118      	cbz	r0, 800571c <HAL_UART_IRQHandler+0x4c>
 8005714:	6c63      	ldr	r3, [r4, #68]	@ 0x44
 8005716:	f043 0302 	orr.w	r3, r3, #2
 800571a:	6463      	str	r3, [r4, #68]	@ 0x44
 800571c:	0796      	lsls	r6, r2, #30
 800571e:	d504      	bpl.n	800572a <HAL_UART_IRQHandler+0x5a>
 8005720:	b118      	cbz	r0, 800572a <HAL_UART_IRQHandler+0x5a>
 8005722:	6c63      	ldr	r3, [r4, #68]	@ 0x44
 8005724:	f043 0304 	orr.w	r3, r3, #4
 8005728:	6463      	str	r3, [r4, #68]	@ 0x44
 800572a:	0715      	lsls	r5, r2, #28
 800572c:	d507      	bpl.n	800573e <HAL_UART_IRQHandler+0x6e>
 800572e:	f001 0320 	and.w	r3, r1, #32
 8005732:	4303      	orrs	r3, r0
 8005734:	bf1e      	ittt	ne
 8005736:	6c63      	ldrne	r3, [r4, #68]	@ 0x44
 8005738:	f043 0308 	orrne.w	r3, r3, #8
 800573c:	6463      	strne	r3, [r4, #68]	@ 0x44
 800573e:	6c63      	ldr	r3, [r4, #68]	@ 0x44
 8005740:	2b00      	cmp	r3, #0
 8005742:	d032      	beq.n	80057aa <HAL_UART_IRQHandler+0xda>
 8005744:	0692      	lsls	r2, r2, #26
 8005746:	d504      	bpl.n	8005752 <HAL_UART_IRQHandler+0x82>
 8005748:	068b      	lsls	r3, r1, #26
 800574a:	d502      	bpl.n	8005752 <HAL_UART_IRQHandler+0x82>
 800574c:	4620      	mov	r0, r4
 800574e:	f7ff ff63 	bl	8005618 <UART_Receive_IT.isra.0>
 8005752:	6826      	ldr	r6, [r4, #0]
 8005754:	4620      	mov	r0, r4
 8005756:	6973      	ldr	r3, [r6, #20]
 8005758:	6c62      	ldr	r2, [r4, #68]	@ 0x44
 800575a:	f003 0340 	and.w	r3, r3, #64	@ 0x40
 800575e:	f002 0208 	and.w	r2, r2, #8
 8005762:	ea53 0502 	orrs.w	r5, r3, r2
 8005766:	d022      	beq.n	80057ae <HAL_UART_IRQHandler+0xde>
 8005768:	f7ff fd0c 	bl	8005184 <UART_EndRxTransfer>
 800576c:	6973      	ldr	r3, [r6, #20]
 800576e:	065e      	lsls	r6, r3, #25
 8005770:	d518      	bpl.n	80057a4 <HAL_UART_IRQHandler+0xd4>
 8005772:	6822      	ldr	r2, [r4, #0]
 8005774:	f102 0314 	add.w	r3, r2, #20
 8005778:	e853 3f00 	ldrex	r3, [r3]
 800577c:	f023 0340 	bic.w	r3, r3, #64	@ 0x40
 8005780:	3214      	adds	r2, #20
 8005782:	e842 3100 	strex	r1, r3, [r2]
 8005786:	2900      	cmp	r1, #0
 8005788:	d1f3      	bne.n	8005772 <HAL_UART_IRQHandler+0xa2>
 800578a:	6be0      	ldr	r0, [r4, #60]	@ 0x3c
 800578c:	b150      	cbz	r0, 80057a4 <HAL_UART_IRQHandler+0xd4>
 800578e:	4b74      	ldr	r3, [pc, #464]	@ (8005960 <HAL_UART_IRQHandler+0x290>)
 8005790:	6343      	str	r3, [r0, #52]	@ 0x34
 8005792:	f7fd fcd3 	bl	800313c <HAL_DMA_Abort_IT>
 8005796:	b140      	cbz	r0, 80057aa <HAL_UART_IRQHandler+0xda>
 8005798:	6be0      	ldr	r0, [r4, #60]	@ 0x3c
 800579a:	6b43      	ldr	r3, [r0, #52]	@ 0x34
 800579c:	b002      	add	sp, #8
 800579e:	e8bd 4070 	ldmia.w	sp!, {r4, r5, r6, lr}
 80057a2:	4718      	bx	r3
 80057a4:	4620      	mov	r0, r4
 80057a6:	f7fc fac1 	bl	8001d2c <HAL_UART_ErrorCallback>
 80057aa:	b002      	add	sp, #8
 80057ac:	bd70      	pop	{r4, r5, r6, pc}
 80057ae:	f7fc fabd 	bl	8001d2c <HAL_UART_ErrorCallback>
 80057b2:	6465      	str	r5, [r4, #68]	@ 0x44
 80057b4:	e7f9      	b.n	80057aa <HAL_UART_IRQHandler+0xda>
 80057b6:	6b20      	ldr	r0, [r4, #48]	@ 0x30
 80057b8:	2801      	cmp	r0, #1
 80057ba:	f040 8094 	bne.w	80058e6 <HAL_UART_IRQHandler+0x216>
 80057be:	06d5      	lsls	r5, r2, #27
 80057c0:	f140 8091 	bpl.w	80058e6 <HAL_UART_IRQHandler+0x216>
 80057c4:	06c8      	lsls	r0, r1, #27
 80057c6:	f140 808e 	bpl.w	80058e6 <HAL_UART_IRQHandler+0x216>
 80057ca:	2200      	movs	r2, #0
 80057cc:	9201      	str	r2, [sp, #4]
 80057ce:	681a      	ldr	r2, [r3, #0]
 80057d0:	9201      	str	r2, [sp, #4]
 80057d2:	685a      	ldr	r2, [r3, #4]
 80057d4:	9201      	str	r2, [sp, #4]
 80057d6:	9a01      	ldr	r2, [sp, #4]
 80057d8:	695a      	ldr	r2, [r3, #20]
 80057da:	0652      	lsls	r2, r2, #25
 80057dc:	d54d      	bpl.n	800587a <HAL_UART_IRQHandler+0x1aa>
 80057de:	6be1      	ldr	r1, [r4, #60]	@ 0x3c
 80057e0:	680a      	ldr	r2, [r1, #0]
 80057e2:	6852      	ldr	r2, [r2, #4]
 80057e4:	b292      	uxth	r2, r2
 80057e6:	2a00      	cmp	r2, #0
 80057e8:	d0df      	beq.n	80057aa <HAL_UART_IRQHandler+0xda>
 80057ea:	8da0      	ldrh	r0, [r4, #44]	@ 0x2c
 80057ec:	4290      	cmp	r0, r2
 80057ee:	d9dc      	bls.n	80057aa <HAL_UART_IRQHandler+0xda>
 80057f0:	85e2      	strh	r2, [r4, #46]	@ 0x2e
 80057f2:	698a      	ldr	r2, [r1, #24]
 80057f4:	2a20      	cmp	r2, #32
 80057f6:	d036      	beq.n	8005866 <HAL_UART_IRQHandler+0x196>
 80057f8:	f103 020c 	add.w	r2, r3, #12
 80057fc:	e852 2f00 	ldrex	r2, [r2]
 8005800:	f422 7280 	bic.w	r2, r2, #256	@ 0x100
 8005804:	f103 000c 	add.w	r0, r3, #12
 8005808:	e840 2100 	strex	r1, r2, [r0]
 800580c:	2900      	cmp	r1, #0
 800580e:	d1f3      	bne.n	80057f8 <HAL_UART_IRQHandler+0x128>
 8005810:	f103 0214 	add.w	r2, r3, #20
 8005814:	e852 2f00 	ldrex	r2, [r2]
 8005818:	f022 0201 	bic.w	r2, r2, #1
 800581c:	f103 0014 	add.w	r0, r3, #20
 8005820:	e840 2100 	strex	r1, r2, [r0]
 8005824:	2900      	cmp	r1, #0
 8005826:	d1f3      	bne.n	8005810 <HAL_UART_IRQHandler+0x140>
 8005828:	f103 0214 	add.w	r2, r3, #20
 800582c:	e852 2f00 	ldrex	r2, [r2]
 8005830:	f022 0240 	bic.w	r2, r2, #64	@ 0x40
 8005834:	f103 0014 	add.w	r0, r3, #20
 8005838:	e840 2100 	strex	r1, r2, [r0]
 800583c:	2900      	cmp	r1, #0
 800583e:	d1f3      	bne.n	8005828 <HAL_UART_IRQHandler+0x158>
 8005840:	2220      	movs	r2, #32
 8005842:	f884 2042 	strb.w	r2, [r4, #66]	@ 0x42
 8005846:	6321      	str	r1, [r4, #48]	@ 0x30
 8005848:	f103 020c 	add.w	r2, r3, #12
 800584c:	e852 2f00 	ldrex	r2, [r2]
 8005850:	f022 0210 	bic.w	r2, r2, #16
 8005854:	f103 000c 	add.w	r0, r3, #12
 8005858:	e840 2100 	strex	r1, r2, [r0]
 800585c:	2900      	cmp	r1, #0
 800585e:	d1f3      	bne.n	8005848 <HAL_UART_IRQHandler+0x178>
 8005860:	6be0      	ldr	r0, [r4, #60]	@ 0x3c
 8005862:	f7fd fc4b 	bl	80030fc <HAL_DMA_Abort>
 8005866:	2302      	movs	r3, #2
 8005868:	6363      	str	r3, [r4, #52]	@ 0x34
 800586a:	8de3      	ldrh	r3, [r4, #46]	@ 0x2e
 800586c:	8da1      	ldrh	r1, [r4, #44]	@ 0x2c
 800586e:	1ac9      	subs	r1, r1, r3
 8005870:	b289      	uxth	r1, r1
 8005872:	4620      	mov	r0, r4
 8005874:	f7ff fecf 	bl	8005616 <HAL_UARTEx_RxEventCallback>
 8005878:	e797      	b.n	80057aa <HAL_UART_IRQHandler+0xda>
 800587a:	8de2      	ldrh	r2, [r4, #46]	@ 0x2e
 800587c:	8de0      	ldrh	r0, [r4, #46]	@ 0x2e
 800587e:	8da1      	ldrh	r1, [r4, #44]	@ 0x2c
 8005880:	b280      	uxth	r0, r0
 8005882:	b292      	uxth	r2, r2
 8005884:	2800      	cmp	r0, #0
 8005886:	d090      	beq.n	80057aa <HAL_UART_IRQHandler+0xda>
 8005888:	1a89      	subs	r1, r1, r2
 800588a:	b289      	uxth	r1, r1
 800588c:	2900      	cmp	r1, #0
 800588e:	d08c      	beq.n	80057aa <HAL_UART_IRQHandler+0xda>
 8005890:	f103 020c 	add.w	r2, r3, #12
 8005894:	e852 2f00 	ldrex	r2, [r2]
 8005898:	f422 7290 	bic.w	r2, r2, #288	@ 0x120
 800589c:	f103 050c 	add.w	r5, r3, #12
 80058a0:	e845 2000 	strex	r0, r2, [r5]
 80058a4:	2800      	cmp	r0, #0
 80058a6:	d1f3      	bne.n	8005890 <HAL_UART_IRQHandler+0x1c0>
 80058a8:	f103 0214 	add.w	r2, r3, #20
 80058ac:	e852 2f00 	ldrex	r2, [r2]
 80058b0:	f022 0201 	bic.w	r2, r2, #1
 80058b4:	f103 0514 	add.w	r5, r3, #20
 80058b8:	e845 2000 	strex	r0, r2, [r5]
 80058bc:	2800      	cmp	r0, #0
 80058be:	d1f3      	bne.n	80058a8 <HAL_UART_IRQHandler+0x1d8>
 80058c0:	2220      	movs	r2, #32
 80058c2:	f884 2042 	strb.w	r2, [r4, #66]	@ 0x42
 80058c6:	6320      	str	r0, [r4, #48]	@ 0x30
 80058c8:	f103 020c 	add.w	r2, r3, #12
 80058cc:	e852 2f00 	ldrex	r2, [r2]
 80058d0:	f022 0210 	bic.w	r2, r2, #16
 80058d4:	f103 050c 	add.w	r5, r3, #12
 80058d8:	e845 2000 	strex	r0, r2, [r5]
 80058dc:	2800      	cmp	r0, #0
 80058de:	d1f3      	bne.n	80058c8 <HAL_UART_IRQHandler+0x1f8>
 80058e0:	2302      	movs	r3, #2
 80058e2:	6363      	str	r3, [r4, #52]	@ 0x34
 80058e4:	e7c5      	b.n	8005872 <HAL_UART_IRQHandler+0x1a2>
 80058e6:	0616      	lsls	r6, r2, #24
 80058e8:	d528      	bpl.n	800593c <HAL_UART_IRQHandler+0x26c>
 80058ea:	060d      	lsls	r5, r1, #24
 80058ec:	d526      	bpl.n	800593c <HAL_UART_IRQHandler+0x26c>
 80058ee:	f894 2041 	ldrb.w	r2, [r4, #65]	@ 0x41
 80058f2:	2a21      	cmp	r2, #33	@ 0x21
 80058f4:	f47f af59 	bne.w	80057aa <HAL_UART_IRQHandler+0xda>
 80058f8:	68a1      	ldr	r1, [r4, #8]
 80058fa:	6a22      	ldr	r2, [r4, #32]
 80058fc:	f5b1 5f80 	cmp.w	r1, #4096	@ 0x1000
 8005900:	d117      	bne.n	8005932 <HAL_UART_IRQHandler+0x262>
 8005902:	6921      	ldr	r1, [r4, #16]
 8005904:	b9a9      	cbnz	r1, 8005932 <HAL_UART_IRQHandler+0x262>
 8005906:	f832 1b02 	ldrh.w	r1, [r2], #2
 800590a:	f3c1 0108 	ubfx	r1, r1, #0, #9
 800590e:	6059      	str	r1, [r3, #4]
 8005910:	6222      	str	r2, [r4, #32]
 8005912:	8ce2      	ldrh	r2, [r4, #38]	@ 0x26
 8005914:	3a01      	subs	r2, #1
 8005916:	b292      	uxth	r2, r2
 8005918:	84e2      	strh	r2, [r4, #38]	@ 0x26
 800591a:	2a00      	cmp	r2, #0
 800591c:	f47f af45 	bne.w	80057aa <HAL_UART_IRQHandler+0xda>
 8005920:	68da      	ldr	r2, [r3, #12]
 8005922:	f022 0280 	bic.w	r2, r2, #128	@ 0x80
 8005926:	60da      	str	r2, [r3, #12]
 8005928:	68da      	ldr	r2, [r3, #12]
 800592a:	f042 0240 	orr.w	r2, r2, #64	@ 0x40
 800592e:	60da      	str	r2, [r3, #12]
 8005930:	e73b      	b.n	80057aa <HAL_UART_IRQHandler+0xda>
 8005932:	1c51      	adds	r1, r2, #1
 8005934:	6221      	str	r1, [r4, #32]
 8005936:	7812      	ldrb	r2, [r2, #0]
 8005938:	605a      	str	r2, [r3, #4]
 800593a:	e7ea      	b.n	8005912 <HAL_UART_IRQHandler+0x242>
 800593c:	0650      	lsls	r0, r2, #25
 800593e:	f57f af34 	bpl.w	80057aa <HAL_UART_IRQHandler+0xda>
 8005942:	064a      	lsls	r2, r1, #25
 8005944:	f57f af31 	bpl.w	80057aa <HAL_UART_IRQHandler+0xda>
 8005948:	68da      	ldr	r2, [r3, #12]
 800594a:	4620      	mov	r0, r4
 800594c:	f022 0240 	bic.w	r2, r2, #64	@ 0x40
 8005950:	60da      	str	r2, [r3, #12]
 8005952:	2320      	movs	r3, #32
 8005954:	f884 3041 	strb.w	r3, [r4, #65]	@ 0x41
 8005958:	f7fc f9de 	bl	8001d18 <HAL_UART_TxCpltCallback>
 800595c:	e725      	b.n	80057aa <HAL_UART_IRQHandler+0xda>
 800595e:	bf00      	nop
 8005960:	0800553d 	.word	0x0800553d

08005964 <UART_Start_Receive_IT>:
 8005964:	2300      	movs	r3, #0
 8005966:	85c2      	strh	r2, [r0, #46]	@ 0x2e
 8005968:	6443      	str	r3, [r0, #68]	@ 0x44
 800596a:	2322      	movs	r3, #34	@ 0x22
 800596c:	8582      	strh	r2, [r0, #44]	@ 0x2c
 800596e:	6902      	ldr	r2, [r0, #16]
 8005970:	f880 3042 	strb.w	r3, [r0, #66]	@ 0x42
 8005974:	6281      	str	r1, [r0, #40]	@ 0x28
 8005976:	6803      	ldr	r3, [r0, #0]
 8005978:	b11a      	cbz	r2, 8005982 <UART_Start_Receive_IT+0x1e>
 800597a:	68da      	ldr	r2, [r3, #12]
 800597c:	f442 7280 	orr.w	r2, r2, #256	@ 0x100
 8005980:	60da      	str	r2, [r3, #12]
 8005982:	695a      	ldr	r2, [r3, #20]
 8005984:	2000      	movs	r0, #0
 8005986:	f042 0201 	orr.w	r2, r2, #1
 800598a:	615a      	str	r2, [r3, #20]
 800598c:	68da      	ldr	r2, [r3, #12]
 800598e:	f042 0220 	orr.w	r2, r2, #32
 8005992:	60da      	str	r2, [r3, #12]
 8005994:	4770      	bx	lr

08005996 <HAL_UART_Receive_IT>:
 8005996:	b470      	push	{r4, r5, r6}
 8005998:	f890 6042 	ldrb.w	r6, [r0, #66]	@ 0x42
 800599c:	2e20      	cmp	r6, #32
 800599e:	d106      	bne.n	80059ae <HAL_UART_Receive_IT+0x18>
 80059a0:	b141      	cbz	r1, 80059b4 <HAL_UART_Receive_IT+0x1e>
 80059a2:	b13a      	cbz	r2, 80059b4 <HAL_UART_Receive_IT+0x1e>
 80059a4:	2400      	movs	r4, #0
 80059a6:	6304      	str	r4, [r0, #48]	@ 0x30
 80059a8:	bc70      	pop	{r4, r5, r6}
 80059aa:	f7ff bfdb 	b.w	8005964 <UART_Start_Receive_IT>
 80059ae:	2002      	movs	r0, #2
 80059b0:	bc70      	pop	{r4, r5, r6}
 80059b2:	4770      	bx	lr
 80059b4:	2001      	movs	r0, #1
 80059b6:	e7fb      	b.n	80059b0 <HAL_UART_Receive_IT+0x1a>

080059b8 <USB_ActivateEndpoint>:
 80059b8:	b5f0      	push	{r4, r5, r6, r7, lr}
 80059ba:	780a      	ldrb	r2, [r1, #0]
 80059bc:	78cd      	ldrb	r5, [r1, #3]
 80059be:	f830 4022 	ldrh.w	r4, [r0, r2, lsl #2]
 80059c2:	4603      	mov	r3, r0
 80059c4:	f424 44ec 	bic.w	r4, r4, #30208	@ 0x7600
 80059c8:	f024 0470 	bic.w	r4, r4, #112	@ 0x70
 80059cc:	0424      	lsls	r4, r4, #16
 80059ce:	0c24      	lsrs	r4, r4, #16
 80059d0:	2d03      	cmp	r5, #3
 80059d2:	d803      	bhi.n	80059dc <USB_ActivateEndpoint+0x24>
 80059d4:	e8df f005 	tbb	[pc, r5]
 80059d8:	45474941 	.word	0x45474941
 80059dc:	2001      	movs	r0, #1
 80059de:	f248 0680 	movw	r6, #32896	@ 0x8080
 80059e2:	4334      	orrs	r4, r6
 80059e4:	f823 4022 	strh.w	r4, [r3, r2, lsl #2]
 80059e8:	f833 4022 	ldrh.w	r4, [r3, r2, lsl #2]
 80059ec:	4f9f      	ldr	r7, [pc, #636]	@ (8005c6c <USB_ActivateEndpoint+0x2b4>)
 80059ee:	b2a4      	uxth	r4, r4
 80059f0:	403c      	ands	r4, r7
 80059f2:	4314      	orrs	r4, r2
 80059f4:	4334      	orrs	r4, r6
 80059f6:	f823 4022 	strh.w	r4, [r3, r2, lsl #2]
 80059fa:	7b0c      	ldrb	r4, [r1, #12]
 80059fc:	eb03 1c02 	add.w	ip, r3, r2, lsl #4
 8005a00:	2c00      	cmp	r4, #0
 8005a02:	f040 808d 	bne.w	8005b20 <USB_ActivateEndpoint+0x168>
 8005a06:	88cc      	ldrh	r4, [r1, #6]
 8005a08:	784e      	ldrb	r6, [r1, #1]
 8005a0a:	0864      	lsrs	r4, r4, #1
 8005a0c:	0064      	lsls	r4, r4, #1
 8005a0e:	b37e      	cbz	r6, 8005a70 <USB_ActivateEndpoint+0xb8>
 8005a10:	f8b3 1050 	ldrh.w	r1, [r3, #80]	@ 0x50
 8005a14:	b289      	uxth	r1, r1
 8005a16:	4461      	add	r1, ip
 8005a18:	f8a1 4400 	strh.w	r4, [r1, #1024]	@ 0x400
 8005a1c:	f833 1022 	ldrh.w	r1, [r3, r2, lsl #2]
 8005a20:	0649      	lsls	r1, r1, #25
 8005a22:	d509      	bpl.n	8005a38 <USB_ActivateEndpoint+0x80>
 8005a24:	f833 1022 	ldrh.w	r1, [r3, r2, lsl #2]
 8005a28:	b289      	uxth	r1, r1
 8005a2a:	4039      	ands	r1, r7
 8005a2c:	f441 4100 	orr.w	r1, r1, #32768	@ 0x8000
 8005a30:	f041 01c0 	orr.w	r1, r1, #192	@ 0xc0
 8005a34:	f823 1022 	strh.w	r1, [r3, r2, lsl #2]
 8005a38:	f833 1022 	ldrh.w	r1, [r3, r2, lsl #2]
 8005a3c:	4c8c      	ldr	r4, [pc, #560]	@ (8005c70 <USB_ActivateEndpoint+0x2b8>)
 8005a3e:	b289      	uxth	r1, r1
 8005a40:	2d01      	cmp	r5, #1
 8005a42:	ea01 0104 	and.w	r1, r1, r4
 8005a46:	d001      	beq.n	8005a4c <USB_ActivateEndpoint+0x94>
 8005a48:	f081 0120 	eor.w	r1, r1, #32
 8005a4c:	f441 4100 	orr.w	r1, r1, #32768	@ 0x8000
 8005a50:	f041 0180 	orr.w	r1, r1, #128	@ 0x80
 8005a54:	f823 1022 	strh.w	r1, [r3, r2, lsl #2]
 8005a58:	e04c      	b.n	8005af4 <USB_ActivateEndpoint+0x13c>
 8005a5a:	4628      	mov	r0, r5
 8005a5c:	f444 7400 	orr.w	r4, r4, #512	@ 0x200
 8005a60:	e7bd      	b.n	80059de <USB_ActivateEndpoint+0x26>
 8005a62:	f444 64c0 	orr.w	r4, r4, #1536	@ 0x600
 8005a66:	2000      	movs	r0, #0
 8005a68:	e7b9      	b.n	80059de <USB_ActivateEndpoint+0x26>
 8005a6a:	f444 6480 	orr.w	r4, r4, #1024	@ 0x400
 8005a6e:	e7fa      	b.n	8005a66 <USB_ActivateEndpoint+0xae>
 8005a70:	f8b3 5050 	ldrh.w	r5, [r3, #80]	@ 0x50
 8005a74:	6909      	ldr	r1, [r1, #16]
 8005a76:	b2ad      	uxth	r5, r5
 8005a78:	4465      	add	r5, ip
 8005a7a:	f8a5 4408 	strh.w	r4, [r5, #1032]	@ 0x408
 8005a7e:	f8b3 4050 	ldrh.w	r4, [r3, #80]	@ 0x50
 8005a82:	293e      	cmp	r1, #62	@ 0x3e
 8005a84:	b2a4      	uxth	r4, r4
 8005a86:	4464      	add	r4, ip
 8005a88:	f8b4 540c 	ldrh.w	r5, [r4, #1036]	@ 0x40c
 8005a8c:	f3c5 0509 	ubfx	r5, r5, #0, #10
 8005a90:	f8a4 540c 	strh.w	r5, [r4, #1036]	@ 0x40c
 8005a94:	d92f      	bls.n	8005af6 <USB_ActivateEndpoint+0x13e>
 8005a96:	094d      	lsrs	r5, r1, #5
 8005a98:	06ce      	lsls	r6, r1, #27
 8005a9a:	f8b4 140c 	ldrh.w	r1, [r4, #1036]	@ 0x40c
 8005a9e:	bf08      	it	eq
 8005aa0:	f105 35ff 	addeq.w	r5, r5, #4294967295
 8005aa4:	b289      	uxth	r1, r1
 8005aa6:	ea41 2185 	orr.w	r1, r1, r5, lsl #10
 8005aaa:	ea6f 4141 	mvn.w	r1, r1, lsl #17
 8005aae:	ea6f 4151 	mvn.w	r1, r1, lsr #17
 8005ab2:	b289      	uxth	r1, r1
 8005ab4:	f8a4 140c 	strh.w	r1, [r4, #1036]	@ 0x40c
 8005ab8:	f833 1022 	ldrh.w	r1, [r3, r2, lsl #2]
 8005abc:	044f      	lsls	r7, r1, #17
 8005abe:	d50d      	bpl.n	8005adc <USB_ActivateEndpoint+0x124>
 8005ac0:	f833 1022 	ldrh.w	r1, [r3, r2, lsl #2]
 8005ac4:	f421 41e0 	bic.w	r1, r1, #28672	@ 0x7000
 8005ac8:	f021 0170 	bic.w	r1, r1, #112	@ 0x70
 8005acc:	0409      	lsls	r1, r1, #16
 8005ace:	0c09      	lsrs	r1, r1, #16
 8005ad0:	f441 4140 	orr.w	r1, r1, #49152	@ 0xc000
 8005ad4:	f041 0180 	orr.w	r1, r1, #128	@ 0x80
 8005ad8:	f823 1022 	strh.w	r1, [r3, r2, lsl #2]
 8005adc:	4c65      	ldr	r4, [pc, #404]	@ (8005c74 <USB_ActivateEndpoint+0x2bc>)
 8005ade:	b9c2      	cbnz	r2, 8005b12 <USB_ActivateEndpoint+0x15a>
 8005ae0:	881a      	ldrh	r2, [r3, #0]
 8005ae2:	b292      	uxth	r2, r2
 8005ae4:	4022      	ands	r2, r4
 8005ae6:	f482 5240 	eor.w	r2, r2, #12288	@ 0x3000
 8005aea:	f442 4200 	orr.w	r2, r2, #32768	@ 0x8000
 8005aee:	f042 0280 	orr.w	r2, r2, #128	@ 0x80
 8005af2:	801a      	strh	r2, [r3, #0]
 8005af4:	bdf0      	pop	{r4, r5, r6, r7, pc}
 8005af6:	b911      	cbnz	r1, 8005afe <USB_ActivateEndpoint+0x146>
 8005af8:	f8b4 140c 	ldrh.w	r1, [r4, #1036]	@ 0x40c
 8005afc:	e7d5      	b.n	8005aaa <USB_ActivateEndpoint+0xf2>
 8005afe:	084d      	lsrs	r5, r1, #1
 8005b00:	07c9      	lsls	r1, r1, #31
 8005b02:	f8b4 140c 	ldrh.w	r1, [r4, #1036]	@ 0x40c
 8005b06:	bf48      	it	mi
 8005b08:	3501      	addmi	r5, #1
 8005b0a:	b289      	uxth	r1, r1
 8005b0c:	ea41 2185 	orr.w	r1, r1, r5, lsl #10
 8005b10:	e7cf      	b.n	8005ab2 <USB_ActivateEndpoint+0xfa>
 8005b12:	f833 1022 	ldrh.w	r1, [r3, r2, lsl #2]
 8005b16:	b289      	uxth	r1, r1
 8005b18:	4021      	ands	r1, r4
 8005b1a:	f481 5100 	eor.w	r1, r1, #8192	@ 0x2000
 8005b1e:	e795      	b.n	8005a4c <USB_ActivateEndpoint+0x94>
 8005b20:	2d02      	cmp	r5, #2
 8005b22:	f833 4022 	ldrh.w	r4, [r3, r2, lsl #2]
 8005b26:	d15b      	bne.n	8005be0 <USB_ActivateEndpoint+0x228>
 8005b28:	b2a4      	uxth	r4, r4
 8005b2a:	403c      	ands	r4, r7
 8005b2c:	f444 4401 	orr.w	r4, r4, #33024	@ 0x8100
 8005b30:	f044 0480 	orr.w	r4, r4, #128	@ 0x80
 8005b34:	f823 4022 	strh.w	r4, [r3, r2, lsl #2]
 8005b38:	f8b3 4050 	ldrh.w	r4, [r3, #80]	@ 0x50
 8005b3c:	890e      	ldrh	r6, [r1, #8]
 8005b3e:	b2a4      	uxth	r4, r4
 8005b40:	0876      	lsrs	r6, r6, #1
 8005b42:	4464      	add	r4, ip
 8005b44:	0076      	lsls	r6, r6, #1
 8005b46:	f8a4 6400 	strh.w	r6, [r4, #1024]	@ 0x400
 8005b4a:	894e      	ldrh	r6, [r1, #10]
 8005b4c:	f8b3 4050 	ldrh.w	r4, [r3, #80]	@ 0x50
 8005b50:	0876      	lsrs	r6, r6, #1
 8005b52:	b2a4      	uxth	r4, r4
 8005b54:	4464      	add	r4, ip
 8005b56:	0076      	lsls	r6, r6, #1
 8005b58:	f8a4 6408 	strh.w	r6, [r4, #1032]	@ 0x408
 8005b5c:	7849      	ldrb	r1, [r1, #1]
 8005b5e:	2900      	cmp	r1, #0
 8005b60:	d148      	bne.n	8005bf4 <USB_ActivateEndpoint+0x23c>
 8005b62:	f833 1022 	ldrh.w	r1, [r3, r2, lsl #2]
 8005b66:	044e      	lsls	r6, r1, #17
 8005b68:	d50d      	bpl.n	8005b86 <USB_ActivateEndpoint+0x1ce>
 8005b6a:	f833 1022 	ldrh.w	r1, [r3, r2, lsl #2]
 8005b6e:	f421 41e0 	bic.w	r1, r1, #28672	@ 0x7000
 8005b72:	f021 0170 	bic.w	r1, r1, #112	@ 0x70
 8005b76:	0409      	lsls	r1, r1, #16
 8005b78:	0c09      	lsrs	r1, r1, #16
 8005b7a:	f441 4140 	orr.w	r1, r1, #49152	@ 0xc000
 8005b7e:	f041 0180 	orr.w	r1, r1, #128	@ 0x80
 8005b82:	f823 1022 	strh.w	r1, [r3, r2, lsl #2]
 8005b86:	f833 1022 	ldrh.w	r1, [r3, r2, lsl #2]
 8005b8a:	064d      	lsls	r5, r1, #25
 8005b8c:	d50d      	bpl.n	8005baa <USB_ActivateEndpoint+0x1f2>
 8005b8e:	f833 1022 	ldrh.w	r1, [r3, r2, lsl #2]
 8005b92:	f421 41e0 	bic.w	r1, r1, #28672	@ 0x7000
 8005b96:	f021 0170 	bic.w	r1, r1, #112	@ 0x70
 8005b9a:	0409      	lsls	r1, r1, #16
 8005b9c:	0c09      	lsrs	r1, r1, #16
 8005b9e:	f441 4100 	orr.w	r1, r1, #32768	@ 0x8000
 8005ba2:	f041 01c0 	orr.w	r1, r1, #192	@ 0xc0
 8005ba6:	f823 1022 	strh.w	r1, [r3, r2, lsl #2]
 8005baa:	f248 0480 	movw	r4, #32896	@ 0x8080
 8005bae:	f833 1022 	ldrh.w	r1, [r3, r2, lsl #2]
 8005bb2:	f421 4180 	bic.w	r1, r1, #16384	@ 0x4000
 8005bb6:	f021 0170 	bic.w	r1, r1, #112	@ 0x70
 8005bba:	0409      	lsls	r1, r1, #16
 8005bbc:	0c09      	lsrs	r1, r1, #16
 8005bbe:	f481 5140 	eor.w	r1, r1, #12288	@ 0x3000
 8005bc2:	4321      	orrs	r1, r4
 8005bc4:	f823 1022 	strh.w	r1, [r3, r2, lsl #2]
 8005bc8:	f833 1022 	ldrh.w	r1, [r3, r2, lsl #2]
 8005bcc:	f421 41e0 	bic.w	r1, r1, #28672	@ 0x7000
 8005bd0:	f021 0140 	bic.w	r1, r1, #64	@ 0x40
 8005bd4:	0409      	lsls	r1, r1, #16
 8005bd6:	0c09      	lsrs	r1, r1, #16
 8005bd8:	430c      	orrs	r4, r1
 8005bda:	f823 4022 	strh.w	r4, [r3, r2, lsl #2]
 8005bde:	e789      	b.n	8005af4 <USB_ActivateEndpoint+0x13c>
 8005be0:	f424 44e2 	bic.w	r4, r4, #28928	@ 0x7100
 8005be4:	f024 0470 	bic.w	r4, r4, #112	@ 0x70
 8005be8:	0424      	lsls	r4, r4, #16
 8005bea:	0c24      	lsrs	r4, r4, #16
 8005bec:	4326      	orrs	r6, r4
 8005bee:	f823 6022 	strh.w	r6, [r3, r2, lsl #2]
 8005bf2:	e7a1      	b.n	8005b38 <USB_ActivateEndpoint+0x180>
 8005bf4:	f833 1022 	ldrh.w	r1, [r3, r2, lsl #2]
 8005bf8:	044c      	lsls	r4, r1, #17
 8005bfa:	d50d      	bpl.n	8005c18 <USB_ActivateEndpoint+0x260>
 8005bfc:	f833 1022 	ldrh.w	r1, [r3, r2, lsl #2]
 8005c00:	f421 41e0 	bic.w	r1, r1, #28672	@ 0x7000
 8005c04:	f021 0170 	bic.w	r1, r1, #112	@ 0x70
 8005c08:	0409      	lsls	r1, r1, #16
 8005c0a:	0c09      	lsrs	r1, r1, #16
 8005c0c:	f441 4140 	orr.w	r1, r1, #49152	@ 0xc000
 8005c10:	f041 0180 	orr.w	r1, r1, #128	@ 0x80
 8005c14:	f823 1022 	strh.w	r1, [r3, r2, lsl #2]
 8005c18:	f833 1022 	ldrh.w	r1, [r3, r2, lsl #2]
 8005c1c:	0649      	lsls	r1, r1, #25
 8005c1e:	d50d      	bpl.n	8005c3c <USB_ActivateEndpoint+0x284>
 8005c20:	f833 1022 	ldrh.w	r1, [r3, r2, lsl #2]
 8005c24:	f421 41e0 	bic.w	r1, r1, #28672	@ 0x7000
 8005c28:	f021 0170 	bic.w	r1, r1, #112	@ 0x70
 8005c2c:	0409      	lsls	r1, r1, #16
 8005c2e:	0c09      	lsrs	r1, r1, #16
 8005c30:	f441 4100 	orr.w	r1, r1, #32768	@ 0x8000
 8005c34:	f041 01c0 	orr.w	r1, r1, #192	@ 0xc0
 8005c38:	f823 1022 	strh.w	r1, [r3, r2, lsl #2]
 8005c3c:	f833 1022 	ldrh.w	r1, [r3, r2, lsl #2]
 8005c40:	4c0b      	ldr	r4, [pc, #44]	@ (8005c70 <USB_ActivateEndpoint+0x2b8>)
 8005c42:	b289      	uxth	r1, r1
 8005c44:	4021      	ands	r1, r4
 8005c46:	2d01      	cmp	r5, #1
 8005c48:	bf18      	it	ne
 8005c4a:	f081 0120 	eorne.w	r1, r1, #32
 8005c4e:	f441 4100 	orr.w	r1, r1, #32768	@ 0x8000
 8005c52:	f041 0180 	orr.w	r1, r1, #128	@ 0x80
 8005c56:	f823 1022 	strh.w	r1, [r3, r2, lsl #2]
 8005c5a:	f833 1022 	ldrh.w	r1, [r3, r2, lsl #2]
 8005c5e:	f421 4180 	bic.w	r1, r1, #16384	@ 0x4000
 8005c62:	f021 0170 	bic.w	r1, r1, #112	@ 0x70
 8005c66:	0409      	lsls	r1, r1, #16
 8005c68:	0c09      	lsrs	r1, r1, #16
 8005c6a:	e6ef      	b.n	8005a4c <USB_ActivateEndpoint+0x94>
 8005c6c:	ffff8f8f 	.word	0xffff8f8f
 8005c70:	ffff8fbf 	.word	0xffff8fbf
 8005c74:	ffffbf8f 	.word	0xffffbf8f

08005c78 <USB_EPSetStall>:
 8005c78:	784b      	ldrb	r3, [r1, #1]
 8005c7a:	780a      	ldrb	r2, [r1, #0]
 8005c7c:	b18b      	cbz	r3, 8005ca2 <USB_EPSetStall+0x2a>
 8005c7e:	f830 3022 	ldrh.w	r3, [r0, r2, lsl #2]
 8005c82:	f423 43e0 	bic.w	r3, r3, #28672	@ 0x7000
 8005c86:	f023 0340 	bic.w	r3, r3, #64	@ 0x40
 8005c8a:	041b      	lsls	r3, r3, #16
 8005c8c:	0c1b      	lsrs	r3, r3, #16
 8005c8e:	f083 0310 	eor.w	r3, r3, #16
 8005c92:	f443 4300 	orr.w	r3, r3, #32768	@ 0x8000
 8005c96:	f043 0380 	orr.w	r3, r3, #128	@ 0x80
 8005c9a:	f820 3022 	strh.w	r3, [r0, r2, lsl #2]
 8005c9e:	2000      	movs	r0, #0
 8005ca0:	4770      	bx	lr
 8005ca2:	f830 3022 	ldrh.w	r3, [r0, r2, lsl #2]
 8005ca6:	f423 4380 	bic.w	r3, r3, #16384	@ 0x4000
 8005caa:	f023 0370 	bic.w	r3, r3, #112	@ 0x70
 8005cae:	041b      	lsls	r3, r3, #16
 8005cb0:	0c1b      	lsrs	r3, r3, #16
 8005cb2:	f483 5380 	eor.w	r3, r3, #4096	@ 0x1000
 8005cb6:	e7ec      	b.n	8005c92 <USB_EPSetStall+0x1a>

08005cb8 <USB_EPClearStall>:
 8005cb8:	7b0b      	ldrb	r3, [r1, #12]
 8005cba:	bb3b      	cbnz	r3, 8005d0c <USB_EPClearStall+0x54>
 8005cbc:	784b      	ldrb	r3, [r1, #1]
 8005cbe:	780a      	ldrb	r2, [r1, #0]
 8005cc0:	b333      	cbz	r3, 8005d10 <USB_EPClearStall+0x58>
 8005cc2:	f830 3022 	ldrh.w	r3, [r0, r2, lsl #2]
 8005cc6:	065b      	lsls	r3, r3, #25
 8005cc8:	d50d      	bpl.n	8005ce6 <USB_EPClearStall+0x2e>
 8005cca:	f830 3022 	ldrh.w	r3, [r0, r2, lsl #2]
 8005cce:	f423 43e0 	bic.w	r3, r3, #28672	@ 0x7000
 8005cd2:	f023 0370 	bic.w	r3, r3, #112	@ 0x70
 8005cd6:	041b      	lsls	r3, r3, #16
 8005cd8:	0c1b      	lsrs	r3, r3, #16
 8005cda:	f443 4300 	orr.w	r3, r3, #32768	@ 0x8000
 8005cde:	f043 03c0 	orr.w	r3, r3, #192	@ 0xc0
 8005ce2:	f820 3022 	strh.w	r3, [r0, r2, lsl #2]
 8005ce6:	78cb      	ldrb	r3, [r1, #3]
 8005ce8:	2b01      	cmp	r3, #1
 8005cea:	d00f      	beq.n	8005d0c <USB_EPClearStall+0x54>
 8005cec:	f830 3022 	ldrh.w	r3, [r0, r2, lsl #2]
 8005cf0:	f423 43e0 	bic.w	r3, r3, #28672	@ 0x7000
 8005cf4:	f023 0340 	bic.w	r3, r3, #64	@ 0x40
 8005cf8:	041b      	lsls	r3, r3, #16
 8005cfa:	0c1b      	lsrs	r3, r3, #16
 8005cfc:	f083 0320 	eor.w	r3, r3, #32
 8005d00:	f443 4300 	orr.w	r3, r3, #32768	@ 0x8000
 8005d04:	f043 0380 	orr.w	r3, r3, #128	@ 0x80
 8005d08:	f820 3022 	strh.w	r3, [r0, r2, lsl #2]
 8005d0c:	2000      	movs	r0, #0
 8005d0e:	4770      	bx	lr
 8005d10:	f830 3022 	ldrh.w	r3, [r0, r2, lsl #2]
 8005d14:	045b      	lsls	r3, r3, #17
 8005d16:	d50d      	bpl.n	8005d34 <USB_EPClearStall+0x7c>
 8005d18:	f830 3022 	ldrh.w	r3, [r0, r2, lsl #2]
 8005d1c:	f423 43e0 	bic.w	r3, r3, #28672	@ 0x7000
 8005d20:	f023 0370 	bic.w	r3, r3, #112	@ 0x70
 8005d24:	041b      	lsls	r3, r3, #16
 8005d26:	0c1b      	lsrs	r3, r3, #16
 8005d28:	f443 4340 	orr.w	r3, r3, #49152	@ 0xc000
 8005d2c:	f043 0380 	orr.w	r3, r3, #128	@ 0x80
 8005d30:	f820 3022 	strh.w	r3, [r0, r2, lsl #2]
 8005d34:	f830 3022 	ldrh.w	r3, [r0, r2, lsl #2]
 8005d38:	f423 4380 	bic.w	r3, r3, #16384	@ 0x4000
 8005d3c:	f023 0370 	bic.w	r3, r3, #112	@ 0x70
 8005d40:	041b      	lsls	r3, r3, #16
 8005d42:	0c1b      	lsrs	r3, r3, #16
 8005d44:	f483 5340 	eor.w	r3, r3, #12288	@ 0x3000
 8005d48:	e7da      	b.n	8005d00 <USB_EPClearStall+0x48>

08005d4a <USB_SetDevAddress>:
 8005d4a:	b911      	cbnz	r1, 8005d52 <USB_SetDevAddress+0x8>
 8005d4c:	2380      	movs	r3, #128	@ 0x80
 8005d4e:	f8a0 304c 	strh.w	r3, [r0, #76]	@ 0x4c
 8005d52:	2000      	movs	r0, #0
 8005d54:	4770      	bx	lr

08005d56 <USB_ReadInterrupts>:
 8005d56:	f8b0 0044 	ldrh.w	r0, [r0, #68]	@ 0x44
 8005d5a:	b280      	uxth	r0, r0
 8005d5c:	4770      	bx	lr

08005d5e <USB_EP0_OutStart>:
 8005d5e:	2000      	movs	r0, #0
 8005d60:	4770      	bx	lr

08005d62 <USB_WritePMA>:
 8005d62:	eb00 0042 	add.w	r0, r0, r2, lsl #1
 8005d66:	3301      	adds	r3, #1
 8005d68:	f500 6080 	add.w	r0, r0, #1024	@ 0x400
 8005d6c:	085b      	lsrs	r3, r3, #1
 8005d6e:	eb00 0383 	add.w	r3, r0, r3, lsl #2
 8005d72:	4283      	cmp	r3, r0
 8005d74:	d100      	bne.n	8005d78 <USB_WritePMA+0x16>
 8005d76:	4770      	bx	lr
 8005d78:	f831 2b02 	ldrh.w	r2, [r1], #2
 8005d7c:	f820 2b04 	strh.w	r2, [r0], #4
 8005d80:	e7f7      	b.n	8005d72 <USB_WritePMA+0x10>

08005d82 <USB_EPStartXfer>:
 8005d82:	e92d 47f0 	stmdb	sp!, {r4, r5, r6, r7, r8, r9, sl, lr}
 8005d86:	784b      	ldrb	r3, [r1, #1]
 8005d88:	4604      	mov	r4, r0
 8005d8a:	2b01      	cmp	r3, #1
 8005d8c:	460d      	mov	r5, r1
 8005d8e:	7b0a      	ldrb	r2, [r1, #12]
 8005d90:	f040 8118 	bne.w	8005fc4 <USB_EPStartXfer+0x242>
 8005d94:	f8d1 9010 	ldr.w	r9, [r1, #16]
 8005d98:	698f      	ldr	r7, [r1, #24]
 8005d9a:	6949      	ldr	r1, [r1, #20]
 8005d9c:	454f      	cmp	r7, r9
 8005d9e:	bf28      	it	cs
 8005da0:	464f      	movcs	r7, r9
 8005da2:	bb0a      	cbnz	r2, 8005de8 <USB_EPStartXfer+0x66>
 8005da4:	b2bf      	uxth	r7, r7
 8005da6:	88ea      	ldrh	r2, [r5, #6]
 8005da8:	463b      	mov	r3, r7
 8005daa:	f7ff ffda 	bl	8005d62 <USB_WritePMA>
 8005dae:	f8b4 0050 	ldrh.w	r0, [r4, #80]	@ 0x50
 8005db2:	7829      	ldrb	r1, [r5, #0]
 8005db4:	b280      	uxth	r0, r0
 8005db6:	f204 4204 	addw	r2, r4, #1028	@ 0x404
 8005dba:	0109      	lsls	r1, r1, #4
 8005dbc:	4402      	add	r2, r0
 8005dbe:	528f      	strh	r7, [r1, r2]
 8005dc0:	782a      	ldrb	r2, [r5, #0]
 8005dc2:	f834 3022 	ldrh.w	r3, [r4, r2, lsl #2]
 8005dc6:	f423 43e0 	bic.w	r3, r3, #28672	@ 0x7000
 8005dca:	f023 0340 	bic.w	r3, r3, #64	@ 0x40
 8005dce:	041b      	lsls	r3, r3, #16
 8005dd0:	0c1b      	lsrs	r3, r3, #16
 8005dd2:	f083 0330 	eor.w	r3, r3, #48	@ 0x30
 8005dd6:	2000      	movs	r0, #0
 8005dd8:	f443 4300 	orr.w	r3, r3, #32768	@ 0x8000
 8005ddc:	f043 0380 	orr.w	r3, r3, #128	@ 0x80
 8005de0:	f824 3022 	strh.w	r3, [r4, r2, lsl #2]
 8005de4:	e8bd 87f0 	ldmia.w	sp!, {r4, r5, r6, r7, r8, r9, sl, pc}
 8005de8:	78eb      	ldrb	r3, [r5, #3]
 8005dea:	f895 e000 	ldrb.w	lr, [r5]
 8005dee:	2b02      	cmp	r3, #2
 8005df0:	6a2e      	ldr	r6, [r5, #32]
 8005df2:	ea4f 1c0e 	mov.w	ip, lr, lsl #4
 8005df6:	f040 80d0 	bne.w	8005f9a <USB_EPStartXfer+0x218>
 8005dfa:	45b1      	cmp	r9, r6
 8005dfc:	f830 202e 	ldrh.w	r2, [r0, lr, lsl #2]
 8005e00:	f080 80b4 	bcs.w	8005f6c <USB_EPStartXfer+0x1ea>
 8005e04:	f422 42e0 	bic.w	r2, r2, #28672	@ 0x7000
 8005e08:	f022 0270 	bic.w	r2, r2, #112	@ 0x70
 8005e0c:	0412      	lsls	r2, r2, #16
 8005e0e:	0c12      	lsrs	r2, r2, #16
 8005e10:	f442 4201 	orr.w	r2, r2, #33024	@ 0x8100
 8005e14:	f042 0280 	orr.w	r2, r2, #128	@ 0x80
 8005e18:	f820 202e 	strh.w	r2, [r0, lr, lsl #2]
 8005e1c:	f830 802e 	ldrh.w	r8, [r0, lr, lsl #2]
 8005e20:	f8b0 e050 	ldrh.w	lr, [r0, #80]	@ 0x50
 8005e24:	1bf6      	subs	r6, r6, r7
 8005e26:	f018 0840 	ands.w	r8, r8, #64	@ 0x40
 8005e2a:	622e      	str	r6, [r5, #32]
 8005e2c:	eb01 0a07 	add.w	sl, r1, r7
 8005e30:	b2bb      	uxth	r3, r7
 8005e32:	fa1f fe8e 	uxth.w	lr, lr
 8005e36:	d04e      	beq.n	8005ed6 <USB_EPStartXfer+0x154>
 8005e38:	f200 420c 	addw	r2, r0, #1036	@ 0x40c
 8005e3c:	4472      	add	r2, lr
 8005e3e:	f822 300c 	strh.w	r3, [r2, ip]
 8005e42:	896a      	ldrh	r2, [r5, #10]
 8005e44:	f7ff ff8d 	bl	8005d62 <USB_WritePMA>
 8005e48:	45b1      	cmp	r9, r6
 8005e4a:	bf36      	itet	cc
 8005e4c:	1bf3      	subcc	r3, r6, r7
 8005e4e:	2300      	movcs	r3, #0
 8005e50:	463e      	movcc	r6, r7
 8005e52:	786a      	ldrb	r2, [r5, #1]
 8005e54:	622b      	str	r3, [r5, #32]
 8005e56:	f8c5 a014 	str.w	sl, [r5, #20]
 8005e5a:	b2b3      	uxth	r3, r6
 8005e5c:	bb7a      	cbnz	r2, 8005ebe <USB_EPStartXfer+0x13c>
 8005e5e:	f8b4 2050 	ldrh.w	r2, [r4, #80]	@ 0x50
 8005e62:	7828      	ldrb	r0, [r5, #0]
 8005e64:	b292      	uxth	r2, r2
 8005e66:	f204 4104 	addw	r1, r4, #1028	@ 0x404
 8005e6a:	0100      	lsls	r0, r0, #4
 8005e6c:	4411      	add	r1, r2
 8005e6e:	5a42      	ldrh	r2, [r0, r1]
 8005e70:	2e3e      	cmp	r6, #62	@ 0x3e
 8005e72:	f3c2 0209 	ubfx	r2, r2, #0, #10
 8005e76:	5242      	strh	r2, [r0, r1]
 8005e78:	d914      	bls.n	8005ea4 <USB_EPStartXfer+0x122>
 8005e7a:	5a42      	ldrh	r2, [r0, r1]
 8005e7c:	0977      	lsrs	r7, r6, #5
 8005e7e:	06f6      	lsls	r6, r6, #27
 8005e80:	bf08      	it	eq
 8005e82:	f107 37ff 	addeq.w	r7, r7, #4294967295
 8005e86:	b292      	uxth	r2, r2
 8005e88:	ea42 2287 	orr.w	r2, r2, r7, lsl #10
 8005e8c:	ea6f 4242 	mvn.w	r2, r2, lsl #17
 8005e90:	ea6f 4252 	mvn.w	r2, r2, lsr #17
 8005e94:	b292      	uxth	r2, r2
 8005e96:	5242      	strh	r2, [r0, r1]
 8005e98:	892a      	ldrh	r2, [r5, #8]
 8005e9a:	4651      	mov	r1, sl
 8005e9c:	4620      	mov	r0, r4
 8005e9e:	f7ff ff60 	bl	8005d62 <USB_WritePMA>
 8005ea2:	e78d      	b.n	8005dc0 <USB_EPStartXfer+0x3e>
 8005ea4:	b90e      	cbnz	r6, 8005eaa <USB_EPStartXfer+0x128>
 8005ea6:	5a42      	ldrh	r2, [r0, r1]
 8005ea8:	e7f0      	b.n	8005e8c <USB_EPStartXfer+0x10a>
 8005eaa:	07f2      	lsls	r2, r6, #31
 8005eac:	5a42      	ldrh	r2, [r0, r1]
 8005eae:	ea4f 0756 	mov.w	r7, r6, lsr #1
 8005eb2:	bf48      	it	mi
 8005eb4:	3701      	addmi	r7, #1
 8005eb6:	b292      	uxth	r2, r2
 8005eb8:	ea42 2287 	orr.w	r2, r2, r7, lsl #10
 8005ebc:	e7ea      	b.n	8005e94 <USB_EPStartXfer+0x112>
 8005ebe:	2a01      	cmp	r2, #1
 8005ec0:	d1ea      	bne.n	8005e98 <USB_EPStartXfer+0x116>
 8005ec2:	f8b4 0050 	ldrh.w	r0, [r4, #80]	@ 0x50
 8005ec6:	7829      	ldrb	r1, [r5, #0]
 8005ec8:	b280      	uxth	r0, r0
 8005eca:	f204 4204 	addw	r2, r4, #1028	@ 0x404
 8005ece:	0109      	lsls	r1, r1, #4
 8005ed0:	4402      	add	r2, r0
 8005ed2:	528b      	strh	r3, [r1, r2]
 8005ed4:	e7e0      	b.n	8005e98 <USB_EPStartXfer+0x116>
 8005ed6:	f200 4204 	addw	r2, r0, #1028	@ 0x404
 8005eda:	4472      	add	r2, lr
 8005edc:	f822 300c 	strh.w	r3, [r2, ip]
 8005ee0:	892a      	ldrh	r2, [r5, #8]
 8005ee2:	f7ff ff3e 	bl	8005d62 <USB_WritePMA>
 8005ee6:	45b1      	cmp	r9, r6
 8005ee8:	bf36      	itet	cc
 8005eea:	1bf3      	subcc	r3, r6, r7
 8005eec:	4643      	movcs	r3, r8
 8005eee:	463e      	movcc	r6, r7
 8005ef0:	786a      	ldrb	r2, [r5, #1]
 8005ef2:	622b      	str	r3, [r5, #32]
 8005ef4:	f8c5 a014 	str.w	sl, [r5, #20]
 8005ef8:	b2b3      	uxth	r3, r6
 8005efa:	bb5a      	cbnz	r2, 8005f54 <USB_EPStartXfer+0x1d2>
 8005efc:	f8b4 2050 	ldrh.w	r2, [r4, #80]	@ 0x50
 8005f00:	7828      	ldrb	r0, [r5, #0]
 8005f02:	b292      	uxth	r2, r2
 8005f04:	f204 410c 	addw	r1, r4, #1036	@ 0x40c
 8005f08:	0100      	lsls	r0, r0, #4
 8005f0a:	4411      	add	r1, r2
 8005f0c:	5a42      	ldrh	r2, [r0, r1]
 8005f0e:	2e3e      	cmp	r6, #62	@ 0x3e
 8005f10:	f3c2 0209 	ubfx	r2, r2, #0, #10
 8005f14:	5242      	strh	r2, [r0, r1]
 8005f16:	d910      	bls.n	8005f3a <USB_EPStartXfer+0x1b8>
 8005f18:	5a42      	ldrh	r2, [r0, r1]
 8005f1a:	0977      	lsrs	r7, r6, #5
 8005f1c:	06f6      	lsls	r6, r6, #27
 8005f1e:	bf08      	it	eq
 8005f20:	f107 37ff 	addeq.w	r7, r7, #4294967295
 8005f24:	b292      	uxth	r2, r2
 8005f26:	ea42 2287 	orr.w	r2, r2, r7, lsl #10
 8005f2a:	ea6f 4242 	mvn.w	r2, r2, lsl #17
 8005f2e:	ea6f 4252 	mvn.w	r2, r2, lsr #17
 8005f32:	b292      	uxth	r2, r2
 8005f34:	5242      	strh	r2, [r0, r1]
 8005f36:	896a      	ldrh	r2, [r5, #10]
 8005f38:	e7af      	b.n	8005e9a <USB_EPStartXfer+0x118>
 8005f3a:	b90e      	cbnz	r6, 8005f40 <USB_EPStartXfer+0x1be>
 8005f3c:	5a42      	ldrh	r2, [r0, r1]
 8005f3e:	e7f4      	b.n	8005f2a <USB_EPStartXfer+0x1a8>
 8005f40:	07f2      	lsls	r2, r6, #31
 8005f42:	5a42      	ldrh	r2, [r0, r1]
 8005f44:	ea4f 0756 	mov.w	r7, r6, lsr #1
 8005f48:	bf48      	it	mi
 8005f4a:	3701      	addmi	r7, #1
 8005f4c:	b292      	uxth	r2, r2
 8005f4e:	ea42 2287 	orr.w	r2, r2, r7, lsl #10
 8005f52:	e7ee      	b.n	8005f32 <USB_EPStartXfer+0x1b0>
 8005f54:	2a01      	cmp	r2, #1
 8005f56:	d1ee      	bne.n	8005f36 <USB_EPStartXfer+0x1b4>
 8005f58:	f8b4 0050 	ldrh.w	r0, [r4, #80]	@ 0x50
 8005f5c:	7829      	ldrb	r1, [r5, #0]
 8005f5e:	b280      	uxth	r0, r0
 8005f60:	f204 420c 	addw	r2, r4, #1036	@ 0x40c
 8005f64:	0109      	lsls	r1, r1, #4
 8005f66:	4402      	add	r2, r0
 8005f68:	528b      	strh	r3, [r1, r2]
 8005f6a:	e7e4      	b.n	8005f36 <USB_EPStartXfer+0x1b4>
 8005f6c:	f422 42e2 	bic.w	r2, r2, #28928	@ 0x7100
 8005f70:	f022 0270 	bic.w	r2, r2, #112	@ 0x70
 8005f74:	0412      	lsls	r2, r2, #16
 8005f76:	0c12      	lsrs	r2, r2, #16
 8005f78:	f442 4200 	orr.w	r2, r2, #32768	@ 0x8000
 8005f7c:	f042 0280 	orr.w	r2, r2, #128	@ 0x80
 8005f80:	f820 202e 	strh.w	r2, [r0, lr, lsl #2]
 8005f84:	f8b0 3050 	ldrh.w	r3, [r0, #80]	@ 0x50
 8005f88:	f200 4204 	addw	r2, r0, #1028	@ 0x404
 8005f8c:	b29b      	uxth	r3, r3
 8005f8e:	441a      	add	r2, r3
 8005f90:	b2b3      	uxth	r3, r6
 8005f92:	f822 300c 	strh.w	r3, [r2, ip]
 8005f96:	892a      	ldrh	r2, [r5, #8]
 8005f98:	e781      	b.n	8005e9e <USB_EPStartXfer+0x11c>
 8005f9a:	1bf6      	subs	r6, r6, r7
 8005f9c:	f830 202e 	ldrh.w	r2, [r0, lr, lsl #2]
 8005fa0:	622e      	str	r6, [r5, #32]
 8005fa2:	f8b0 6050 	ldrh.w	r6, [r0, #80]	@ 0x50
 8005fa6:	b2bb      	uxth	r3, r7
 8005fa8:	0657      	lsls	r7, r2, #25
 8005faa:	b2b6      	uxth	r6, r6
 8005fac:	d506      	bpl.n	8005fbc <USB_EPStartXfer+0x23a>
 8005fae:	f200 420c 	addw	r2, r0, #1036	@ 0x40c
 8005fb2:	4432      	add	r2, r6
 8005fb4:	f822 300c 	strh.w	r3, [r2, ip]
 8005fb8:	896a      	ldrh	r2, [r5, #10]
 8005fba:	e770      	b.n	8005e9e <USB_EPStartXfer+0x11c>
 8005fbc:	f200 4204 	addw	r2, r0, #1028	@ 0x404
 8005fc0:	4432      	add	r2, r6
 8005fc2:	e7e6      	b.n	8005f92 <USB_EPStartXfer+0x210>
 8005fc4:	2a00      	cmp	r2, #0
 8005fc6:	d13b      	bne.n	8006040 <USB_EPStartXfer+0x2be>
 8005fc8:	698b      	ldr	r3, [r1, #24]
 8005fca:	6909      	ldr	r1, [r1, #16]
 8005fcc:	f8b0 0050 	ldrh.w	r0, [r0, #80]	@ 0x50
 8005fd0:	428b      	cmp	r3, r1
 8005fd2:	bf84      	itt	hi
 8005fd4:	1a5a      	subhi	r2, r3, r1
 8005fd6:	460b      	movhi	r3, r1
 8005fd8:	7829      	ldrb	r1, [r5, #0]
 8005fda:	61aa      	str	r2, [r5, #24]
 8005fdc:	b280      	uxth	r0, r0
 8005fde:	f204 420c 	addw	r2, r4, #1036	@ 0x40c
 8005fe2:	0109      	lsls	r1, r1, #4
 8005fe4:	4402      	add	r2, r0
 8005fe6:	5a88      	ldrh	r0, [r1, r2]
 8005fe8:	2b3e      	cmp	r3, #62	@ 0x3e
 8005fea:	f3c0 0009 	ubfx	r0, r0, #0, #10
 8005fee:	5288      	strh	r0, [r1, r2]
 8005ff0:	d91a      	bls.n	8006028 <USB_EPStartXfer+0x2a6>
 8005ff2:	0958      	lsrs	r0, r3, #5
 8005ff4:	06de      	lsls	r6, r3, #27
 8005ff6:	5a8b      	ldrh	r3, [r1, r2]
 8005ff8:	bf08      	it	eq
 8005ffa:	f100 30ff 	addeq.w	r0, r0, #4294967295
 8005ffe:	b29b      	uxth	r3, r3
 8006000:	ea43 2380 	orr.w	r3, r3, r0, lsl #10
 8006004:	ea6f 4343 	mvn.w	r3, r3, lsl #17
 8006008:	ea6f 4353 	mvn.w	r3, r3, lsr #17
 800600c:	b29b      	uxth	r3, r3
 800600e:	528b      	strh	r3, [r1, r2]
 8006010:	782a      	ldrb	r2, [r5, #0]
 8006012:	f834 3022 	ldrh.w	r3, [r4, r2, lsl #2]
 8006016:	f423 4380 	bic.w	r3, r3, #16384	@ 0x4000
 800601a:	f023 0370 	bic.w	r3, r3, #112	@ 0x70
 800601e:	041b      	lsls	r3, r3, #16
 8006020:	0c1b      	lsrs	r3, r3, #16
 8006022:	f483 5340 	eor.w	r3, r3, #12288	@ 0x3000
 8006026:	e6d6      	b.n	8005dd6 <USB_EPStartXfer+0x54>
 8006028:	b90b      	cbnz	r3, 800602e <USB_EPStartXfer+0x2ac>
 800602a:	5a8b      	ldrh	r3, [r1, r2]
 800602c:	e7ea      	b.n	8006004 <USB_EPStartXfer+0x282>
 800602e:	0858      	lsrs	r0, r3, #1
 8006030:	07db      	lsls	r3, r3, #31
 8006032:	5a8b      	ldrh	r3, [r1, r2]
 8006034:	bf48      	it	mi
 8006036:	3001      	addmi	r0, #1
 8006038:	b29b      	uxth	r3, r3
 800603a:	ea43 2380 	orr.w	r3, r3, r0, lsl #10
 800603e:	e7e5      	b.n	800600c <USB_EPStartXfer+0x28a>
 8006040:	78ca      	ldrb	r2, [r1, #3]
 8006042:	2a02      	cmp	r2, #2
 8006044:	d170      	bne.n	8006128 <USB_EPStartXfer+0x3a6>
 8006046:	2b00      	cmp	r3, #0
 8006048:	d138      	bne.n	80060bc <USB_EPStartXfer+0x33a>
 800604a:	f8b0 2050 	ldrh.w	r2, [r0, #80]	@ 0x50
 800604e:	780b      	ldrb	r3, [r1, #0]
 8006050:	b292      	uxth	r2, r2
 8006052:	f200 4004 	addw	r0, r0, #1028	@ 0x404
 8006056:	011b      	lsls	r3, r3, #4
 8006058:	4410      	add	r0, r2
 800605a:	5ac2      	ldrh	r2, [r0, r3]
 800605c:	f3c2 0209 	ubfx	r2, r2, #0, #10
 8006060:	52c2      	strh	r2, [r0, r3]
 8006062:	690a      	ldr	r2, [r1, #16]
 8006064:	2a3e      	cmp	r2, #62	@ 0x3e
 8006066:	d946      	bls.n	80060f6 <USB_EPStartXfer+0x374>
 8006068:	5ac1      	ldrh	r1, [r0, r3]
 800606a:	0956      	lsrs	r6, r2, #5
 800606c:	06d7      	lsls	r7, r2, #27
 800606e:	bf08      	it	eq
 8006070:	f106 36ff 	addeq.w	r6, r6, #4294967295
 8006074:	b289      	uxth	r1, r1
 8006076:	ea41 2186 	orr.w	r1, r1, r6, lsl #10
 800607a:	ea6f 4141 	mvn.w	r1, r1, lsl #17
 800607e:	ea6f 4151 	mvn.w	r1, r1, lsr #17
 8006082:	b289      	uxth	r1, r1
 8006084:	52c1      	strh	r1, [r0, r3]
 8006086:	f8b4 0050 	ldrh.w	r0, [r4, #80]	@ 0x50
 800608a:	f204 410c 	addw	r1, r4, #1036	@ 0x40c
 800608e:	b280      	uxth	r0, r0
 8006090:	4401      	add	r1, r0
 8006092:	5ac8      	ldrh	r0, [r1, r3]
 8006094:	2a3e      	cmp	r2, #62	@ 0x3e
 8006096:	f3c0 0009 	ubfx	r0, r0, #0, #10
 800609a:	52c8      	strh	r0, [r1, r3]
 800609c:	d938      	bls.n	8006110 <USB_EPStartXfer+0x38e>
 800609e:	0950      	lsrs	r0, r2, #5
 80060a0:	06d7      	lsls	r7, r2, #27
 80060a2:	5aca      	ldrh	r2, [r1, r3]
 80060a4:	bf08      	it	eq
 80060a6:	f100 30ff 	addeq.w	r0, r0, #4294967295
 80060aa:	b292      	uxth	r2, r2
 80060ac:	ea42 2280 	orr.w	r2, r2, r0, lsl #10
 80060b0:	ea6f 4242 	mvn.w	r2, r2, lsl #17
 80060b4:	ea6f 4252 	mvn.w	r2, r2, lsr #17
 80060b8:	b292      	uxth	r2, r2
 80060ba:	52ca      	strh	r2, [r1, r3]
 80060bc:	69eb      	ldr	r3, [r5, #28]
 80060be:	2b00      	cmp	r3, #0
 80060c0:	d0a6      	beq.n	8006010 <USB_EPStartXfer+0x28e>
 80060c2:	f244 0340 	movw	r3, #16448	@ 0x4040
 80060c6:	782a      	ldrb	r2, [r5, #0]
 80060c8:	f834 1022 	ldrh.w	r1, [r4, r2, lsl #2]
 80060cc:	ea03 0001 	and.w	r0, r3, r1
 80060d0:	438b      	bics	r3, r1
 80060d2:	d001      	beq.n	80060d8 <USB_EPStartXfer+0x356>
 80060d4:	2800      	cmp	r0, #0
 80060d6:	d19b      	bne.n	8006010 <USB_EPStartXfer+0x28e>
 80060d8:	f834 3022 	ldrh.w	r3, [r4, r2, lsl #2]
 80060dc:	f423 43e0 	bic.w	r3, r3, #28672	@ 0x7000
 80060e0:	f023 0370 	bic.w	r3, r3, #112	@ 0x70
 80060e4:	041b      	lsls	r3, r3, #16
 80060e6:	0c1b      	lsrs	r3, r3, #16
 80060e8:	f443 4300 	orr.w	r3, r3, #32768	@ 0x8000
 80060ec:	f043 03c0 	orr.w	r3, r3, #192	@ 0xc0
 80060f0:	f824 3022 	strh.w	r3, [r4, r2, lsl #2]
 80060f4:	e78c      	b.n	8006010 <USB_EPStartXfer+0x28e>
 80060f6:	b90a      	cbnz	r2, 80060fc <USB_EPStartXfer+0x37a>
 80060f8:	5ac1      	ldrh	r1, [r0, r3]
 80060fa:	e7be      	b.n	800607a <USB_EPStartXfer+0x2f8>
 80060fc:	07d1      	lsls	r1, r2, #31
 80060fe:	5ac1      	ldrh	r1, [r0, r3]
 8006100:	ea4f 0652 	mov.w	r6, r2, lsr #1
 8006104:	bf48      	it	mi
 8006106:	3601      	addmi	r6, #1
 8006108:	b289      	uxth	r1, r1
 800610a:	ea41 2186 	orr.w	r1, r1, r6, lsl #10
 800610e:	e7b8      	b.n	8006082 <USB_EPStartXfer+0x300>
 8006110:	b90a      	cbnz	r2, 8006116 <USB_EPStartXfer+0x394>
 8006112:	5aca      	ldrh	r2, [r1, r3]
 8006114:	e7cc      	b.n	80060b0 <USB_EPStartXfer+0x32e>
 8006116:	0850      	lsrs	r0, r2, #1
 8006118:	07d6      	lsls	r6, r2, #31
 800611a:	5aca      	ldrh	r2, [r1, r3]
 800611c:	bf48      	it	mi
 800611e:	3001      	addmi	r0, #1
 8006120:	b292      	uxth	r2, r2
 8006122:	ea42 2280 	orr.w	r2, r2, r0, lsl #10
 8006126:	e7c7      	b.n	80060b8 <USB_EPStartXfer+0x336>
 8006128:	2a01      	cmp	r2, #1
 800612a:	d15d      	bne.n	80061e8 <USB_EPStartXfer+0x466>
 800612c:	698a      	ldr	r2, [r1, #24]
 800612e:	6909      	ldr	r1, [r1, #16]
 8006130:	428a      	cmp	r2, r1
 8006132:	bf94      	ite	ls
 8006134:	2000      	movls	r0, #0
 8006136:	1a50      	subhi	r0, r2, r1
 8006138:	61a8      	str	r0, [r5, #24]
 800613a:	bf88      	it	hi
 800613c:	460a      	movhi	r2, r1
 800613e:	2b00      	cmp	r3, #0
 8006140:	f47f af66 	bne.w	8006010 <USB_EPStartXfer+0x28e>
 8006144:	f8b4 1050 	ldrh.w	r1, [r4, #80]	@ 0x50
 8006148:	782b      	ldrb	r3, [r5, #0]
 800614a:	b289      	uxth	r1, r1
 800614c:	f204 4004 	addw	r0, r4, #1028	@ 0x404
 8006150:	011b      	lsls	r3, r3, #4
 8006152:	4408      	add	r0, r1
 8006154:	5ac1      	ldrh	r1, [r0, r3]
 8006156:	2a3e      	cmp	r2, #62	@ 0x3e
 8006158:	f3c1 0109 	ubfx	r1, r1, #0, #10
 800615c:	52c1      	strh	r1, [r0, r3]
 800615e:	d92b      	bls.n	80061b8 <USB_EPStartXfer+0x436>
 8006160:	06d1      	lsls	r1, r2, #27
 8006162:	5ac1      	ldrh	r1, [r0, r3]
 8006164:	ea4f 1652 	mov.w	r6, r2, lsr #5
 8006168:	bf08      	it	eq
 800616a:	f106 36ff 	addeq.w	r6, r6, #4294967295
 800616e:	b289      	uxth	r1, r1
 8006170:	ea41 2186 	orr.w	r1, r1, r6, lsl #10
 8006174:	ea6f 4141 	mvn.w	r1, r1, lsl #17
 8006178:	ea6f 4151 	mvn.w	r1, r1, lsr #17
 800617c:	b289      	uxth	r1, r1
 800617e:	52c1      	strh	r1, [r0, r3]
 8006180:	f8b4 0050 	ldrh.w	r0, [r4, #80]	@ 0x50
 8006184:	f204 410c 	addw	r1, r4, #1036	@ 0x40c
 8006188:	b280      	uxth	r0, r0
 800618a:	4401      	add	r1, r0
 800618c:	5ac8      	ldrh	r0, [r1, r3]
 800618e:	2a3e      	cmp	r2, #62	@ 0x3e
 8006190:	f3c0 0009 	ubfx	r0, r0, #0, #10
 8006194:	52c8      	strh	r0, [r1, r3]
 8006196:	d91b      	bls.n	80061d0 <USB_EPStartXfer+0x44e>
 8006198:	0950      	lsrs	r0, r2, #5
 800619a:	06d6      	lsls	r6, r2, #27
 800619c:	5aca      	ldrh	r2, [r1, r3]
 800619e:	bf08      	it	eq
 80061a0:	f100 30ff 	addeq.w	r0, r0, #4294967295
 80061a4:	b292      	uxth	r2, r2
 80061a6:	ea42 2280 	orr.w	r2, r2, r0, lsl #10
 80061aa:	ea6f 4242 	mvn.w	r2, r2, lsl #17
 80061ae:	ea6f 4252 	mvn.w	r2, r2, lsr #17
 80061b2:	b292      	uxth	r2, r2
 80061b4:	52ca      	strh	r2, [r1, r3]
 80061b6:	e72b      	b.n	8006010 <USB_EPStartXfer+0x28e>
 80061b8:	b90a      	cbnz	r2, 80061be <USB_EPStartXfer+0x43c>
 80061ba:	5ac1      	ldrh	r1, [r0, r3]
 80061bc:	e7da      	b.n	8006174 <USB_EPStartXfer+0x3f2>
 80061be:	5ac1      	ldrh	r1, [r0, r3]
 80061c0:	0856      	lsrs	r6, r2, #1
 80061c2:	07d7      	lsls	r7, r2, #31
 80061c4:	bf48      	it	mi
 80061c6:	3601      	addmi	r6, #1
 80061c8:	b289      	uxth	r1, r1
 80061ca:	ea41 2186 	orr.w	r1, r1, r6, lsl #10
 80061ce:	e7d5      	b.n	800617c <USB_EPStartXfer+0x3fa>
 80061d0:	b90a      	cbnz	r2, 80061d6 <USB_EPStartXfer+0x454>
 80061d2:	5aca      	ldrh	r2, [r1, r3]
 80061d4:	e7e9      	b.n	80061aa <USB_EPStartXfer+0x428>
 80061d6:	0850      	lsrs	r0, r2, #1
 80061d8:	07d2      	lsls	r2, r2, #31
 80061da:	5aca      	ldrh	r2, [r1, r3]
 80061dc:	bf48      	it	mi
 80061de:	3001      	addmi	r0, #1
 80061e0:	b292      	uxth	r2, r2
 80061e2:	ea42 2280 	orr.w	r2, r2, r0, lsl #10
 80061e6:	e7e4      	b.n	80061b2 <USB_EPStartXfer+0x430>
 80061e8:	2001      	movs	r0, #1
 80061ea:	e5fb      	b.n	8005de4 <USB_EPStartXfer+0x62>

080061ec <USB_ReadPMA>:
 80061ec:	eb00 0042 	add.w	r0, r0, r2, lsl #1
 80061f0:	b5f0      	push	{r4, r5, r6, r7, lr}
 80061f2:	f500 6080 	add.w	r0, r0, #1024	@ 0x400
 80061f6:	085d      	lsrs	r5, r3, #1
 80061f8:	460c      	mov	r4, r1
 80061fa:	4607      	mov	r7, r0
 80061fc:	462e      	mov	r6, r5
 80061fe:	3402      	adds	r4, #2
 8006200:	b936      	cbnz	r6, 8006210 <USB_ReadPMA+0x24>
 8006202:	07db      	lsls	r3, r3, #31
 8006204:	bf44      	itt	mi
 8006206:	f830 3025 	ldrhmi.w	r3, [r0, r5, lsl #2]
 800620a:	f801 3015 	strbmi.w	r3, [r1, r5, lsl #1]
 800620e:	bdf0      	pop	{r4, r5, r6, r7, pc}
 8006210:	f837 2b04 	ldrh.w	r2, [r7], #4
 8006214:	3e01      	subs	r6, #1
 8006216:	b292      	uxth	r2, r2
 8006218:	f804 2c02 	strb.w	r2, [r4, #-2]
 800621c:	0a12      	lsrs	r2, r2, #8
 800621e:	f804 2c01 	strb.w	r2, [r4, #-1]
 8006222:	e7ec      	b.n	80061fe <USB_ReadPMA+0x12>

08006224 <USBD_SetClassConfig>:
 8006224:	b508      	push	{r3, lr}
 8006226:	f8d0 32b4 	ldr.w	r3, [r0, #692]	@ 0x2b4
 800622a:	b133      	cbz	r3, 800623a <USBD_SetClassConfig+0x16>
 800622c:	681b      	ldr	r3, [r3, #0]
 800622e:	4798      	blx	r3
 8006230:	3800      	subs	r0, #0
 8006232:	bf18      	it	ne
 8006234:	2001      	movne	r0, #1
 8006236:	0040      	lsls	r0, r0, #1
 8006238:	bd08      	pop	{r3, pc}
 800623a:	2002      	movs	r0, #2
 800623c:	e7fc      	b.n	8006238 <USBD_SetClassConfig+0x14>

0800623e <USBD_ClrClassConfig>:
 800623e:	b508      	push	{r3, lr}
 8006240:	f8d0 32b4 	ldr.w	r3, [r0, #692]	@ 0x2b4
 8006244:	685b      	ldr	r3, [r3, #4]
 8006246:	4798      	blx	r3
 8006248:	2000      	movs	r0, #0
 800624a:	bd08      	pop	{r3, pc}

0800624c <USBD_LL_SetupStage>:
 800624c:	b538      	push	{r3, r4, r5, lr}
 800624e:	f500 752a 	add.w	r5, r0, #680	@ 0x2a8
 8006252:	4604      	mov	r4, r0
 8006254:	4628      	mov	r0, r5
 8006256:	f000 fb07 	bl	8006868 <USBD_ParseSetupRequest>
 800625a:	2301      	movs	r3, #1
 800625c:	f894 12a8 	ldrb.w	r1, [r4, #680]	@ 0x2a8
 8006260:	f8c4 3294 	str.w	r3, [r4, #660]	@ 0x294
 8006264:	f8b4 32ae 	ldrh.w	r3, [r4, #686]	@ 0x2ae
 8006268:	f8c4 3298 	str.w	r3, [r4, #664]	@ 0x298
 800626c:	f001 031f 	and.w	r3, r1, #31
 8006270:	2b01      	cmp	r3, #1
 8006272:	d008      	beq.n	8006286 <USBD_LL_SetupStage+0x3a>
 8006274:	2b02      	cmp	r3, #2
 8006276:	d00b      	beq.n	8006290 <USBD_LL_SetupStage+0x44>
 8006278:	b97b      	cbnz	r3, 800629a <USBD_LL_SetupStage+0x4e>
 800627a:	4629      	mov	r1, r5
 800627c:	4620      	mov	r0, r4
 800627e:	f000 f8fb 	bl	8006478 <USBD_StdDevReq>
 8006282:	2000      	movs	r0, #0
 8006284:	bd38      	pop	{r3, r4, r5, pc}
 8006286:	4629      	mov	r1, r5
 8006288:	4620      	mov	r0, r4
 800628a:	f000 fa3d 	bl	8006708 <USBD_StdItfReq>
 800628e:	e7f8      	b.n	8006282 <USBD_LL_SetupStage+0x36>
 8006290:	4629      	mov	r1, r5
 8006292:	4620      	mov	r0, r4
 8006294:	f000 fa5c 	bl	8006750 <USBD_StdEPReq>
 8006298:	e7f3      	b.n	8006282 <USBD_LL_SetupStage+0x36>
 800629a:	4620      	mov	r0, r4
 800629c:	f001 0180 	and.w	r1, r1, #128	@ 0x80
 80062a0:	f001 f9a0 	bl	80075e4 <USBD_LL_StallEP>
 80062a4:	e7ed      	b.n	8006282 <USBD_LL_SetupStage+0x36>

080062a6 <USBD_LL_DataOutStage>:
 80062a6:	b570      	push	{r4, r5, r6, lr}
 80062a8:	4604      	mov	r4, r0
 80062aa:	4616      	mov	r6, r2
 80062ac:	bb39      	cbnz	r1, 80062fe <USBD_LL_DataOutStage+0x58>
 80062ae:	f8d0 2294 	ldr.w	r2, [r0, #660]	@ 0x294
 80062b2:	2a03      	cmp	r2, #3
 80062b4:	d11c      	bne.n	80062f0 <USBD_LL_DataOutStage+0x4a>
 80062b6:	e9d0 5258 	ldrd	r5, r2, [r0, #352]	@ 0x160
 80062ba:	4295      	cmp	r5, r2
 80062bc:	d90b      	bls.n	80062d6 <USBD_LL_DataOutStage+0x30>
 80062be:	1aad      	subs	r5, r5, r2
 80062c0:	42aa      	cmp	r2, r5
 80062c2:	4631      	mov	r1, r6
 80062c4:	f8c0 5160 	str.w	r5, [r0, #352]	@ 0x160
 80062c8:	bf8c      	ite	hi
 80062ca:	b2aa      	uxthhi	r2, r5
 80062cc:	b292      	uxthls	r2, r2
 80062ce:	f000 faeb 	bl	80068a8 <USBD_CtlContinueRx>
 80062d2:	2000      	movs	r0, #0
 80062d4:	bd70      	pop	{r4, r5, r6, pc}
 80062d6:	f8d0 32b4 	ldr.w	r3, [r0, #692]	@ 0x2b4
 80062da:	691b      	ldr	r3, [r3, #16]
 80062dc:	b123      	cbz	r3, 80062e8 <USBD_LL_DataOutStage+0x42>
 80062de:	f890 229c 	ldrb.w	r2, [r0, #668]	@ 0x29c
 80062e2:	2a03      	cmp	r2, #3
 80062e4:	d100      	bne.n	80062e8 <USBD_LL_DataOutStage+0x42>
 80062e6:	4798      	blx	r3
 80062e8:	4620      	mov	r0, r4
 80062ea:	f000 fae5 	bl	80068b8 <USBD_CtlSendStatus>
 80062ee:	e7f0      	b.n	80062d2 <USBD_LL_DataOutStage+0x2c>
 80062f0:	2a05      	cmp	r2, #5
 80062f2:	d1ee      	bne.n	80062d2 <USBD_LL_DataOutStage+0x2c>
 80062f4:	f8c4 1294 	str.w	r1, [r4, #660]	@ 0x294
 80062f8:	f001 f974 	bl	80075e4 <USBD_LL_StallEP>
 80062fc:	e7e9      	b.n	80062d2 <USBD_LL_DataOutStage+0x2c>
 80062fe:	f8d0 32b4 	ldr.w	r3, [r0, #692]	@ 0x2b4
 8006302:	699b      	ldr	r3, [r3, #24]
 8006304:	b12b      	cbz	r3, 8006312 <USBD_LL_DataOutStage+0x6c>
 8006306:	f890 229c 	ldrb.w	r2, [r0, #668]	@ 0x29c
 800630a:	2a03      	cmp	r2, #3
 800630c:	d101      	bne.n	8006312 <USBD_LL_DataOutStage+0x6c>
 800630e:	4798      	blx	r3
 8006310:	e7df      	b.n	80062d2 <USBD_LL_DataOutStage+0x2c>
 8006312:	2002      	movs	r0, #2
 8006314:	e7de      	b.n	80062d4 <USBD_LL_DataOutStage+0x2e>

08006316 <USBD_LL_DataInStage>:
 8006316:	b5f8      	push	{r3, r4, r5, r6, r7, lr}
 8006318:	4604      	mov	r4, r0
 800631a:	4613      	mov	r3, r2
 800631c:	460f      	mov	r7, r1
 800631e:	2900      	cmp	r1, #0
 8006320:	d149      	bne.n	80063b6 <USBD_LL_DataInStage+0xa0>
 8006322:	f8d0 2294 	ldr.w	r2, [r0, #660]	@ 0x294
 8006326:	2a02      	cmp	r2, #2
 8006328:	d13a      	bne.n	80063a0 <USBD_LL_DataInStage+0x8a>
 800632a:	e9d0 5608 	ldrd	r5, r6, [r0, #32]
 800632e:	42b5      	cmp	r5, r6
 8006330:	d911      	bls.n	8006356 <USBD_LL_DataInStage+0x40>
 8006332:	1bad      	subs	r5, r5, r6
 8006334:	4619      	mov	r1, r3
 8006336:	6205      	str	r5, [r0, #32]
 8006338:	b2aa      	uxth	r2, r5
 800633a:	f000 faad 	bl	8006898 <USBD_CtlContinueSendData>
 800633e:	463b      	mov	r3, r7
 8006340:	461a      	mov	r2, r3
 8006342:	4619      	mov	r1, r3
 8006344:	4620      	mov	r0, r4
 8006346:	f001 f982 	bl	800764e <USBD_LL_PrepareReceive>
 800634a:	f894 32a0 	ldrb.w	r3, [r4, #672]	@ 0x2a0
 800634e:	2b01      	cmp	r3, #1
 8006350:	d02d      	beq.n	80063ae <USBD_LL_DataInStage+0x98>
 8006352:	2000      	movs	r0, #0
 8006354:	bdf8      	pop	{r3, r4, r5, r6, r7, pc}
 8006356:	69c3      	ldr	r3, [r0, #28]
 8006358:	fbb3 f5f6 	udiv	r5, r3, r6
 800635c:	fb06 3515 	mls	r5, r6, r5, r3
 8006360:	b965      	cbnz	r5, 800637c <USBD_LL_DataInStage+0x66>
 8006362:	429e      	cmp	r6, r3
 8006364:	d80a      	bhi.n	800637c <USBD_LL_DataInStage+0x66>
 8006366:	f8d0 2298 	ldr.w	r2, [r0, #664]	@ 0x298
 800636a:	4293      	cmp	r3, r2
 800636c:	d206      	bcs.n	800637c <USBD_LL_DataInStage+0x66>
 800636e:	462a      	mov	r2, r5
 8006370:	f000 fa92 	bl	8006898 <USBD_CtlContinueSendData>
 8006374:	462b      	mov	r3, r5
 8006376:	f8c4 5298 	str.w	r5, [r4, #664]	@ 0x298
 800637a:	e7e1      	b.n	8006340 <USBD_LL_DataInStage+0x2a>
 800637c:	f8d4 32b4 	ldr.w	r3, [r4, #692]	@ 0x2b4
 8006380:	68db      	ldr	r3, [r3, #12]
 8006382:	b12b      	cbz	r3, 8006390 <USBD_LL_DataInStage+0x7a>
 8006384:	f894 229c 	ldrb.w	r2, [r4, #668]	@ 0x29c
 8006388:	2a03      	cmp	r2, #3
 800638a:	d101      	bne.n	8006390 <USBD_LL_DataInStage+0x7a>
 800638c:	4620      	mov	r0, r4
 800638e:	4798      	blx	r3
 8006390:	2180      	movs	r1, #128	@ 0x80
 8006392:	4620      	mov	r0, r4
 8006394:	f001 f926 	bl	80075e4 <USBD_LL_StallEP>
 8006398:	4620      	mov	r0, r4
 800639a:	f000 fa98 	bl	80068ce <USBD_CtlReceiveStatus>
 800639e:	e7d4      	b.n	800634a <USBD_LL_DataInStage+0x34>
 80063a0:	f032 0304 	bics.w	r3, r2, #4
 80063a4:	d1d1      	bne.n	800634a <USBD_LL_DataInStage+0x34>
 80063a6:	2180      	movs	r1, #128	@ 0x80
 80063a8:	f001 f91c 	bl	80075e4 <USBD_LL_StallEP>
 80063ac:	e7cd      	b.n	800634a <USBD_LL_DataInStage+0x34>
 80063ae:	2300      	movs	r3, #0
 80063b0:	f884 32a0 	strb.w	r3, [r4, #672]	@ 0x2a0
 80063b4:	e7cd      	b.n	8006352 <USBD_LL_DataInStage+0x3c>
 80063b6:	f8d0 32b4 	ldr.w	r3, [r0, #692]	@ 0x2b4
 80063ba:	695b      	ldr	r3, [r3, #20]
 80063bc:	b12b      	cbz	r3, 80063ca <USBD_LL_DataInStage+0xb4>
 80063be:	f890 229c 	ldrb.w	r2, [r0, #668]	@ 0x29c
 80063c2:	2a03      	cmp	r2, #3
 80063c4:	d101      	bne.n	80063ca <USBD_LL_DataInStage+0xb4>
 80063c6:	4798      	blx	r3
 80063c8:	e7c3      	b.n	8006352 <USBD_LL_DataInStage+0x3c>
 80063ca:	2002      	movs	r0, #2
 80063cc:	e7c2      	b.n	8006354 <USBD_LL_DataInStage+0x3e>

080063ce <USBD_LL_Reset>:
 80063ce:	2200      	movs	r2, #0
 80063d0:	b570      	push	{r4, r5, r6, lr}
 80063d2:	4604      	mov	r4, r0
 80063d4:	2501      	movs	r5, #1
 80063d6:	2640      	movs	r6, #64	@ 0x40
 80063d8:	4611      	mov	r1, r2
 80063da:	2340      	movs	r3, #64	@ 0x40
 80063dc:	f001 f8f6 	bl	80075cc <USBD_LL_OpenEP>
 80063e0:	4633      	mov	r3, r6
 80063e2:	2180      	movs	r1, #128	@ 0x80
 80063e4:	2200      	movs	r2, #0
 80063e6:	4620      	mov	r0, r4
 80063e8:	f8c4 5158 	str.w	r5, [r4, #344]	@ 0x158
 80063ec:	f8c4 6164 	str.w	r6, [r4, #356]	@ 0x164
 80063f0:	f001 f8ec 	bl	80075cc <USBD_LL_OpenEP>
 80063f4:	2100      	movs	r1, #0
 80063f6:	f8d4 32b8 	ldr.w	r3, [r4, #696]	@ 0x2b8
 80063fa:	61a5      	str	r5, [r4, #24]
 80063fc:	6266      	str	r6, [r4, #36]	@ 0x24
 80063fe:	f884 529c 	strb.w	r5, [r4, #668]	@ 0x29c
 8006402:	f8c4 1294 	str.w	r1, [r4, #660]	@ 0x294
 8006406:	6061      	str	r1, [r4, #4]
 8006408:	f8c4 12a4 	str.w	r1, [r4, #676]	@ 0x2a4
 800640c:	b123      	cbz	r3, 8006418 <USBD_LL_Reset+0x4a>
 800640e:	f8d4 32b4 	ldr.w	r3, [r4, #692]	@ 0x2b4
 8006412:	4620      	mov	r0, r4
 8006414:	685b      	ldr	r3, [r3, #4]
 8006416:	4798      	blx	r3
 8006418:	2000      	movs	r0, #0
 800641a:	bd70      	pop	{r4, r5, r6, pc}

0800641c <USBD_LL_SetSpeed>:
 800641c:	7401      	strb	r1, [r0, #16]
 800641e:	2000      	movs	r0, #0
 8006420:	4770      	bx	lr

08006422 <USBD_LL_Suspend>:
 8006422:	f890 329c 	ldrb.w	r3, [r0, #668]	@ 0x29c
 8006426:	f880 329d 	strb.w	r3, [r0, #669]	@ 0x29d
 800642a:	2304      	movs	r3, #4
 800642c:	f880 329c 	strb.w	r3, [r0, #668]	@ 0x29c
 8006430:	2000      	movs	r0, #0
 8006432:	4770      	bx	lr

08006434 <USBD_LL_Resume>:
 8006434:	f890 329c 	ldrb.w	r3, [r0, #668]	@ 0x29c
 8006438:	2b04      	cmp	r3, #4
 800643a:	bf04      	itt	eq
 800643c:	f890 329d 	ldrbeq.w	r3, [r0, #669]	@ 0x29d
 8006440:	f880 329c 	strbeq.w	r3, [r0, #668]	@ 0x29c
 8006444:	2000      	movs	r0, #0
 8006446:	4770      	bx	lr

08006448 <USBD_LL_SOF>:
 8006448:	b508      	push	{r3, lr}
 800644a:	f890 229c 	ldrb.w	r2, [r0, #668]	@ 0x29c
 800644e:	2a03      	cmp	r2, #3
 8006450:	d104      	bne.n	800645c <USBD_LL_SOF+0x14>
 8006452:	f8d0 32b4 	ldr.w	r3, [r0, #692]	@ 0x2b4
 8006456:	69db      	ldr	r3, [r3, #28]
 8006458:	b103      	cbz	r3, 800645c <USBD_LL_SOF+0x14>
 800645a:	4798      	blx	r3
 800645c:	2000      	movs	r0, #0
 800645e:	bd08      	pop	{r3, pc}

08006460 <USBD_CtlError.constprop.0>:
 8006460:	b510      	push	{r4, lr}
 8006462:	4604      	mov	r4, r0
 8006464:	2180      	movs	r1, #128	@ 0x80
 8006466:	f001 f8bd 	bl	80075e4 <USBD_LL_StallEP>
 800646a:	4620      	mov	r0, r4
 800646c:	e8bd 4010 	ldmia.w	sp!, {r4, lr}
 8006470:	2100      	movs	r1, #0
 8006472:	f001 b8b7 	b.w	80075e4 <USBD_LL_StallEP>
	...

08006478 <USBD_StdDevReq>:
 8006478:	b537      	push	{r0, r1, r2, r4, r5, lr}
 800647a:	780b      	ldrb	r3, [r1, #0]
 800647c:	4604      	mov	r4, r0
 800647e:	f003 0360 	and.w	r3, r3, #96	@ 0x60
 8006482:	2b20      	cmp	r3, #32
 8006484:	460d      	mov	r5, r1
 8006486:	d006      	beq.n	8006496 <USBD_StdDevReq+0x1e>
 8006488:	2b40      	cmp	r3, #64	@ 0x40
 800648a:	d004      	beq.n	8006496 <USBD_StdDevReq+0x1e>
 800648c:	b163      	cbz	r3, 80064a8 <USBD_StdDevReq+0x30>
 800648e:	4620      	mov	r0, r4
 8006490:	f7ff ffe6 	bl	8006460 <USBD_CtlError.constprop.0>
 8006494:	e005      	b.n	80064a2 <USBD_StdDevReq+0x2a>
 8006496:	f8d4 32b4 	ldr.w	r3, [r4, #692]	@ 0x2b4
 800649a:	4629      	mov	r1, r5
 800649c:	4620      	mov	r0, r4
 800649e:	689b      	ldr	r3, [r3, #8]
 80064a0:	4798      	blx	r3
 80064a2:	2000      	movs	r0, #0
 80064a4:	b003      	add	sp, #12
 80064a6:	bd30      	pop	{r4, r5, pc}
 80064a8:	784b      	ldrb	r3, [r1, #1]
 80064aa:	2b09      	cmp	r3, #9
 80064ac:	d8ef      	bhi.n	800648e <USBD_StdDevReq+0x16>
 80064ae:	a201      	add	r2, pc, #4	@ (adr r2, 80064b4 <USBD_StdDevReq+0x3c>)
 80064b0:	f852 f023 	ldr.w	pc, [r2, r3, lsl #2]
 80064b4:	080066b7 	.word	0x080066b7
 80064b8:	080066ed 	.word	0x080066ed
 80064bc:	0800648f 	.word	0x0800648f
 80064c0:	080066df 	.word	0x080066df
 80064c4:	0800648f 	.word	0x0800648f
 80064c8:	080065dd 	.word	0x080065dd
 80064cc:	080064dd 	.word	0x080064dd
 80064d0:	0800648f 	.word	0x0800648f
 80064d4:	08006687 	.word	0x08006687
 80064d8:	0800661f 	.word	0x0800661f
 80064dc:	2300      	movs	r3, #0
 80064de:	f8ad 3006 	strh.w	r3, [sp, #6]
 80064e2:	884b      	ldrh	r3, [r1, #2]
 80064e4:	0a1a      	lsrs	r2, r3, #8
 80064e6:	3a01      	subs	r2, #1
 80064e8:	2a06      	cmp	r2, #6
 80064ea:	d8d0      	bhi.n	800648e <USBD_StdDevReq+0x16>
 80064ec:	a101      	add	r1, pc, #4	@ (adr r1, 80064f4 <USBD_StdDevReq+0x7c>)
 80064ee:	f851 f022 	ldr.w	pc, [r1, r2, lsl #2]
 80064f2:	bf00      	nop
 80064f4:	08006511 	.word	0x08006511
 80064f8:	08006535 	.word	0x08006535
 80064fc:	0800654f 	.word	0x0800654f
 8006500:	0800648f 	.word	0x0800648f
 8006504:	0800648f 	.word	0x0800648f
 8006508:	08006593 	.word	0x08006593
 800650c:	080065a9 	.word	0x080065a9
 8006510:	f8d0 32b0 	ldr.w	r3, [r0, #688]	@ 0x2b0
 8006514:	681b      	ldr	r3, [r3, #0]
 8006516:	7c20      	ldrb	r0, [r4, #16]
 8006518:	f10d 0106 	add.w	r1, sp, #6
 800651c:	4798      	blx	r3
 800651e:	f8bd 2006 	ldrh.w	r2, [sp, #6]
 8006522:	88eb      	ldrh	r3, [r5, #6]
 8006524:	2a00      	cmp	r2, #0
 8006526:	d054      	beq.n	80065d2 <USBD_StdDevReq+0x15a>
 8006528:	2b00      	cmp	r3, #0
 800652a:	d149      	bne.n	80065c0 <USBD_StdDevReq+0x148>
 800652c:	4620      	mov	r0, r4
 800652e:	f000 f9c3 	bl	80068b8 <USBD_CtlSendStatus>
 8006532:	e7b6      	b.n	80064a2 <USBD_StdDevReq+0x2a>
 8006534:	7c02      	ldrb	r2, [r0, #16]
 8006536:	f8d0 32b4 	ldr.w	r3, [r0, #692]	@ 0x2b4
 800653a:	b932      	cbnz	r2, 800654a <USBD_StdDevReq+0xd2>
 800653c:	6a9b      	ldr	r3, [r3, #40]	@ 0x28
 800653e:	f10d 0006 	add.w	r0, sp, #6
 8006542:	4798      	blx	r3
 8006544:	2302      	movs	r3, #2
 8006546:	7043      	strb	r3, [r0, #1]
 8006548:	e7e9      	b.n	800651e <USBD_StdDevReq+0xa6>
 800654a:	6adb      	ldr	r3, [r3, #44]	@ 0x2c
 800654c:	e7f7      	b.n	800653e <USBD_StdDevReq+0xc6>
 800654e:	b2db      	uxtb	r3, r3
 8006550:	2b05      	cmp	r3, #5
 8006552:	d89c      	bhi.n	800648e <USBD_StdDevReq+0x16>
 8006554:	e8df f003 	tbb	[pc, r3]
 8006558:	110d0903 	.word	0x110d0903
 800655c:	1915      	.short	0x1915
 800655e:	f8d0 32b0 	ldr.w	r3, [r0, #688]	@ 0x2b0
 8006562:	685b      	ldr	r3, [r3, #4]
 8006564:	2b00      	cmp	r3, #0
 8006566:	d1d6      	bne.n	8006516 <USBD_StdDevReq+0x9e>
 8006568:	e791      	b.n	800648e <USBD_StdDevReq+0x16>
 800656a:	f8d0 32b0 	ldr.w	r3, [r0, #688]	@ 0x2b0
 800656e:	689b      	ldr	r3, [r3, #8]
 8006570:	e7f8      	b.n	8006564 <USBD_StdDevReq+0xec>
 8006572:	f8d0 32b0 	ldr.w	r3, [r0, #688]	@ 0x2b0
 8006576:	68db      	ldr	r3, [r3, #12]
 8006578:	e7f4      	b.n	8006564 <USBD_StdDevReq+0xec>
 800657a:	f8d0 32b0 	ldr.w	r3, [r0, #688]	@ 0x2b0
 800657e:	691b      	ldr	r3, [r3, #16]
 8006580:	e7f0      	b.n	8006564 <USBD_StdDevReq+0xec>
 8006582:	f8d0 32b0 	ldr.w	r3, [r0, #688]	@ 0x2b0
 8006586:	695b      	ldr	r3, [r3, #20]
 8006588:	e7ec      	b.n	8006564 <USBD_StdDevReq+0xec>
 800658a:	f8d0 32b0 	ldr.w	r3, [r0, #688]	@ 0x2b0
 800658e:	699b      	ldr	r3, [r3, #24]
 8006590:	e7e8      	b.n	8006564 <USBD_StdDevReq+0xec>
 8006592:	7c03      	ldrb	r3, [r0, #16]
 8006594:	2b00      	cmp	r3, #0
 8006596:	f47f af7a 	bne.w	800648e <USBD_StdDevReq+0x16>
 800659a:	f8d0 32b4 	ldr.w	r3, [r0, #692]	@ 0x2b4
 800659e:	f10d 0006 	add.w	r0, sp, #6
 80065a2:	6b5b      	ldr	r3, [r3, #52]	@ 0x34
 80065a4:	4798      	blx	r3
 80065a6:	e7ba      	b.n	800651e <USBD_StdDevReq+0xa6>
 80065a8:	7c03      	ldrb	r3, [r0, #16]
 80065aa:	2b00      	cmp	r3, #0
 80065ac:	f47f af6f 	bne.w	800648e <USBD_StdDevReq+0x16>
 80065b0:	f8d0 32b4 	ldr.w	r3, [r0, #692]	@ 0x2b4
 80065b4:	f10d 0006 	add.w	r0, sp, #6
 80065b8:	6b1b      	ldr	r3, [r3, #48]	@ 0x30
 80065ba:	4798      	blx	r3
 80065bc:	2307      	movs	r3, #7
 80065be:	e7c2      	b.n	8006546 <USBD_StdDevReq+0xce>
 80065c0:	429a      	cmp	r2, r3
 80065c2:	bf28      	it	cs
 80065c4:	461a      	movcs	r2, r3
 80065c6:	4601      	mov	r1, r0
 80065c8:	4620      	mov	r0, r4
 80065ca:	f8ad 2006 	strh.w	r2, [sp, #6]
 80065ce:	f000 f956 	bl	800687e <USBD_CtlSendData>
 80065d2:	88eb      	ldrh	r3, [r5, #6]
 80065d4:	2b00      	cmp	r3, #0
 80065d6:	f47f af64 	bne.w	80064a2 <USBD_StdDevReq+0x2a>
 80065da:	e7a7      	b.n	800652c <USBD_StdDevReq+0xb4>
 80065dc:	888b      	ldrh	r3, [r1, #4]
 80065de:	2b00      	cmp	r3, #0
 80065e0:	f47f af55 	bne.w	800648e <USBD_StdDevReq+0x16>
 80065e4:	88cb      	ldrh	r3, [r1, #6]
 80065e6:	2b00      	cmp	r3, #0
 80065e8:	f47f af51 	bne.w	800648e <USBD_StdDevReq+0x16>
 80065ec:	884d      	ldrh	r5, [r1, #2]
 80065ee:	2d7f      	cmp	r5, #127	@ 0x7f
 80065f0:	f63f af4d 	bhi.w	800648e <USBD_StdDevReq+0x16>
 80065f4:	f890 329c 	ldrb.w	r3, [r0, #668]	@ 0x29c
 80065f8:	2b03      	cmp	r3, #3
 80065fa:	f43f af48 	beq.w	800648e <USBD_StdDevReq+0x16>
 80065fe:	b2ed      	uxtb	r5, r5
 8006600:	4629      	mov	r1, r5
 8006602:	f880 529e 	strb.w	r5, [r0, #670]	@ 0x29e
 8006606:	f001 f810 	bl	800762a <USBD_LL_SetUSBAddress>
 800660a:	4620      	mov	r0, r4
 800660c:	f000 f954 	bl	80068b8 <USBD_CtlSendStatus>
 8006610:	b11d      	cbz	r5, 800661a <USBD_StdDevReq+0x1a2>
 8006612:	2302      	movs	r3, #2
 8006614:	f884 329c 	strb.w	r3, [r4, #668]	@ 0x29c
 8006618:	e743      	b.n	80064a2 <USBD_StdDevReq+0x2a>
 800661a:	2301      	movs	r3, #1
 800661c:	e7fa      	b.n	8006614 <USBD_StdDevReq+0x19c>
 800661e:	7889      	ldrb	r1, [r1, #2]
 8006620:	4d38      	ldr	r5, [pc, #224]	@ (8006704 <USBD_StdDevReq+0x28c>)
 8006622:	2901      	cmp	r1, #1
 8006624:	7029      	strb	r1, [r5, #0]
 8006626:	f63f af32 	bhi.w	800648e <USBD_StdDevReq+0x16>
 800662a:	f890 329c 	ldrb.w	r3, [r0, #668]	@ 0x29c
 800662e:	2b02      	cmp	r3, #2
 8006630:	d008      	beq.n	8006644 <USBD_StdDevReq+0x1cc>
 8006632:	2b03      	cmp	r3, #3
 8006634:	d015      	beq.n	8006662 <USBD_StdDevReq+0x1ea>
 8006636:	f7ff ff13 	bl	8006460 <USBD_CtlError.constprop.0>
 800663a:	4620      	mov	r0, r4
 800663c:	7829      	ldrb	r1, [r5, #0]
 800663e:	f7ff fdfe 	bl	800623e <USBD_ClrClassConfig>
 8006642:	e72e      	b.n	80064a2 <USBD_StdDevReq+0x2a>
 8006644:	2900      	cmp	r1, #0
 8006646:	f43f af71 	beq.w	800652c <USBD_StdDevReq+0xb4>
 800664a:	2101      	movs	r1, #1
 800664c:	2303      	movs	r3, #3
 800664e:	6041      	str	r1, [r0, #4]
 8006650:	f880 329c 	strb.w	r3, [r0, #668]	@ 0x29c
 8006654:	4620      	mov	r0, r4
 8006656:	f7ff fde5 	bl	8006224 <USBD_SetClassConfig>
 800665a:	2802      	cmp	r0, #2
 800665c:	f47f af66 	bne.w	800652c <USBD_StdDevReq+0xb4>
 8006660:	e715      	b.n	800648e <USBD_StdDevReq+0x16>
 8006662:	b931      	cbnz	r1, 8006672 <USBD_StdDevReq+0x1fa>
 8006664:	2302      	movs	r3, #2
 8006666:	6041      	str	r1, [r0, #4]
 8006668:	f880 329c 	strb.w	r3, [r0, #668]	@ 0x29c
 800666c:	f7ff fde7 	bl	800623e <USBD_ClrClassConfig>
 8006670:	e75c      	b.n	800652c <USBD_StdDevReq+0xb4>
 8006672:	6841      	ldr	r1, [r0, #4]
 8006674:	2901      	cmp	r1, #1
 8006676:	f43f af59 	beq.w	800652c <USBD_StdDevReq+0xb4>
 800667a:	b2c9      	uxtb	r1, r1
 800667c:	f7ff fddf 	bl	800623e <USBD_ClrClassConfig>
 8006680:	7829      	ldrb	r1, [r5, #0]
 8006682:	6061      	str	r1, [r4, #4]
 8006684:	e7e6      	b.n	8006654 <USBD_StdDevReq+0x1dc>
 8006686:	88ca      	ldrh	r2, [r1, #6]
 8006688:	2a01      	cmp	r2, #1
 800668a:	f47f af00 	bne.w	800648e <USBD_StdDevReq+0x16>
 800668e:	f890 329c 	ldrb.w	r3, [r0, #668]	@ 0x29c
 8006692:	2b02      	cmp	r3, #2
 8006694:	d80a      	bhi.n	80066ac <USBD_StdDevReq+0x234>
 8006696:	2b00      	cmp	r3, #0
 8006698:	f43f aef9 	beq.w	800648e <USBD_StdDevReq+0x16>
 800669c:	4601      	mov	r1, r0
 800669e:	2300      	movs	r3, #0
 80066a0:	f841 3f08 	str.w	r3, [r1, #8]!
 80066a4:	4620      	mov	r0, r4
 80066a6:	f000 f8ea 	bl	800687e <USBD_CtlSendData>
 80066aa:	e6fa      	b.n	80064a2 <USBD_StdDevReq+0x2a>
 80066ac:	2b03      	cmp	r3, #3
 80066ae:	f47f aeee 	bne.w	800648e <USBD_StdDevReq+0x16>
 80066b2:	1d01      	adds	r1, r0, #4
 80066b4:	e7f6      	b.n	80066a4 <USBD_StdDevReq+0x22c>
 80066b6:	f890 329c 	ldrb.w	r3, [r0, #668]	@ 0x29c
 80066ba:	3b01      	subs	r3, #1
 80066bc:	2b02      	cmp	r3, #2
 80066be:	f63f aee6 	bhi.w	800648e <USBD_StdDevReq+0x16>
 80066c2:	88ca      	ldrh	r2, [r1, #6]
 80066c4:	2a02      	cmp	r2, #2
 80066c6:	f47f aee2 	bne.w	800648e <USBD_StdDevReq+0x16>
 80066ca:	f8d0 32a4 	ldr.w	r3, [r0, #676]	@ 0x2a4
 80066ce:	4601      	mov	r1, r0
 80066d0:	2b00      	cmp	r3, #0
 80066d2:	bf0c      	ite	eq
 80066d4:	2301      	moveq	r3, #1
 80066d6:	2303      	movne	r3, #3
 80066d8:	f841 3f0c 	str.w	r3, [r1, #12]!
 80066dc:	e7e2      	b.n	80066a4 <USBD_StdDevReq+0x22c>
 80066de:	884b      	ldrh	r3, [r1, #2]
 80066e0:	2b01      	cmp	r3, #1
 80066e2:	f47f aede 	bne.w	80064a2 <USBD_StdDevReq+0x2a>
 80066e6:	f8c4 32a4 	str.w	r3, [r4, #676]	@ 0x2a4
 80066ea:	e71f      	b.n	800652c <USBD_StdDevReq+0xb4>
 80066ec:	f890 329c 	ldrb.w	r3, [r0, #668]	@ 0x29c
 80066f0:	3b01      	subs	r3, #1
 80066f2:	2b02      	cmp	r3, #2
 80066f4:	f63f aecb 	bhi.w	800648e <USBD_StdDevReq+0x16>
 80066f8:	884b      	ldrh	r3, [r1, #2]
 80066fa:	2b01      	cmp	r3, #1
 80066fc:	f47f aed1 	bne.w	80064a2 <USBD_StdDevReq+0x2a>
 8006700:	2300      	movs	r3, #0
 8006702:	e7f0      	b.n	80066e6 <USBD_StdDevReq+0x26e>
 8006704:	200009fc 	.word	0x200009fc

08006708 <USBD_StdItfReq>:
 8006708:	b538      	push	{r3, r4, r5, lr}
 800670a:	780b      	ldrb	r3, [r1, #0]
 800670c:	4604      	mov	r4, r0
 800670e:	f003 0260 	and.w	r2, r3, #96	@ 0x60
 8006712:	065b      	lsls	r3, r3, #25
 8006714:	460d      	mov	r5, r1
 8006716:	d501      	bpl.n	800671c <USBD_StdItfReq+0x14>
 8006718:	2a40      	cmp	r2, #64	@ 0x40
 800671a:	d115      	bne.n	8006748 <USBD_StdItfReq+0x40>
 800671c:	f894 329c 	ldrb.w	r3, [r4, #668]	@ 0x29c
 8006720:	3b01      	subs	r3, #1
 8006722:	2b02      	cmp	r3, #2
 8006724:	d810      	bhi.n	8006748 <USBD_StdItfReq+0x40>
 8006726:	792b      	ldrb	r3, [r5, #4]
 8006728:	2b01      	cmp	r3, #1
 800672a:	d80d      	bhi.n	8006748 <USBD_StdItfReq+0x40>
 800672c:	f8d4 32b4 	ldr.w	r3, [r4, #692]	@ 0x2b4
 8006730:	4629      	mov	r1, r5
 8006732:	689b      	ldr	r3, [r3, #8]
 8006734:	4620      	mov	r0, r4
 8006736:	4798      	blx	r3
 8006738:	88eb      	ldrh	r3, [r5, #6]
 800673a:	b91b      	cbnz	r3, 8006744 <USBD_StdItfReq+0x3c>
 800673c:	b910      	cbnz	r0, 8006744 <USBD_StdItfReq+0x3c>
 800673e:	4620      	mov	r0, r4
 8006740:	f000 f8ba 	bl	80068b8 <USBD_CtlSendStatus>
 8006744:	2000      	movs	r0, #0
 8006746:	bd38      	pop	{r3, r4, r5, pc}
 8006748:	4620      	mov	r0, r4
 800674a:	f7ff fe89 	bl	8006460 <USBD_CtlError.constprop.0>
 800674e:	e7f9      	b.n	8006744 <USBD_StdItfReq+0x3c>

08006750 <USBD_StdEPReq>:
 8006750:	b538      	push	{r3, r4, r5, lr}
 8006752:	780a      	ldrb	r2, [r1, #0]
 8006754:	4604      	mov	r4, r0
 8006756:	f002 0260 	and.w	r2, r2, #96	@ 0x60
 800675a:	2a20      	cmp	r2, #32
 800675c:	460b      	mov	r3, r1
 800675e:	888d      	ldrh	r5, [r1, #4]
 8006760:	d006      	beq.n	8006770 <USBD_StdEPReq+0x20>
 8006762:	2a40      	cmp	r2, #64	@ 0x40
 8006764:	d004      	beq.n	8006770 <USBD_StdEPReq+0x20>
 8006766:	b15a      	cbz	r2, 8006780 <USBD_StdEPReq+0x30>
 8006768:	4620      	mov	r0, r4
 800676a:	f7ff fe79 	bl	8006460 <USBD_CtlError.constprop.0>
 800676e:	e005      	b.n	800677c <USBD_StdEPReq+0x2c>
 8006770:	f8d4 22b4 	ldr.w	r2, [r4, #692]	@ 0x2b4
 8006774:	4619      	mov	r1, r3
 8006776:	4620      	mov	r0, r4
 8006778:	6892      	ldr	r2, [r2, #8]
 800677a:	4790      	blx	r2
 800677c:	2000      	movs	r0, #0
 800677e:	bd38      	pop	{r3, r4, r5, pc}
 8006780:	785a      	ldrb	r2, [r3, #1]
 8006782:	b2e9      	uxtb	r1, r5
 8006784:	2a01      	cmp	r2, #1
 8006786:	d035      	beq.n	80067f4 <USBD_StdEPReq+0xa4>
 8006788:	2a03      	cmp	r2, #3
 800678a:	d021      	beq.n	80067d0 <USBD_StdEPReq+0x80>
 800678c:	2a00      	cmp	r2, #0
 800678e:	d1eb      	bne.n	8006768 <USBD_StdEPReq+0x18>
 8006790:	f890 329c 	ldrb.w	r3, [r0, #668]	@ 0x29c
 8006794:	2b02      	cmp	r3, #2
 8006796:	d044      	beq.n	8006822 <USBD_StdEPReq+0xd2>
 8006798:	2b03      	cmp	r3, #3
 800679a:	d1e5      	bne.n	8006768 <USBD_StdEPReq+0x18>
 800679c:	2214      	movs	r2, #20
 800679e:	f001 030f 	and.w	r3, r1, #15
 80067a2:	f015 0f80 	tst.w	r5, #128	@ 0x80
 80067a6:	fb02 0303 	mla	r3, r2, r3, r0
 80067aa:	d04b      	beq.n	8006844 <USBD_StdEPReq+0xf4>
 80067ac:	699b      	ldr	r3, [r3, #24]
 80067ae:	2b00      	cmp	r3, #0
 80067b0:	d0da      	beq.n	8006768 <USBD_StdEPReq+0x18>
 80067b2:	2514      	movs	r5, #20
 80067b4:	f001 037f 	and.w	r3, r1, #127	@ 0x7f
 80067b8:	fb03 5505 	mla	r5, r3, r5, r5
 80067bc:	2980      	cmp	r1, #128	@ 0x80
 80067be:	4405      	add	r5, r0
 80067c0:	d04b      	beq.n	800685a <USBD_StdEPReq+0x10a>
 80067c2:	4620      	mov	r0, r4
 80067c4:	f000 ff20 	bl	8007608 <USBD_LL_IsStallEP>
 80067c8:	2800      	cmp	r0, #0
 80067ca:	d04b      	beq.n	8006864 <USBD_StdEPReq+0x114>
 80067cc:	2301      	movs	r3, #1
 80067ce:	e045      	b.n	800685c <USBD_StdEPReq+0x10c>
 80067d0:	f890 229c 	ldrb.w	r2, [r0, #668]	@ 0x29c
 80067d4:	2a02      	cmp	r2, #2
 80067d6:	d01b      	beq.n	8006810 <USBD_StdEPReq+0xc0>
 80067d8:	2a03      	cmp	r2, #3
 80067da:	d1c5      	bne.n	8006768 <USBD_StdEPReq+0x18>
 80067dc:	885a      	ldrh	r2, [r3, #2]
 80067de:	b92a      	cbnz	r2, 80067ec <USBD_StdEPReq+0x9c>
 80067e0:	064a      	lsls	r2, r1, #25
 80067e2:	d003      	beq.n	80067ec <USBD_StdEPReq+0x9c>
 80067e4:	88db      	ldrh	r3, [r3, #6]
 80067e6:	b90b      	cbnz	r3, 80067ec <USBD_StdEPReq+0x9c>
 80067e8:	f000 fefc 	bl	80075e4 <USBD_LL_StallEP>
 80067ec:	4620      	mov	r0, r4
 80067ee:	f000 f863 	bl	80068b8 <USBD_CtlSendStatus>
 80067f2:	e7c3      	b.n	800677c <USBD_StdEPReq+0x2c>
 80067f4:	f890 229c 	ldrb.w	r2, [r0, #668]	@ 0x29c
 80067f8:	2a02      	cmp	r2, #2
 80067fa:	d009      	beq.n	8006810 <USBD_StdEPReq+0xc0>
 80067fc:	2a03      	cmp	r2, #3
 80067fe:	d1b3      	bne.n	8006768 <USBD_StdEPReq+0x18>
 8006800:	885b      	ldrh	r3, [r3, #2]
 8006802:	2b00      	cmp	r3, #0
 8006804:	d1ba      	bne.n	800677c <USBD_StdEPReq+0x2c>
 8006806:	064d      	lsls	r5, r1, #25
 8006808:	d0f0      	beq.n	80067ec <USBD_StdEPReq+0x9c>
 800680a:	f000 fef4 	bl	80075f6 <USBD_LL_ClearStallEP>
 800680e:	e7ed      	b.n	80067ec <USBD_StdEPReq+0x9c>
 8006810:	064b      	lsls	r3, r1, #25
 8006812:	d0a9      	beq.n	8006768 <USBD_StdEPReq+0x18>
 8006814:	f000 fee6 	bl	80075e4 <USBD_LL_StallEP>
 8006818:	2180      	movs	r1, #128	@ 0x80
 800681a:	4620      	mov	r0, r4
 800681c:	f000 fee2 	bl	80075e4 <USBD_LL_StallEP>
 8006820:	e7ac      	b.n	800677c <USBD_StdEPReq+0x2c>
 8006822:	064a      	lsls	r2, r1, #25
 8006824:	d1a0      	bne.n	8006768 <USBD_StdEPReq+0x18>
 8006826:	062b      	lsls	r3, r5, #24
 8006828:	f04f 0300 	mov.w	r3, #0
 800682c:	f04f 0202 	mov.w	r2, #2
 8006830:	bf4c      	ite	mi
 8006832:	f100 0114 	addmi.w	r1, r0, #20
 8006836:	f500 71aa 	addpl.w	r1, r0, #340	@ 0x154
 800683a:	600b      	str	r3, [r1, #0]
 800683c:	4620      	mov	r0, r4
 800683e:	f000 f81e 	bl	800687e <USBD_CtlSendData>
 8006842:	e79b      	b.n	800677c <USBD_StdEPReq+0x2c>
 8006844:	f8d3 3158 	ldr.w	r3, [r3, #344]	@ 0x158
 8006848:	2b00      	cmp	r3, #0
 800684a:	d08d      	beq.n	8006768 <USBD_StdEPReq+0x18>
 800684c:	2514      	movs	r5, #20
 800684e:	fb05 0501 	mla	r5, r5, r1, r0
 8006852:	f505 75aa 	add.w	r5, r5, #340	@ 0x154
 8006856:	2900      	cmp	r1, #0
 8006858:	d1b3      	bne.n	80067c2 <USBD_StdEPReq+0x72>
 800685a:	2300      	movs	r3, #0
 800685c:	602b      	str	r3, [r5, #0]
 800685e:	2202      	movs	r2, #2
 8006860:	4629      	mov	r1, r5
 8006862:	e7eb      	b.n	800683c <USBD_StdEPReq+0xec>
 8006864:	6028      	str	r0, [r5, #0]
 8006866:	e7fa      	b.n	800685e <USBD_StdEPReq+0x10e>

08006868 <USBD_ParseSetupRequest>:
 8006868:	780b      	ldrb	r3, [r1, #0]
 800686a:	7003      	strb	r3, [r0, #0]
 800686c:	784b      	ldrb	r3, [r1, #1]
 800686e:	7043      	strb	r3, [r0, #1]
 8006870:	884b      	ldrh	r3, [r1, #2]
 8006872:	8043      	strh	r3, [r0, #2]
 8006874:	888b      	ldrh	r3, [r1, #4]
 8006876:	8083      	strh	r3, [r0, #4]
 8006878:	88cb      	ldrh	r3, [r1, #6]
 800687a:	80c3      	strh	r3, [r0, #6]
 800687c:	4770      	bx	lr

0800687e <USBD_CtlSendData>:
 800687e:	4613      	mov	r3, r2
 8006880:	2202      	movs	r2, #2
 8006882:	b510      	push	{r4, lr}
 8006884:	e9c0 3307 	strd	r3, r3, [r0, #28]
 8006888:	f8c0 2294 	str.w	r2, [r0, #660]	@ 0x294
 800688c:	460a      	mov	r2, r1
 800688e:	2100      	movs	r1, #0
 8006890:	f000 fed4 	bl	800763c <USBD_LL_Transmit>
 8006894:	2000      	movs	r0, #0
 8006896:	bd10      	pop	{r4, pc}

08006898 <USBD_CtlContinueSendData>:
 8006898:	b508      	push	{r3, lr}
 800689a:	4613      	mov	r3, r2
 800689c:	460a      	mov	r2, r1
 800689e:	2100      	movs	r1, #0
 80068a0:	f000 fecc 	bl	800763c <USBD_LL_Transmit>
 80068a4:	2000      	movs	r0, #0
 80068a6:	bd08      	pop	{r3, pc}

080068a8 <USBD_CtlContinueRx>:
 80068a8:	b508      	push	{r3, lr}
 80068aa:	4613      	mov	r3, r2
 80068ac:	460a      	mov	r2, r1
 80068ae:	2100      	movs	r1, #0
 80068b0:	f000 fecd 	bl	800764e <USBD_LL_PrepareReceive>
 80068b4:	2000      	movs	r0, #0
 80068b6:	bd08      	pop	{r3, pc}

080068b8 <USBD_CtlSendStatus>:
 80068b8:	b508      	push	{r3, lr}
 80068ba:	2304      	movs	r3, #4
 80068bc:	f8c0 3294 	str.w	r3, [r0, #660]	@ 0x294
 80068c0:	2300      	movs	r3, #0
 80068c2:	461a      	mov	r2, r3
 80068c4:	4619      	mov	r1, r3
 80068c6:	f000 feb9 	bl	800763c <USBD_LL_Transmit>
 80068ca:	2000      	movs	r0, #0
 80068cc:	bd08      	pop	{r3, pc}

080068ce <USBD_CtlReceiveStatus>:
 80068ce:	b508      	push	{r3, lr}
 80068d0:	2305      	movs	r3, #5
 80068d2:	f8c0 3294 	str.w	r3, [r0, #660]	@ 0x294
 80068d6:	2300      	movs	r3, #0
 80068d8:	461a      	mov	r2, r3
 80068da:	4619      	mov	r1, r3
 80068dc:	f000 feb7 	bl	800764e <USBD_LL_PrepareReceive>
 80068e0:	2000      	movs	r0, #0
 80068e2:	bd08      	pop	{r3, pc}

080068e4 <osKernelStart>:
 80068e4:	b508      	push	{r3, lr}
 80068e6:	f000 fa41 	bl	8006d6c <vTaskStartScheduler>
 80068ea:	2000      	movs	r0, #0
 80068ec:	bd08      	pop	{r3, pc}

080068ee <osThreadCreate>:
 80068ee:	b570      	push	{r4, r5, r6, lr}
 80068f0:	4605      	mov	r5, r0
 80068f2:	6946      	ldr	r6, [r0, #20]
 80068f4:	460b      	mov	r3, r1
 80068f6:	e9d0 1000 	ldrd	r1, r0, [r0]
 80068fa:	692a      	ldr	r2, [r5, #16]
 80068fc:	f9b5 4008 	ldrsh.w	r4, [r5, #8]
 8006900:	b086      	sub	sp, #24
 8006902:	b176      	cbz	r6, 8006922 <osThreadCreate+0x34>
 8006904:	69ad      	ldr	r5, [r5, #24]
 8006906:	b165      	cbz	r5, 8006922 <osThreadCreate+0x34>
 8006908:	2c84      	cmp	r4, #132	@ 0x84
 800690a:	bf0c      	ite	eq
 800690c:	2400      	moveq	r4, #0
 800690e:	3403      	addne	r4, #3
 8006910:	e9cd 6501 	strd	r6, r5, [sp, #4]
 8006914:	9400      	str	r4, [sp, #0]
 8006916:	f000 f9c2 	bl	8006c9e <xTaskCreateStatic>
 800691a:	9005      	str	r0, [sp, #20]
 800691c:	9805      	ldr	r0, [sp, #20]
 800691e:	b006      	add	sp, #24
 8006920:	bd70      	pop	{r4, r5, r6, pc}
 8006922:	2c84      	cmp	r4, #132	@ 0x84
 8006924:	bf0c      	ite	eq
 8006926:	2400      	moveq	r4, #0
 8006928:	3403      	addne	r4, #3
 800692a:	ad05      	add	r5, sp, #20
 800692c:	e9cd 4500 	strd	r4, r5, [sp]
 8006930:	b292      	uxth	r2, r2
 8006932:	f000 f9ec 	bl	8006d0e <xTaskCreate>
 8006936:	2801      	cmp	r0, #1
 8006938:	d0f0      	beq.n	800691c <osThreadCreate+0x2e>
 800693a:	2000      	movs	r0, #0
 800693c:	e7ef      	b.n	800691e <osThreadCreate+0x30>

0800693e <osDelay>:
 800693e:	b508      	push	{r3, lr}
 8006940:	2801      	cmp	r0, #1
 8006942:	bf38      	it	cc
 8006944:	2001      	movcc	r0, #1
 8006946:	f000 fb61 	bl	800700c <vTaskDelay>
 800694a:	2000      	movs	r0, #0
 800694c:	bd08      	pop	{r3, pc}

0800694e <vListInitialise>:
 800694e:	f04f 32ff 	mov.w	r2, #4294967295
 8006952:	f100 0308 	add.w	r3, r0, #8
 8006956:	e9c0 2302 	strd	r2, r3, [r0, #8]
 800695a:	6043      	str	r3, [r0, #4]
 800695c:	6103      	str	r3, [r0, #16]
 800695e:	2300      	movs	r3, #0
 8006960:	6003      	str	r3, [r0, #0]
 8006962:	4770      	bx	lr

08006964 <vListInitialiseItem>:
 8006964:	2300      	movs	r3, #0
 8006966:	6103      	str	r3, [r0, #16]
 8006968:	4770      	bx	lr

0800696a <vListInsertEnd>:
 800696a:	6843      	ldr	r3, [r0, #4]
 800696c:	689a      	ldr	r2, [r3, #8]
 800696e:	604b      	str	r3, [r1, #4]
 8006970:	608a      	str	r2, [r1, #8]
 8006972:	6051      	str	r1, [r2, #4]
 8006974:	6099      	str	r1, [r3, #8]
 8006976:	6803      	ldr	r3, [r0, #0]
 8006978:	6108      	str	r0, [r1, #16]
 800697a:	3301      	adds	r3, #1
 800697c:	6003      	str	r3, [r0, #0]
 800697e:	4770      	bx	lr

08006980 <vListInsert>:
 8006980:	b530      	push	{r4, r5, lr}
 8006982:	680c      	ldr	r4, [r1, #0]
 8006984:	1c63      	adds	r3, r4, #1
 8006986:	d10a      	bne.n	800699e <vListInsert+0x1e>
 8006988:	6903      	ldr	r3, [r0, #16]
 800698a:	685a      	ldr	r2, [r3, #4]
 800698c:	604a      	str	r2, [r1, #4]
 800698e:	6091      	str	r1, [r2, #8]
 8006990:	608b      	str	r3, [r1, #8]
 8006992:	6059      	str	r1, [r3, #4]
 8006994:	6803      	ldr	r3, [r0, #0]
 8006996:	6108      	str	r0, [r1, #16]
 8006998:	3301      	adds	r3, #1
 800699a:	6003      	str	r3, [r0, #0]
 800699c:	bd30      	pop	{r4, r5, pc}
 800699e:	f100 0208 	add.w	r2, r0, #8
 80069a2:	4613      	mov	r3, r2
 80069a4:	6852      	ldr	r2, [r2, #4]
 80069a6:	6815      	ldr	r5, [r2, #0]
 80069a8:	42a5      	cmp	r5, r4
 80069aa:	d9fa      	bls.n	80069a2 <vListInsert+0x22>
 80069ac:	e7ed      	b.n	800698a <vListInsert+0xa>

080069ae <uxListRemove>:
 80069ae:	6903      	ldr	r3, [r0, #16]
 80069b0:	e9d0 1201 	ldrd	r1, r2, [r0, #4]
 80069b4:	608a      	str	r2, [r1, #8]
 80069b6:	6051      	str	r1, [r2, #4]
 80069b8:	6859      	ldr	r1, [r3, #4]
 80069ba:	4281      	cmp	r1, r0
 80069bc:	bf08      	it	eq
 80069be:	605a      	streq	r2, [r3, #4]
 80069c0:	2200      	movs	r2, #0
 80069c2:	6102      	str	r2, [r0, #16]
 80069c4:	681a      	ldr	r2, [r3, #0]
 80069c6:	3a01      	subs	r2, #1
 80069c8:	601a      	str	r2, [r3, #0]
 80069ca:	6818      	ldr	r0, [r3, #0]
 80069cc:	4770      	bx	lr
	...

080069d0 <prvAddNewTaskToReadyList>:
 80069d0:	e92d 41f0 	stmdb	sp!, {r4, r5, r6, r7, r8, lr}
 80069d4:	4604      	mov	r4, r0
 80069d6:	f000 fbdd 	bl	8007194 <vPortEnterCritical>
 80069da:	4b2f      	ldr	r3, [pc, #188]	@ (8006a98 <prvAddNewTaskToReadyList+0xc8>)
 80069dc:	4e2f      	ldr	r6, [pc, #188]	@ (8006a9c <prvAddNewTaskToReadyList+0xcc>)
 80069de:	681a      	ldr	r2, [r3, #0]
 80069e0:	4f2f      	ldr	r7, [pc, #188]	@ (8006aa0 <prvAddNewTaskToReadyList+0xd0>)
 80069e2:	3201      	adds	r2, #1
 80069e4:	601a      	str	r2, [r3, #0]
 80069e6:	6835      	ldr	r5, [r6, #0]
 80069e8:	2d00      	cmp	r5, #0
 80069ea:	d14a      	bne.n	8006a82 <prvAddNewTaskToReadyList+0xb2>
 80069ec:	6034      	str	r4, [r6, #0]
 80069ee:	681b      	ldr	r3, [r3, #0]
 80069f0:	2b01      	cmp	r3, #1
 80069f2:	d11f      	bne.n	8006a34 <prvAddNewTaskToReadyList+0x64>
 80069f4:	46b8      	mov	r8, r7
 80069f6:	4640      	mov	r0, r8
 80069f8:	3501      	adds	r5, #1
 80069fa:	f7ff ffa8 	bl	800694e <vListInitialise>
 80069fe:	2d07      	cmp	r5, #7
 8006a00:	f108 0814 	add.w	r8, r8, #20
 8006a04:	d1f7      	bne.n	80069f6 <prvAddNewTaskToReadyList+0x26>
 8006a06:	f8df 809c 	ldr.w	r8, [pc, #156]	@ 8006aa4 <prvAddNewTaskToReadyList+0xd4>
 8006a0a:	4d27      	ldr	r5, [pc, #156]	@ (8006aa8 <prvAddNewTaskToReadyList+0xd8>)
 8006a0c:	4640      	mov	r0, r8
 8006a0e:	f7ff ff9e 	bl	800694e <vListInitialise>
 8006a12:	4628      	mov	r0, r5
 8006a14:	f7ff ff9b 	bl	800694e <vListInitialise>
 8006a18:	4824      	ldr	r0, [pc, #144]	@ (8006aac <prvAddNewTaskToReadyList+0xdc>)
 8006a1a:	f7ff ff98 	bl	800694e <vListInitialise>
 8006a1e:	4824      	ldr	r0, [pc, #144]	@ (8006ab0 <prvAddNewTaskToReadyList+0xe0>)
 8006a20:	f7ff ff95 	bl	800694e <vListInitialise>
 8006a24:	4823      	ldr	r0, [pc, #140]	@ (8006ab4 <prvAddNewTaskToReadyList+0xe4>)
 8006a26:	f7ff ff92 	bl	800694e <vListInitialise>
 8006a2a:	4b23      	ldr	r3, [pc, #140]	@ (8006ab8 <prvAddNewTaskToReadyList+0xe8>)
 8006a2c:	f8c3 8000 	str.w	r8, [r3]
 8006a30:	4b22      	ldr	r3, [pc, #136]	@ (8006abc <prvAddNewTaskToReadyList+0xec>)
 8006a32:	601d      	str	r5, [r3, #0]
 8006a34:	4a22      	ldr	r2, [pc, #136]	@ (8006ac0 <prvAddNewTaskToReadyList+0xf0>)
 8006a36:	4923      	ldr	r1, [pc, #140]	@ (8006ac4 <prvAddNewTaskToReadyList+0xf4>)
 8006a38:	6813      	ldr	r3, [r2, #0]
 8006a3a:	6808      	ldr	r0, [r1, #0]
 8006a3c:	3301      	adds	r3, #1
 8006a3e:	6013      	str	r3, [r2, #0]
 8006a40:	2301      	movs	r3, #1
 8006a42:	6ae2      	ldr	r2, [r4, #44]	@ 0x2c
 8006a44:	4093      	lsls	r3, r2
 8006a46:	4303      	orrs	r3, r0
 8006a48:	2014      	movs	r0, #20
 8006a4a:	600b      	str	r3, [r1, #0]
 8006a4c:	fb00 7002 	mla	r0, r0, r2, r7
 8006a50:	1d21      	adds	r1, r4, #4
 8006a52:	f7ff ff8a 	bl	800696a <vListInsertEnd>
 8006a56:	f000 fbbd 	bl	80071d4 <vPortExitCritical>
 8006a5a:	4b1b      	ldr	r3, [pc, #108]	@ (8006ac8 <prvAddNewTaskToReadyList+0xf8>)
 8006a5c:	681b      	ldr	r3, [r3, #0]
 8006a5e:	b173      	cbz	r3, 8006a7e <prvAddNewTaskToReadyList+0xae>
 8006a60:	6833      	ldr	r3, [r6, #0]
 8006a62:	6ada      	ldr	r2, [r3, #44]	@ 0x2c
 8006a64:	6ae3      	ldr	r3, [r4, #44]	@ 0x2c
 8006a66:	429a      	cmp	r2, r3
 8006a68:	d209      	bcs.n	8006a7e <prvAddNewTaskToReadyList+0xae>
 8006a6a:	f04f 23e0 	mov.w	r3, #3758153728	@ 0xe000e000
 8006a6e:	f04f 5280 	mov.w	r2, #268435456	@ 0x10000000
 8006a72:	f8c3 2d04 	str.w	r2, [r3, #3332]	@ 0xd04
 8006a76:	f3bf 8f4f 	dsb	sy
 8006a7a:	f3bf 8f6f 	isb	sy
 8006a7e:	e8bd 81f0 	ldmia.w	sp!, {r4, r5, r6, r7, r8, pc}
 8006a82:	4b11      	ldr	r3, [pc, #68]	@ (8006ac8 <prvAddNewTaskToReadyList+0xf8>)
 8006a84:	681a      	ldr	r2, [r3, #0]
 8006a86:	6ae3      	ldr	r3, [r4, #44]	@ 0x2c
 8006a88:	2a00      	cmp	r2, #0
 8006a8a:	d1d3      	bne.n	8006a34 <prvAddNewTaskToReadyList+0x64>
 8006a8c:	6832      	ldr	r2, [r6, #0]
 8006a8e:	6ad2      	ldr	r2, [r2, #44]	@ 0x2c
 8006a90:	429a      	cmp	r2, r3
 8006a92:	bf98      	it	ls
 8006a94:	6034      	strls	r4, [r6, #0]
 8006a96:	e7cd      	b.n	8006a34 <prvAddNewTaskToReadyList+0x64>
 8006a98:	20000a24 	.word	0x20000a24
 8006a9c:	20000b24 	.word	0x20000b24
 8006aa0:	20000a98 	.word	0x20000a98
 8006aa4:	20000a84 	.word	0x20000a84
 8006aa8:	20000a70 	.word	0x20000a70
 8006aac:	20000a54 	.word	0x20000a54
 8006ab0:	20000a40 	.word	0x20000a40
 8006ab4:	20000a28 	.word	0x20000a28
 8006ab8:	20000a6c 	.word	0x20000a6c
 8006abc:	20000a68 	.word	0x20000a68
 8006ac0:	20000a08 	.word	0x20000a08
 8006ac4:	20000a1c 	.word	0x20000a1c
 8006ac8:	20000a18 	.word	0x20000a18

08006acc <prvAddCurrentTaskToDelayedList>:
 8006acc:	b5f8      	push	{r3, r4, r5, r6, r7, lr}
 8006ace:	4b1a      	ldr	r3, [pc, #104]	@ (8006b38 <prvAddCurrentTaskToDelayedList+0x6c>)
 8006ad0:	4d1a      	ldr	r5, [pc, #104]	@ (8006b3c <prvAddCurrentTaskToDelayedList+0x70>)
 8006ad2:	4606      	mov	r6, r0
 8006ad4:	681c      	ldr	r4, [r3, #0]
 8006ad6:	6828      	ldr	r0, [r5, #0]
 8006ad8:	460f      	mov	r7, r1
 8006ada:	3004      	adds	r0, #4
 8006adc:	f7ff ff67 	bl	80069ae <uxListRemove>
 8006ae0:	b940      	cbnz	r0, 8006af4 <prvAddCurrentTaskToDelayedList+0x28>
 8006ae2:	682a      	ldr	r2, [r5, #0]
 8006ae4:	4916      	ldr	r1, [pc, #88]	@ (8006b40 <prvAddCurrentTaskToDelayedList+0x74>)
 8006ae6:	6ad0      	ldr	r0, [r2, #44]	@ 0x2c
 8006ae8:	2201      	movs	r2, #1
 8006aea:	680b      	ldr	r3, [r1, #0]
 8006aec:	4082      	lsls	r2, r0
 8006aee:	ea23 0302 	bic.w	r3, r3, r2
 8006af2:	600b      	str	r3, [r1, #0]
 8006af4:	1c73      	adds	r3, r6, #1
 8006af6:	d107      	bne.n	8006b08 <prvAddCurrentTaskToDelayedList+0x3c>
 8006af8:	b137      	cbz	r7, 8006b08 <prvAddCurrentTaskToDelayedList+0x3c>
 8006afa:	6829      	ldr	r1, [r5, #0]
 8006afc:	4811      	ldr	r0, [pc, #68]	@ (8006b44 <prvAddCurrentTaskToDelayedList+0x78>)
 8006afe:	3104      	adds	r1, #4
 8006b00:	e8bd 40f8 	ldmia.w	sp!, {r3, r4, r5, r6, r7, lr}
 8006b04:	f7ff bf31 	b.w	800696a <vListInsertEnd>
 8006b08:	682b      	ldr	r3, [r5, #0]
 8006b0a:	19a4      	adds	r4, r4, r6
 8006b0c:	605c      	str	r4, [r3, #4]
 8006b0e:	d307      	bcc.n	8006b20 <prvAddCurrentTaskToDelayedList+0x54>
 8006b10:	4b0d      	ldr	r3, [pc, #52]	@ (8006b48 <prvAddCurrentTaskToDelayedList+0x7c>)
 8006b12:	6818      	ldr	r0, [r3, #0]
 8006b14:	6829      	ldr	r1, [r5, #0]
 8006b16:	e8bd 40f8 	ldmia.w	sp!, {r3, r4, r5, r6, r7, lr}
 8006b1a:	3104      	adds	r1, #4
 8006b1c:	f7ff bf30 	b.w	8006980 <vListInsert>
 8006b20:	4b0a      	ldr	r3, [pc, #40]	@ (8006b4c <prvAddCurrentTaskToDelayedList+0x80>)
 8006b22:	6818      	ldr	r0, [r3, #0]
 8006b24:	6829      	ldr	r1, [r5, #0]
 8006b26:	3104      	adds	r1, #4
 8006b28:	f7ff ff2a 	bl	8006980 <vListInsert>
 8006b2c:	4b08      	ldr	r3, [pc, #32]	@ (8006b50 <prvAddCurrentTaskToDelayedList+0x84>)
 8006b2e:	681a      	ldr	r2, [r3, #0]
 8006b30:	42a2      	cmp	r2, r4
 8006b32:	bf88      	it	hi
 8006b34:	601c      	strhi	r4, [r3, #0]
 8006b36:	bdf8      	pop	{r3, r4, r5, r6, r7, pc}
 8006b38:	20000a20 	.word	0x20000a20
 8006b3c:	20000b24 	.word	0x20000b24
 8006b40:	20000a1c 	.word	0x20000a1c
 8006b44:	20000a28 	.word	0x20000a28
 8006b48:	20000a68 	.word	0x20000a68
 8006b4c:	20000a6c 	.word	0x20000a6c
 8006b50:	20000a04 	.word	0x20000a04

08006b54 <prvResetNextTaskUnblockTime>:
 8006b54:	4a06      	ldr	r2, [pc, #24]	@ (8006b70 <prvResetNextTaskUnblockTime+0x1c>)
 8006b56:	6813      	ldr	r3, [r2, #0]
 8006b58:	6819      	ldr	r1, [r3, #0]
 8006b5a:	4b06      	ldr	r3, [pc, #24]	@ (8006b74 <prvResetNextTaskUnblockTime+0x20>)
 8006b5c:	b919      	cbnz	r1, 8006b66 <prvResetNextTaskUnblockTime+0x12>
 8006b5e:	f04f 32ff 	mov.w	r2, #4294967295
 8006b62:	601a      	str	r2, [r3, #0]
 8006b64:	4770      	bx	lr
 8006b66:	6812      	ldr	r2, [r2, #0]
 8006b68:	68d2      	ldr	r2, [r2, #12]
 8006b6a:	68d2      	ldr	r2, [r2, #12]
 8006b6c:	6852      	ldr	r2, [r2, #4]
 8006b6e:	e7f8      	b.n	8006b62 <prvResetNextTaskUnblockTime+0xe>
 8006b70:	20000a6c 	.word	0x20000a6c
 8006b74:	20000a04 	.word	0x20000a04

08006b78 <prvDeleteTCB>:
 8006b78:	b510      	push	{r4, lr}
 8006b7a:	f890 3051 	ldrb.w	r3, [r0, #81]	@ 0x51
 8006b7e:	4604      	mov	r4, r0
 8006b80:	b93b      	cbnz	r3, 8006b92 <prvDeleteTCB+0x1a>
 8006b82:	6b00      	ldr	r0, [r0, #48]	@ 0x30
 8006b84:	f000 fc9c 	bl	80074c0 <vPortFree>
 8006b88:	4620      	mov	r0, r4
 8006b8a:	e8bd 4010 	ldmia.w	sp!, {r4, lr}
 8006b8e:	f000 bc97 	b.w	80074c0 <vPortFree>
 8006b92:	2b01      	cmp	r3, #1
 8006b94:	d0f9      	beq.n	8006b8a <prvDeleteTCB+0x12>
 8006b96:	2b02      	cmp	r3, #2
 8006b98:	d008      	beq.n	8006bac <prvDeleteTCB+0x34>
 8006b9a:	f04f 0350 	mov.w	r3, #80	@ 0x50
 8006b9e:	f383 8811 	msr	BASEPRI, r3
 8006ba2:	f3bf 8f6f 	isb	sy
 8006ba6:	f3bf 8f4f 	dsb	sy
 8006baa:	e7fe      	b.n	8006baa <prvDeleteTCB+0x32>
 8006bac:	bd10      	pop	{r4, pc}
	...

08006bb0 <prvIdleTask>:
 8006bb0:	b580      	push	{r7, lr}
 8006bb2:	4c13      	ldr	r4, [pc, #76]	@ (8006c00 <prvIdleTask+0x50>)
 8006bb4:	4f13      	ldr	r7, [pc, #76]	@ (8006c04 <prvIdleTask+0x54>)
 8006bb6:	4d14      	ldr	r5, [pc, #80]	@ (8006c08 <prvIdleTask+0x58>)
 8006bb8:	6823      	ldr	r3, [r4, #0]
 8006bba:	b973      	cbnz	r3, 8006bda <prvIdleTask+0x2a>
 8006bbc:	4b13      	ldr	r3, [pc, #76]	@ (8006c0c <prvIdleTask+0x5c>)
 8006bbe:	681b      	ldr	r3, [r3, #0]
 8006bc0:	2b01      	cmp	r3, #1
 8006bc2:	d9f8      	bls.n	8006bb6 <prvIdleTask+0x6>
 8006bc4:	f04f 23e0 	mov.w	r3, #3758153728	@ 0xe000e000
 8006bc8:	f04f 5280 	mov.w	r2, #268435456	@ 0x10000000
 8006bcc:	f8c3 2d04 	str.w	r2, [r3, #3332]	@ 0xd04
 8006bd0:	f3bf 8f4f 	dsb	sy
 8006bd4:	f3bf 8f6f 	isb	sy
 8006bd8:	e7ed      	b.n	8006bb6 <prvIdleTask+0x6>
 8006bda:	f000 fadb 	bl	8007194 <vPortEnterCritical>
 8006bde:	68fb      	ldr	r3, [r7, #12]
 8006be0:	68de      	ldr	r6, [r3, #12]
 8006be2:	1d30      	adds	r0, r6, #4
 8006be4:	f7ff fee3 	bl	80069ae <uxListRemove>
 8006be8:	682b      	ldr	r3, [r5, #0]
 8006bea:	3b01      	subs	r3, #1
 8006bec:	602b      	str	r3, [r5, #0]
 8006bee:	6823      	ldr	r3, [r4, #0]
 8006bf0:	3b01      	subs	r3, #1
 8006bf2:	6023      	str	r3, [r4, #0]
 8006bf4:	f000 faee 	bl	80071d4 <vPortExitCritical>
 8006bf8:	4630      	mov	r0, r6
 8006bfa:	f7ff ffbd 	bl	8006b78 <prvDeleteTCB>
 8006bfe:	e7db      	b.n	8006bb8 <prvIdleTask+0x8>
 8006c00:	20000a3c 	.word	0x20000a3c
 8006c04:	20000a40 	.word	0x20000a40
 8006c08:	20000a24 	.word	0x20000a24
 8006c0c:	20000a98 	.word	0x20000a98

08006c10 <prvInitialiseNewTask.constprop.0>:
 8006c10:	e92d 47f0 	stmdb	sp!, {r4, r5, r6, r7, r8, r9, sl, lr}
 8006c14:	f102 4280 	add.w	r2, r2, #1073741824	@ 0x40000000
 8006c18:	e9dd 8409 	ldrd	r8, r4, [sp, #36]	@ 0x24
 8006c1c:	6b26      	ldr	r6, [r4, #48]	@ 0x30
 8006c1e:	3a01      	subs	r2, #1
 8006c20:	eb06 0682 	add.w	r6, r6, r2, lsl #2
 8006c24:	4607      	mov	r7, r0
 8006c26:	4699      	mov	r9, r3
 8006c28:	f026 0607 	bic.w	r6, r6, #7
 8006c2c:	b3a1      	cbz	r1, 8006c98 <prvInitialiseNewTask.constprop.0+0x88>
 8006c2e:	1e4b      	subs	r3, r1, #1
 8006c30:	f104 0233 	add.w	r2, r4, #51	@ 0x33
 8006c34:	310f      	adds	r1, #15
 8006c36:	f813 0f01 	ldrb.w	r0, [r3, #1]!
 8006c3a:	f802 0f01 	strb.w	r0, [r2, #1]!
 8006c3e:	b108      	cbz	r0, 8006c44 <prvInitialiseNewTask.constprop.0+0x34>
 8006c40:	428b      	cmp	r3, r1
 8006c42:	d1f8      	bne.n	8006c36 <prvInitialiseNewTask.constprop.0+0x26>
 8006c44:	2300      	movs	r3, #0
 8006c46:	f884 3043 	strb.w	r3, [r4, #67]	@ 0x43
 8006c4a:	9d08      	ldr	r5, [sp, #32]
 8006c4c:	f04f 0a00 	mov.w	sl, #0
 8006c50:	2d06      	cmp	r5, #6
 8006c52:	bf28      	it	cs
 8006c54:	2506      	movcs	r5, #6
 8006c56:	1d20      	adds	r0, r4, #4
 8006c58:	62e5      	str	r5, [r4, #44]	@ 0x2c
 8006c5a:	6465      	str	r5, [r4, #68]	@ 0x44
 8006c5c:	f8c4 a048 	str.w	sl, [r4, #72]	@ 0x48
 8006c60:	f7ff fe80 	bl	8006964 <vListInitialiseItem>
 8006c64:	f1c5 0507 	rsb	r5, r5, #7
 8006c68:	f104 0018 	add.w	r0, r4, #24
 8006c6c:	f7ff fe7a 	bl	8006964 <vListInitialiseItem>
 8006c70:	f8c4 a04c 	str.w	sl, [r4, #76]	@ 0x4c
 8006c74:	464a      	mov	r2, r9
 8006c76:	4639      	mov	r1, r7
 8006c78:	4630      	mov	r0, r6
 8006c7a:	6124      	str	r4, [r4, #16]
 8006c7c:	61a5      	str	r5, [r4, #24]
 8006c7e:	6264      	str	r4, [r4, #36]	@ 0x24
 8006c80:	f884 a050 	strb.w	sl, [r4, #80]	@ 0x50
 8006c84:	f000 fa60 	bl	8007148 <pxPortInitialiseStack>
 8006c88:	6020      	str	r0, [r4, #0]
 8006c8a:	f1b8 0f00 	cmp.w	r8, #0
 8006c8e:	d001      	beq.n	8006c94 <prvInitialiseNewTask.constprop.0+0x84>
 8006c90:	f8c8 4000 	str.w	r4, [r8]
 8006c94:	e8bd 87f0 	ldmia.w	sp!, {r4, r5, r6, r7, r8, r9, sl, pc}
 8006c98:	f884 1034 	strb.w	r1, [r4, #52]	@ 0x34
 8006c9c:	e7d5      	b.n	8006c4a <prvInitialiseNewTask.constprop.0+0x3a>

08006c9e <xTaskCreateStatic>:
 8006c9e:	b570      	push	{r4, r5, r6, lr}
 8006ca0:	b086      	sub	sp, #24
 8006ca2:	e9dd 540b 	ldrd	r5, r4, [sp, #44]	@ 0x2c
 8006ca6:	b945      	cbnz	r5, 8006cba <xTaskCreateStatic+0x1c>
 8006ca8:	f04f 0350 	mov.w	r3, #80	@ 0x50
 8006cac:	f383 8811 	msr	BASEPRI, r3
 8006cb0:	f3bf 8f6f 	isb	sy
 8006cb4:	f3bf 8f4f 	dsb	sy
 8006cb8:	e7fe      	b.n	8006cb8 <xTaskCreateStatic+0x1a>
 8006cba:	b944      	cbnz	r4, 8006cce <xTaskCreateStatic+0x30>
 8006cbc:	f04f 0350 	mov.w	r3, #80	@ 0x50
 8006cc0:	f383 8811 	msr	BASEPRI, r3
 8006cc4:	f3bf 8f6f 	isb	sy
 8006cc8:	f3bf 8f4f 	dsb	sy
 8006ccc:	e7fe      	b.n	8006ccc <xTaskCreateStatic+0x2e>
 8006cce:	2654      	movs	r6, #84	@ 0x54
 8006cd0:	9605      	str	r6, [sp, #20]
 8006cd2:	9e05      	ldr	r6, [sp, #20]
 8006cd4:	2e54      	cmp	r6, #84	@ 0x54
 8006cd6:	d008      	beq.n	8006cea <xTaskCreateStatic+0x4c>
 8006cd8:	f04f 0350 	mov.w	r3, #80	@ 0x50
 8006cdc:	f383 8811 	msr	BASEPRI, r3
 8006ce0:	f3bf 8f6f 	isb	sy
 8006ce4:	f3bf 8f4f 	dsb	sy
 8006ce8:	e7fe      	b.n	8006ce8 <xTaskCreateStatic+0x4a>
 8006cea:	6325      	str	r5, [r4, #48]	@ 0x30
 8006cec:	2502      	movs	r5, #2
 8006cee:	f884 5051 	strb.w	r5, [r4, #81]	@ 0x51
 8006cf2:	ad04      	add	r5, sp, #16
 8006cf4:	9501      	str	r5, [sp, #4]
 8006cf6:	9d0a      	ldr	r5, [sp, #40]	@ 0x28
 8006cf8:	9402      	str	r4, [sp, #8]
 8006cfa:	9500      	str	r5, [sp, #0]
 8006cfc:	9e05      	ldr	r6, [sp, #20]
 8006cfe:	f7ff ff87 	bl	8006c10 <prvInitialiseNewTask.constprop.0>
 8006d02:	4620      	mov	r0, r4
 8006d04:	f7ff fe64 	bl	80069d0 <prvAddNewTaskToReadyList>
 8006d08:	9804      	ldr	r0, [sp, #16]
 8006d0a:	b006      	add	sp, #24
 8006d0c:	bd70      	pop	{r4, r5, r6, pc}

08006d0e <xTaskCreate>:
 8006d0e:	e92d 43f0 	stmdb	sp!, {r4, r5, r6, r7, r8, r9, lr}
 8006d12:	4607      	mov	r7, r0
 8006d14:	b085      	sub	sp, #20
 8006d16:	0090      	lsls	r0, r2, #2
 8006d18:	4688      	mov	r8, r1
 8006d1a:	4616      	mov	r6, r2
 8006d1c:	4699      	mov	r9, r3
 8006d1e:	f000 fb37 	bl	8007390 <pvPortMalloc>
 8006d22:	4605      	mov	r5, r0
 8006d24:	b920      	cbnz	r0, 8006d30 <xTaskCreate+0x22>
 8006d26:	f04f 30ff 	mov.w	r0, #4294967295
 8006d2a:	b005      	add	sp, #20
 8006d2c:	e8bd 83f0 	ldmia.w	sp!, {r4, r5, r6, r7, r8, r9, pc}
 8006d30:	2054      	movs	r0, #84	@ 0x54
 8006d32:	f000 fb2d 	bl	8007390 <pvPortMalloc>
 8006d36:	4604      	mov	r4, r0
 8006d38:	b198      	cbz	r0, 8006d62 <xTaskCreate+0x54>
 8006d3a:	2300      	movs	r3, #0
 8006d3c:	f880 3051 	strb.w	r3, [r0, #81]	@ 0x51
 8006d40:	9b0d      	ldr	r3, [sp, #52]	@ 0x34
 8006d42:	6305      	str	r5, [r0, #48]	@ 0x30
 8006d44:	9301      	str	r3, [sp, #4]
 8006d46:	9b0c      	ldr	r3, [sp, #48]	@ 0x30
 8006d48:	4632      	mov	r2, r6
 8006d4a:	4641      	mov	r1, r8
 8006d4c:	9002      	str	r0, [sp, #8]
 8006d4e:	9300      	str	r3, [sp, #0]
 8006d50:	4638      	mov	r0, r7
 8006d52:	464b      	mov	r3, r9
 8006d54:	f7ff ff5c 	bl	8006c10 <prvInitialiseNewTask.constprop.0>
 8006d58:	4620      	mov	r0, r4
 8006d5a:	f7ff fe39 	bl	80069d0 <prvAddNewTaskToReadyList>
 8006d5e:	2001      	movs	r0, #1
 8006d60:	e7e3      	b.n	8006d2a <xTaskCreate+0x1c>
 8006d62:	4628      	mov	r0, r5
 8006d64:	f000 fbac 	bl	80074c0 <vPortFree>
 8006d68:	e7dd      	b.n	8006d26 <xTaskCreate+0x18>
	...

08006d6c <vTaskStartScheduler>:
 8006d6c:	b510      	push	{r4, lr}
 8006d6e:	2400      	movs	r4, #0
 8006d70:	b088      	sub	sp, #32
 8006d72:	aa07      	add	r2, sp, #28
 8006d74:	a906      	add	r1, sp, #24
 8006d76:	a805      	add	r0, sp, #20
 8006d78:	e9cd 4405 	strd	r4, r4, [sp, #20]
 8006d7c:	f7fa fe04 	bl	8001988 <vApplicationGetIdleTaskMemory>
 8006d80:	9b05      	ldr	r3, [sp, #20]
 8006d82:	9a07      	ldr	r2, [sp, #28]
 8006d84:	9302      	str	r3, [sp, #8]
 8006d86:	9b06      	ldr	r3, [sp, #24]
 8006d88:	490f      	ldr	r1, [pc, #60]	@ (8006dc8 <vTaskStartScheduler+0x5c>)
 8006d8a:	e9cd 4300 	strd	r4, r3, [sp]
 8006d8e:	480f      	ldr	r0, [pc, #60]	@ (8006dcc <vTaskStartScheduler+0x60>)
 8006d90:	4623      	mov	r3, r4
 8006d92:	f7ff ff84 	bl	8006c9e <xTaskCreateStatic>
 8006d96:	b1a8      	cbz	r0, 8006dc4 <vTaskStartScheduler+0x58>
 8006d98:	f04f 0350 	mov.w	r3, #80	@ 0x50
 8006d9c:	f383 8811 	msr	BASEPRI, r3
 8006da0:	f3bf 8f6f 	isb	sy
 8006da4:	f3bf 8f4f 	dsb	sy
 8006da8:	f04f 32ff 	mov.w	r2, #4294967295
 8006dac:	4b08      	ldr	r3, [pc, #32]	@ (8006dd0 <vTaskStartScheduler+0x64>)
 8006dae:	601a      	str	r2, [r3, #0]
 8006db0:	2201      	movs	r2, #1
 8006db2:	4b08      	ldr	r3, [pc, #32]	@ (8006dd4 <vTaskStartScheduler+0x68>)
 8006db4:	601a      	str	r2, [r3, #0]
 8006db6:	4b08      	ldr	r3, [pc, #32]	@ (8006dd8 <vTaskStartScheduler+0x6c>)
 8006db8:	601c      	str	r4, [r3, #0]
 8006dba:	b008      	add	sp, #32
 8006dbc:	e8bd 4010 	ldmia.w	sp!, {r4, lr}
 8006dc0:	f000 ba68 	b.w	8007294 <xPortStartScheduler>
 8006dc4:	b008      	add	sp, #32
 8006dc6:	bd10      	pop	{r4, pc}
 8006dc8:	0800a031 	.word	0x0800a031
 8006dcc:	08006bb1 	.word	0x08006bb1
 8006dd0:	20000a04 	.word	0x20000a04
 8006dd4:	20000a18 	.word	0x20000a18
 8006dd8:	20000a20 	.word	0x20000a20

08006ddc <vTaskSuspendAll>:
 8006ddc:	4a02      	ldr	r2, [pc, #8]	@ (8006de8 <vTaskSuspendAll+0xc>)
 8006dde:	6813      	ldr	r3, [r2, #0]
 8006de0:	3301      	adds	r3, #1
 8006de2:	6013      	str	r3, [r2, #0]
 8006de4:	4770      	bx	lr
 8006de6:	bf00      	nop
 8006de8:	20000a00 	.word	0x20000a00

08006dec <xTaskIncrementTick>:
 8006dec:	4b41      	ldr	r3, [pc, #260]	@ (8006ef4 <xTaskIncrementTick+0x108>)
 8006dee:	e92d 4ff7 	stmdb	sp!, {r0, r1, r2, r4, r5, r6, r7, r8, r9, sl, fp, lr}
 8006df2:	681b      	ldr	r3, [r3, #0]
 8006df4:	2b00      	cmp	r3, #0
 8006df6:	d176      	bne.n	8006ee6 <xTaskIncrementTick+0xfa>
 8006df8:	4b3f      	ldr	r3, [pc, #252]	@ (8006ef8 <xTaskIncrementTick+0x10c>)
 8006dfa:	681c      	ldr	r4, [r3, #0]
 8006dfc:	3401      	adds	r4, #1
 8006dfe:	601c      	str	r4, [r3, #0]
 8006e00:	b9bc      	cbnz	r4, 8006e32 <xTaskIncrementTick+0x46>
 8006e02:	4b3e      	ldr	r3, [pc, #248]	@ (8006efc <xTaskIncrementTick+0x110>)
 8006e04:	681a      	ldr	r2, [r3, #0]
 8006e06:	6812      	ldr	r2, [r2, #0]
 8006e08:	b142      	cbz	r2, 8006e1c <xTaskIncrementTick+0x30>
 8006e0a:	f04f 0350 	mov.w	r3, #80	@ 0x50
 8006e0e:	f383 8811 	msr	BASEPRI, r3
 8006e12:	f3bf 8f6f 	isb	sy
 8006e16:	f3bf 8f4f 	dsb	sy
 8006e1a:	e7fe      	b.n	8006e1a <xTaskIncrementTick+0x2e>
 8006e1c:	4a38      	ldr	r2, [pc, #224]	@ (8006f00 <xTaskIncrementTick+0x114>)
 8006e1e:	6819      	ldr	r1, [r3, #0]
 8006e20:	6810      	ldr	r0, [r2, #0]
 8006e22:	6018      	str	r0, [r3, #0]
 8006e24:	6011      	str	r1, [r2, #0]
 8006e26:	4a37      	ldr	r2, [pc, #220]	@ (8006f04 <xTaskIncrementTick+0x118>)
 8006e28:	6813      	ldr	r3, [r2, #0]
 8006e2a:	3301      	adds	r3, #1
 8006e2c:	6013      	str	r3, [r2, #0]
 8006e2e:	f7ff fe91 	bl	8006b54 <prvResetNextTaskUnblockTime>
 8006e32:	4d35      	ldr	r5, [pc, #212]	@ (8006f08 <xTaskIncrementTick+0x11c>)
 8006e34:	f04f 0b00 	mov.w	fp, #0
 8006e38:	682b      	ldr	r3, [r5, #0]
 8006e3a:	4e34      	ldr	r6, [pc, #208]	@ (8006f0c <xTaskIncrementTick+0x120>)
 8006e3c:	429c      	cmp	r4, r3
 8006e3e:	4f34      	ldr	r7, [pc, #208]	@ (8006f10 <xTaskIncrementTick+0x124>)
 8006e40:	d212      	bcs.n	8006e68 <xTaskIncrementTick+0x7c>
 8006e42:	2114      	movs	r1, #20
 8006e44:	683a      	ldr	r2, [r7, #0]
 8006e46:	6ad2      	ldr	r2, [r2, #44]	@ 0x2c
 8006e48:	434a      	muls	r2, r1
 8006e4a:	58b2      	ldr	r2, [r6, r2]
 8006e4c:	2a02      	cmp	r2, #2
 8006e4e:	4a31      	ldr	r2, [pc, #196]	@ (8006f14 <xTaskIncrementTick+0x128>)
 8006e50:	bf28      	it	cs
 8006e52:	f04f 0b01 	movcs.w	fp, #1
 8006e56:	6812      	ldr	r2, [r2, #0]
 8006e58:	2a00      	cmp	r2, #0
 8006e5a:	bf18      	it	ne
 8006e5c:	f04f 0b01 	movne.w	fp, #1
 8006e60:	4658      	mov	r0, fp
 8006e62:	b003      	add	sp, #12
 8006e64:	e8bd 8ff0 	ldmia.w	sp!, {r4, r5, r6, r7, r8, r9, sl, fp, pc}
 8006e68:	f8df a090 	ldr.w	sl, [pc, #144]	@ 8006efc <xTaskIncrementTick+0x110>
 8006e6c:	f8df 90a8 	ldr.w	r9, [pc, #168]	@ 8006f18 <xTaskIncrementTick+0x12c>
 8006e70:	f8da 2000 	ldr.w	r2, [sl]
 8006e74:	6812      	ldr	r2, [r2, #0]
 8006e76:	b91a      	cbnz	r2, 8006e80 <xTaskIncrementTick+0x94>
 8006e78:	f04f 32ff 	mov.w	r2, #4294967295
 8006e7c:	602a      	str	r2, [r5, #0]
 8006e7e:	e7e0      	b.n	8006e42 <xTaskIncrementTick+0x56>
 8006e80:	f8da 2000 	ldr.w	r2, [sl]
 8006e84:	68d2      	ldr	r2, [r2, #12]
 8006e86:	f8d2 800c 	ldr.w	r8, [r2, #12]
 8006e8a:	f8d8 1004 	ldr.w	r1, [r8, #4]
 8006e8e:	428c      	cmp	r4, r1
 8006e90:	d201      	bcs.n	8006e96 <xTaskIncrementTick+0xaa>
 8006e92:	6029      	str	r1, [r5, #0]
 8006e94:	e7d5      	b.n	8006e42 <xTaskIncrementTick+0x56>
 8006e96:	f108 0304 	add.w	r3, r8, #4
 8006e9a:	4618      	mov	r0, r3
 8006e9c:	9301      	str	r3, [sp, #4]
 8006e9e:	f7ff fd86 	bl	80069ae <uxListRemove>
 8006ea2:	f8d8 1028 	ldr.w	r1, [r8, #40]	@ 0x28
 8006ea6:	b119      	cbz	r1, 8006eb0 <xTaskIncrementTick+0xc4>
 8006ea8:	f108 0018 	add.w	r0, r8, #24
 8006eac:	f7ff fd7f 	bl	80069ae <uxListRemove>
 8006eb0:	2201      	movs	r2, #1
 8006eb2:	f04f 0c14 	mov.w	ip, #20
 8006eb6:	f8d8 002c 	ldr.w	r0, [r8, #44]	@ 0x2c
 8006eba:	f8d9 3000 	ldr.w	r3, [r9]
 8006ebe:	fa02 f100 	lsl.w	r1, r2, r0
 8006ec2:	4319      	orrs	r1, r3
 8006ec4:	fb0c 6000 	mla	r0, ip, r0, r6
 8006ec8:	f8c9 1000 	str.w	r1, [r9]
 8006ecc:	f108 0104 	add.w	r1, r8, #4
 8006ed0:	f7ff fd4b 	bl	800696a <vListInsertEnd>
 8006ed4:	6838      	ldr	r0, [r7, #0]
 8006ed6:	f8d8 102c 	ldr.w	r1, [r8, #44]	@ 0x2c
 8006eda:	6ac2      	ldr	r2, [r0, #44]	@ 0x2c
 8006edc:	4291      	cmp	r1, r2
 8006ede:	bf28      	it	cs
 8006ee0:	f04f 0b01 	movcs.w	fp, #1
 8006ee4:	e7c4      	b.n	8006e70 <xTaskIncrementTick+0x84>
 8006ee6:	4a0d      	ldr	r2, [pc, #52]	@ (8006f1c <xTaskIncrementTick+0x130>)
 8006ee8:	f04f 0b00 	mov.w	fp, #0
 8006eec:	6813      	ldr	r3, [r2, #0]
 8006eee:	3301      	adds	r3, #1
 8006ef0:	6013      	str	r3, [r2, #0]
 8006ef2:	e7b5      	b.n	8006e60 <xTaskIncrementTick+0x74>
 8006ef4:	20000a00 	.word	0x20000a00
 8006ef8:	20000a20 	.word	0x20000a20
 8006efc:	20000a6c 	.word	0x20000a6c
 8006f00:	20000a68 	.word	0x20000a68
 8006f04:	20000a0c 	.word	0x20000a0c
 8006f08:	20000a04 	.word	0x20000a04
 8006f0c:	20000a98 	.word	0x20000a98
 8006f10:	20000b24 	.word	0x20000b24
 8006f14:	20000a10 	.word	0x20000a10
 8006f18:	20000a1c 	.word	0x20000a1c
 8006f1c:	20000a14 	.word	0x20000a14

08006f20 <xTaskResumeAll>:
 8006f20:	e92d 43f8 	stmdb	sp!, {r3, r4, r5, r6, r7, r8, r9, lr}
 8006f24:	4c31      	ldr	r4, [pc, #196]	@ (8006fec <xTaskResumeAll+0xcc>)
 8006f26:	6823      	ldr	r3, [r4, #0]
 8006f28:	b943      	cbnz	r3, 8006f3c <xTaskResumeAll+0x1c>
 8006f2a:	f04f 0350 	mov.w	r3, #80	@ 0x50
 8006f2e:	f383 8811 	msr	BASEPRI, r3
 8006f32:	f3bf 8f6f 	isb	sy
 8006f36:	f3bf 8f4f 	dsb	sy
 8006f3a:	e7fe      	b.n	8006f3a <xTaskResumeAll+0x1a>
 8006f3c:	f000 f92a 	bl	8007194 <vPortEnterCritical>
 8006f40:	6823      	ldr	r3, [r4, #0]
 8006f42:	3b01      	subs	r3, #1
 8006f44:	6023      	str	r3, [r4, #0]
 8006f46:	6824      	ldr	r4, [r4, #0]
 8006f48:	b12c      	cbz	r4, 8006f56 <xTaskResumeAll+0x36>
 8006f4a:	2400      	movs	r4, #0
 8006f4c:	f000 f942 	bl	80071d4 <vPortExitCritical>
 8006f50:	4620      	mov	r0, r4
 8006f52:	e8bd 83f8 	ldmia.w	sp!, {r3, r4, r5, r6, r7, r8, r9, pc}
 8006f56:	4b26      	ldr	r3, [pc, #152]	@ (8006ff0 <xTaskResumeAll+0xd0>)
 8006f58:	681b      	ldr	r3, [r3, #0]
 8006f5a:	2b00      	cmp	r3, #0
 8006f5c:	d0f5      	beq.n	8006f4a <xTaskResumeAll+0x2a>
 8006f5e:	4d25      	ldr	r5, [pc, #148]	@ (8006ff4 <xTaskResumeAll+0xd4>)
 8006f60:	4e25      	ldr	r6, [pc, #148]	@ (8006ff8 <xTaskResumeAll+0xd8>)
 8006f62:	f8df 8098 	ldr.w	r8, [pc, #152]	@ 8006ffc <xTaskResumeAll+0xdc>
 8006f66:	e01f      	b.n	8006fa8 <xTaskResumeAll+0x88>
 8006f68:	68eb      	ldr	r3, [r5, #12]
 8006f6a:	2701      	movs	r7, #1
 8006f6c:	68dc      	ldr	r4, [r3, #12]
 8006f6e:	f104 0904 	add.w	r9, r4, #4
 8006f72:	f104 0018 	add.w	r0, r4, #24
 8006f76:	f7ff fd1a 	bl	80069ae <uxListRemove>
 8006f7a:	4648      	mov	r0, r9
 8006f7c:	f7ff fd17 	bl	80069ae <uxListRemove>
 8006f80:	2014      	movs	r0, #20
 8006f82:	6ae2      	ldr	r2, [r4, #44]	@ 0x2c
 8006f84:	6831      	ldr	r1, [r6, #0]
 8006f86:	fa07 f302 	lsl.w	r3, r7, r2
 8006f8a:	430b      	orrs	r3, r1
 8006f8c:	fb00 8002 	mla	r0, r0, r2, r8
 8006f90:	4649      	mov	r1, r9
 8006f92:	6033      	str	r3, [r6, #0]
 8006f94:	f7ff fce9 	bl	800696a <vListInsertEnd>
 8006f98:	4b19      	ldr	r3, [pc, #100]	@ (8007000 <xTaskResumeAll+0xe0>)
 8006f9a:	6ae2      	ldr	r2, [r4, #44]	@ 0x2c
 8006f9c:	681b      	ldr	r3, [r3, #0]
 8006f9e:	6adb      	ldr	r3, [r3, #44]	@ 0x2c
 8006fa0:	429a      	cmp	r2, r3
 8006fa2:	d301      	bcc.n	8006fa8 <xTaskResumeAll+0x88>
 8006fa4:	4b17      	ldr	r3, [pc, #92]	@ (8007004 <xTaskResumeAll+0xe4>)
 8006fa6:	601f      	str	r7, [r3, #0]
 8006fa8:	682b      	ldr	r3, [r5, #0]
 8006faa:	2b00      	cmp	r3, #0
 8006fac:	d1dc      	bne.n	8006f68 <xTaskResumeAll+0x48>
 8006fae:	b10c      	cbz	r4, 8006fb4 <xTaskResumeAll+0x94>
 8006fb0:	f7ff fdd0 	bl	8006b54 <prvResetNextTaskUnblockTime>
 8006fb4:	4d14      	ldr	r5, [pc, #80]	@ (8007008 <xTaskResumeAll+0xe8>)
 8006fb6:	682c      	ldr	r4, [r5, #0]
 8006fb8:	b144      	cbz	r4, 8006fcc <xTaskResumeAll+0xac>
 8006fba:	2701      	movs	r7, #1
 8006fbc:	4e11      	ldr	r6, [pc, #68]	@ (8007004 <xTaskResumeAll+0xe4>)
 8006fbe:	f7ff ff15 	bl	8006dec <xTaskIncrementTick>
 8006fc2:	b100      	cbz	r0, 8006fc6 <xTaskResumeAll+0xa6>
 8006fc4:	6037      	str	r7, [r6, #0]
 8006fc6:	3c01      	subs	r4, #1
 8006fc8:	d1f9      	bne.n	8006fbe <xTaskResumeAll+0x9e>
 8006fca:	602c      	str	r4, [r5, #0]
 8006fcc:	4b0d      	ldr	r3, [pc, #52]	@ (8007004 <xTaskResumeAll+0xe4>)
 8006fce:	681b      	ldr	r3, [r3, #0]
 8006fd0:	2b00      	cmp	r3, #0
 8006fd2:	d0ba      	beq.n	8006f4a <xTaskResumeAll+0x2a>
 8006fd4:	f04f 23e0 	mov.w	r3, #3758153728	@ 0xe000e000
 8006fd8:	f04f 5280 	mov.w	r2, #268435456	@ 0x10000000
 8006fdc:	f8c3 2d04 	str.w	r2, [r3, #3332]	@ 0xd04
 8006fe0:	f3bf 8f4f 	dsb	sy
 8006fe4:	f3bf 8f6f 	isb	sy
 8006fe8:	2401      	movs	r4, #1
 8006fea:	e7af      	b.n	8006f4c <xTaskResumeAll+0x2c>
 8006fec:	20000a00 	.word	0x20000a00
 8006ff0:	20000a24 	.word	0x20000a24
 8006ff4:	20000a54 	.word	0x20000a54
 8006ff8:	20000a1c 	.word	0x20000a1c
 8006ffc:	20000a98 	.word	0x20000a98
 8007000:	20000b24 	.word	0x20000b24
 8007004:	20000a10 	.word	0x20000a10
 8007008:	20000a14 	.word	0x20000a14

0800700c <vTaskDelay>:
 800700c:	b508      	push	{r3, lr}
 800700e:	b950      	cbnz	r0, 8007026 <vTaskDelay+0x1a>
 8007010:	f04f 23e0 	mov.w	r3, #3758153728	@ 0xe000e000
 8007014:	f04f 5280 	mov.w	r2, #268435456	@ 0x10000000
 8007018:	f8c3 2d04 	str.w	r2, [r3, #3332]	@ 0xd04
 800701c:	f3bf 8f4f 	dsb	sy
 8007020:	f3bf 8f6f 	isb	sy
 8007024:	bd08      	pop	{r3, pc}
 8007026:	4b0a      	ldr	r3, [pc, #40]	@ (8007050 <vTaskDelay+0x44>)
 8007028:	6819      	ldr	r1, [r3, #0]
 800702a:	b141      	cbz	r1, 800703e <vTaskDelay+0x32>
 800702c:	f04f 0350 	mov.w	r3, #80	@ 0x50
 8007030:	f383 8811 	msr	BASEPRI, r3
 8007034:	f3bf 8f6f 	isb	sy
 8007038:	f3bf 8f4f 	dsb	sy
 800703c:	e7fe      	b.n	800703c <vTaskDelay+0x30>
 800703e:	f7ff fecd 	bl	8006ddc <vTaskSuspendAll>
 8007042:	f7ff fd43 	bl	8006acc <prvAddCurrentTaskToDelayedList>
 8007046:	f7ff ff6b 	bl	8006f20 <xTaskResumeAll>
 800704a:	2800      	cmp	r0, #0
 800704c:	d0e0      	beq.n	8007010 <vTaskDelay+0x4>
 800704e:	e7e9      	b.n	8007024 <vTaskDelay+0x18>
 8007050:	20000a00 	.word	0x20000a00

08007054 <vTaskSwitchContext>:
 8007054:	4b17      	ldr	r3, [pc, #92]	@ (80070b4 <vTaskSwitchContext+0x60>)
 8007056:	b510      	push	{r4, lr}
 8007058:	681a      	ldr	r2, [r3, #0]
 800705a:	4b17      	ldr	r3, [pc, #92]	@ (80070b8 <vTaskSwitchContext+0x64>)
 800705c:	b112      	cbz	r2, 8007064 <vTaskSwitchContext+0x10>
 800705e:	2201      	movs	r2, #1
 8007060:	601a      	str	r2, [r3, #0]
 8007062:	bd10      	pop	{r4, pc}
 8007064:	601a      	str	r2, [r3, #0]
 8007066:	4b15      	ldr	r3, [pc, #84]	@ (80070bc <vTaskSwitchContext+0x68>)
 8007068:	681a      	ldr	r2, [r3, #0]
 800706a:	fab2 f282 	clz	r2, r2
 800706e:	2314      	movs	r3, #20
 8007070:	b2d2      	uxtb	r2, r2
 8007072:	f1c2 021f 	rsb	r2, r2, #31
 8007076:	4353      	muls	r3, r2
 8007078:	4911      	ldr	r1, [pc, #68]	@ (80070c0 <vTaskSwitchContext+0x6c>)
 800707a:	58cc      	ldr	r4, [r1, r3]
 800707c:	18c8      	adds	r0, r1, r3
 800707e:	b944      	cbnz	r4, 8007092 <vTaskSwitchContext+0x3e>
 8007080:	f04f 0350 	mov.w	r3, #80	@ 0x50
 8007084:	f383 8811 	msr	BASEPRI, r3
 8007088:	f3bf 8f6f 	isb	sy
 800708c:	f3bf 8f4f 	dsb	sy
 8007090:	e7fe      	b.n	8007090 <vTaskSwitchContext+0x3c>
 8007092:	6844      	ldr	r4, [r0, #4]
 8007094:	3308      	adds	r3, #8
 8007096:	6864      	ldr	r4, [r4, #4]
 8007098:	440b      	add	r3, r1
 800709a:	429c      	cmp	r4, r3
 800709c:	bf08      	it	eq
 800709e:	6863      	ldreq	r3, [r4, #4]
 80070a0:	6044      	str	r4, [r0, #4]
 80070a2:	bf08      	it	eq
 80070a4:	6043      	streq	r3, [r0, #4]
 80070a6:	2314      	movs	r3, #20
 80070a8:	fb03 1102 	mla	r1, r3, r2, r1
 80070ac:	684b      	ldr	r3, [r1, #4]
 80070ae:	68da      	ldr	r2, [r3, #12]
 80070b0:	4b04      	ldr	r3, [pc, #16]	@ (80070c4 <vTaskSwitchContext+0x70>)
 80070b2:	e7d5      	b.n	8007060 <vTaskSwitchContext+0xc>
 80070b4:	20000a00 	.word	0x20000a00
 80070b8:	20000a10 	.word	0x20000a10
 80070bc:	20000a1c 	.word	0x20000a1c
 80070c0:	20000a98 	.word	0x20000a98
 80070c4:	20000b24 	.word	0x20000b24

080070c8 <xTaskGetSchedulerState>:
 80070c8:	4b05      	ldr	r3, [pc, #20]	@ (80070e0 <xTaskGetSchedulerState+0x18>)
 80070ca:	681b      	ldr	r3, [r3, #0]
 80070cc:	b133      	cbz	r3, 80070dc <xTaskGetSchedulerState+0x14>
 80070ce:	4b05      	ldr	r3, [pc, #20]	@ (80070e4 <xTaskGetSchedulerState+0x1c>)
 80070d0:	6818      	ldr	r0, [r3, #0]
 80070d2:	fab0 f080 	clz	r0, r0
 80070d6:	0940      	lsrs	r0, r0, #5
 80070d8:	0040      	lsls	r0, r0, #1
 80070da:	4770      	bx	lr
 80070dc:	2001      	movs	r0, #1
 80070de:	4770      	bx	lr
 80070e0:	20000a18 	.word	0x20000a18
 80070e4:	20000a00 	.word	0x20000a00

080070e8 <prvPortStartFirstTask>:
 80070e8:	4806      	ldr	r0, [pc, #24]	@ (8007104 <prvPortStartFirstTask+0x1c>)
 80070ea:	6800      	ldr	r0, [r0, #0]
 80070ec:	6800      	ldr	r0, [r0, #0]
 80070ee:	f380 8808 	msr	MSP, r0
 80070f2:	b662      	cpsie	i
 80070f4:	b661      	cpsie	f
 80070f6:	f3bf 8f4f 	dsb	sy
 80070fa:	f3bf 8f6f 	isb	sy
 80070fe:	df00      	svc	0
 8007100:	bf00      	nop
 8007102:	0000      	.short	0x0000
 8007104:	e000ed08 	.word	0xe000ed08

08007108 <prvTaskExitError>:
 8007108:	2300      	movs	r3, #0
 800710a:	b082      	sub	sp, #8
 800710c:	9301      	str	r3, [sp, #4]
 800710e:	4b0d      	ldr	r3, [pc, #52]	@ (8007144 <prvTaskExitError+0x3c>)
 8007110:	681b      	ldr	r3, [r3, #0]
 8007112:	3301      	adds	r3, #1
 8007114:	d008      	beq.n	8007128 <prvTaskExitError+0x20>
 8007116:	f04f 0350 	mov.w	r3, #80	@ 0x50
 800711a:	f383 8811 	msr	BASEPRI, r3
 800711e:	f3bf 8f6f 	isb	sy
 8007122:	f3bf 8f4f 	dsb	sy
 8007126:	e7fe      	b.n	8007126 <prvTaskExitError+0x1e>
 8007128:	f04f 0350 	mov.w	r3, #80	@ 0x50
 800712c:	f383 8811 	msr	BASEPRI, r3
 8007130:	f3bf 8f6f 	isb	sy
 8007134:	f3bf 8f4f 	dsb	sy
 8007138:	9b01      	ldr	r3, [sp, #4]
 800713a:	2b00      	cmp	r3, #0
 800713c:	d0fc      	beq.n	8007138 <prvTaskExitError+0x30>
 800713e:	b002      	add	sp, #8
 8007140:	4770      	bx	lr
 8007142:	bf00      	nop
 8007144:	20000018 	.word	0x20000018

08007148 <pxPortInitialiseStack>:
 8007148:	f04f 7380 	mov.w	r3, #16777216	@ 0x1000000
 800714c:	f840 3c04 	str.w	r3, [r0, #-4]
 8007150:	4b05      	ldr	r3, [pc, #20]	@ (8007168 <pxPortInitialiseStack+0x20>)
 8007152:	f021 0101 	bic.w	r1, r1, #1
 8007156:	f840 1c08 	str.w	r1, [r0, #-8]
 800715a:	f840 3c0c 	str.w	r3, [r0, #-12]
 800715e:	f840 2c20 	str.w	r2, [r0, #-32]
 8007162:	3840      	subs	r0, #64	@ 0x40
 8007164:	4770      	bx	lr
 8007166:	bf00      	nop
 8007168:	08007109 	.word	0x08007109
 800716c:	00000000 	.word	0x00000000

08007170 <SVC_Handler>:
 8007170:	4b07      	ldr	r3, [pc, #28]	@ (8007190 <pxCurrentTCBConst2>)
 8007172:	6819      	ldr	r1, [r3, #0]
 8007174:	6808      	ldr	r0, [r1, #0]
 8007176:	e8b0 0ff0 	ldmia.w	r0!, {r4, r5, r6, r7, r8, r9, sl, fp}
 800717a:	f380 8809 	msr	PSP, r0
 800717e:	f3bf 8f6f 	isb	sy
 8007182:	f04f 0000 	mov.w	r0, #0
 8007186:	f380 8811 	msr	BASEPRI, r0
 800718a:	f04e 0e0d 	orr.w	lr, lr, #13
 800718e:	4770      	bx	lr

08007190 <pxCurrentTCBConst2>:
 8007190:	20000b24 	.word	0x20000b24

08007194 <vPortEnterCritical>:
 8007194:	f04f 0350 	mov.w	r3, #80	@ 0x50
 8007198:	f383 8811 	msr	BASEPRI, r3
 800719c:	f3bf 8f6f 	isb	sy
 80071a0:	f3bf 8f4f 	dsb	sy
 80071a4:	4a0a      	ldr	r2, [pc, #40]	@ (80071d0 <vPortEnterCritical+0x3c>)
 80071a6:	6813      	ldr	r3, [r2, #0]
 80071a8:	3301      	adds	r3, #1
 80071aa:	2b01      	cmp	r3, #1
 80071ac:	6013      	str	r3, [r2, #0]
 80071ae:	d10e      	bne.n	80071ce <vPortEnterCritical+0x3a>
 80071b0:	f04f 23e0 	mov.w	r3, #3758153728	@ 0xe000e000
 80071b4:	f8d3 3d04 	ldr.w	r3, [r3, #3332]	@ 0xd04
 80071b8:	b2db      	uxtb	r3, r3
 80071ba:	b143      	cbz	r3, 80071ce <vPortEnterCritical+0x3a>
 80071bc:	f04f 0350 	mov.w	r3, #80	@ 0x50
 80071c0:	f383 8811 	msr	BASEPRI, r3
 80071c4:	f3bf 8f6f 	isb	sy
 80071c8:	f3bf 8f4f 	dsb	sy
 80071cc:	e7fe      	b.n	80071cc <vPortEnterCritical+0x38>
 80071ce:	4770      	bx	lr
 80071d0:	20000018 	.word	0x20000018

080071d4 <vPortExitCritical>:
 80071d4:	4a08      	ldr	r2, [pc, #32]	@ (80071f8 <vPortExitCritical+0x24>)
 80071d6:	6813      	ldr	r3, [r2, #0]
 80071d8:	b943      	cbnz	r3, 80071ec <vPortExitCritical+0x18>
 80071da:	f04f 0350 	mov.w	r3, #80	@ 0x50
 80071de:	f383 8811 	msr	BASEPRI, r3
 80071e2:	f3bf 8f6f 	isb	sy
 80071e6:	f3bf 8f4f 	dsb	sy
 80071ea:	e7fe      	b.n	80071ea <vPortExitCritical+0x16>
 80071ec:	3b01      	subs	r3, #1
 80071ee:	6013      	str	r3, [r2, #0]
 80071f0:	b90b      	cbnz	r3, 80071f6 <vPortExitCritical+0x22>
 80071f2:	f383 8811 	msr	BASEPRI, r3
 80071f6:	4770      	bx	lr
 80071f8:	20000018 	.word	0x20000018
 80071fc:	00000000 	.word	0x00000000

08007200 <PendSV_Handler>:
 8007200:	f3ef 8009 	mrs	r0, PSP
 8007204:	f3bf 8f6f 	isb	sy
 8007208:	4b0d      	ldr	r3, [pc, #52]	@ (8007240 <pxCurrentTCBConst>)
 800720a:	681a      	ldr	r2, [r3, #0]
 800720c:	e920 0ff0 	stmdb	r0!, {r4, r5, r6, r7, r8, r9, sl, fp}
 8007210:	6010      	str	r0, [r2, #0]
 8007212:	e92d 4008 	stmdb	sp!, {r3, lr}
 8007216:	f04f 0050 	mov.w	r0, #80	@ 0x50
 800721a:	f380 8811 	msr	BASEPRI, r0
 800721e:	f7ff ff19 	bl	8007054 <vTaskSwitchContext>
 8007222:	f04f 0000 	mov.w	r0, #0
 8007226:	f380 8811 	msr	BASEPRI, r0
 800722a:	e8bd 4008 	ldmia.w	sp!, {r3, lr}
 800722e:	6819      	ldr	r1, [r3, #0]
 8007230:	6808      	ldr	r0, [r1, #0]
 8007232:	e8b0 0ff0 	ldmia.w	r0!, {r4, r5, r6, r7, r8, r9, sl, fp}
 8007236:	f380 8809 	msr	PSP, r0
 800723a:	f3bf 8f6f 	isb	sy
 800723e:	4770      	bx	lr

08007240 <pxCurrentTCBConst>:
 8007240:	20000b24 	.word	0x20000b24

08007244 <xPortSysTickHandler>:
 8007244:	b508      	push	{r3, lr}
 8007246:	f04f 0350 	mov.w	r3, #80	@ 0x50
 800724a:	f383 8811 	msr	BASEPRI, r3
 800724e:	f3bf 8f6f 	isb	sy
 8007252:	f3bf 8f4f 	dsb	sy
 8007256:	f7ff fdc9 	bl	8006dec <xTaskIncrementTick>
 800725a:	b128      	cbz	r0, 8007268 <xPortSysTickHandler+0x24>
 800725c:	f04f 23e0 	mov.w	r3, #3758153728	@ 0xe000e000
 8007260:	f04f 5280 	mov.w	r2, #268435456	@ 0x10000000
 8007264:	f8c3 2d04 	str.w	r2, [r3, #3332]	@ 0xd04
 8007268:	2300      	movs	r3, #0
 800726a:	f383 8811 	msr	BASEPRI, r3
 800726e:	bd08      	pop	{r3, pc}

08007270 <vPortSetupTimerInterrupt>:
 8007270:	f04f 22e0 	mov.w	r2, #3758153728	@ 0xe000e000
 8007274:	2300      	movs	r3, #0
 8007276:	f44f 717a 	mov.w	r1, #1000	@ 0x3e8
 800727a:	6113      	str	r3, [r2, #16]
 800727c:	6193      	str	r3, [r2, #24]
 800727e:	4b04      	ldr	r3, [pc, #16]	@ (8007290 <vPortSetupTimerInterrupt+0x20>)
 8007280:	681b      	ldr	r3, [r3, #0]
 8007282:	fbb3 f3f1 	udiv	r3, r3, r1
 8007286:	3b01      	subs	r3, #1
 8007288:	6153      	str	r3, [r2, #20]
 800728a:	2307      	movs	r3, #7
 800728c:	6113      	str	r3, [r2, #16]
 800728e:	4770      	bx	lr
 8007290:	2000000c 	.word	0x2000000c

08007294 <xPortStartScheduler>:
 8007294:	b513      	push	{r0, r1, r4, lr}
 8007296:	4b27      	ldr	r3, [pc, #156]	@ (8007334 <xPortStartScheduler+0xa0>)
 8007298:	781a      	ldrb	r2, [r3, #0]
 800729a:	b2d2      	uxtb	r2, r2
 800729c:	9201      	str	r2, [sp, #4]
 800729e:	22ff      	movs	r2, #255	@ 0xff
 80072a0:	701a      	strb	r2, [r3, #0]
 80072a2:	781b      	ldrb	r3, [r3, #0]
 80072a4:	4a24      	ldr	r2, [pc, #144]	@ (8007338 <xPortStartScheduler+0xa4>)
 80072a6:	b2db      	uxtb	r3, r3
 80072a8:	f88d 3003 	strb.w	r3, [sp, #3]
 80072ac:	f89d 3003 	ldrb.w	r3, [sp, #3]
 80072b0:	f003 0350 	and.w	r3, r3, #80	@ 0x50
 80072b4:	7013      	strb	r3, [r2, #0]
 80072b6:	2307      	movs	r3, #7
 80072b8:	4a20      	ldr	r2, [pc, #128]	@ (800733c <xPortStartScheduler+0xa8>)
 80072ba:	6013      	str	r3, [r2, #0]
 80072bc:	f89d 1003 	ldrb.w	r1, [sp, #3]
 80072c0:	6813      	ldr	r3, [r2, #0]
 80072c2:	0609      	lsls	r1, r1, #24
 80072c4:	d40a      	bmi.n	80072dc <xPortStartScheduler+0x48>
 80072c6:	2b03      	cmp	r3, #3
 80072c8:	d011      	beq.n	80072ee <xPortStartScheduler+0x5a>
 80072ca:	f04f 0350 	mov.w	r3, #80	@ 0x50
 80072ce:	f383 8811 	msr	BASEPRI, r3
 80072d2:	f3bf 8f6f 	isb	sy
 80072d6:	f3bf 8f4f 	dsb	sy
 80072da:	e7fe      	b.n	80072da <xPortStartScheduler+0x46>
 80072dc:	3b01      	subs	r3, #1
 80072de:	6013      	str	r3, [r2, #0]
 80072e0:	f89d 3003 	ldrb.w	r3, [sp, #3]
 80072e4:	005b      	lsls	r3, r3, #1
 80072e6:	b2db      	uxtb	r3, r3
 80072e8:	f88d 3003 	strb.w	r3, [sp, #3]
 80072ec:	e7e6      	b.n	80072bc <xPortStartScheduler+0x28>
 80072ee:	f44f 7340 	mov.w	r3, #768	@ 0x300
 80072f2:	6013      	str	r3, [r2, #0]
 80072f4:	9b01      	ldr	r3, [sp, #4]
 80072f6:	4a0f      	ldr	r2, [pc, #60]	@ (8007334 <xPortStartScheduler+0xa0>)
 80072f8:	b2db      	uxtb	r3, r3
 80072fa:	7013      	strb	r3, [r2, #0]
 80072fc:	f04f 23e0 	mov.w	r3, #3758153728	@ 0xe000e000
 8007300:	2400      	movs	r4, #0
 8007302:	f8d3 2d20 	ldr.w	r2, [r3, #3360]	@ 0xd20
 8007306:	f442 0270 	orr.w	r2, r2, #15728640	@ 0xf00000
 800730a:	f8c3 2d20 	str.w	r2, [r3, #3360]	@ 0xd20
 800730e:	f8d3 2d20 	ldr.w	r2, [r3, #3360]	@ 0xd20
 8007312:	f042 4270 	orr.w	r2, r2, #4026531840	@ 0xf0000000
 8007316:	f8c3 2d20 	str.w	r2, [r3, #3360]	@ 0xd20
 800731a:	f7ff ffa9 	bl	8007270 <vPortSetupTimerInterrupt>
 800731e:	4b08      	ldr	r3, [pc, #32]	@ (8007340 <xPortStartScheduler+0xac>)
 8007320:	601c      	str	r4, [r3, #0]
 8007322:	f7ff fee1 	bl	80070e8 <prvPortStartFirstTask>
 8007326:	f7ff fe95 	bl	8007054 <vTaskSwitchContext>
 800732a:	4620      	mov	r0, r4
 800732c:	f7ff feec 	bl	8007108 <prvTaskExitError>
 8007330:	b002      	add	sp, #8
 8007332:	bd10      	pop	{r4, pc}
 8007334:	e000e400 	.word	0xe000e400
 8007338:	20000b2c 	.word	0x20000b2c
 800733c:	20000b28 	.word	0x20000b28
 8007340:	20000018 	.word	0x20000018

08007344 <prvInsertBlockIntoFreeList>:
 8007344:	b510      	push	{r4, lr}
 8007346:	4b10      	ldr	r3, [pc, #64]	@ (8007388 <prvInsertBlockIntoFreeList+0x44>)
 8007348:	461a      	mov	r2, r3
 800734a:	681b      	ldr	r3, [r3, #0]
 800734c:	4283      	cmp	r3, r0
 800734e:	d3fb      	bcc.n	8007348 <prvInsertBlockIntoFreeList+0x4>
 8007350:	6854      	ldr	r4, [r2, #4]
 8007352:	1911      	adds	r1, r2, r4
 8007354:	4288      	cmp	r0, r1
 8007356:	bf01      	itttt	eq
 8007358:	6841      	ldreq	r1, [r0, #4]
 800735a:	4610      	moveq	r0, r2
 800735c:	1909      	addeq	r1, r1, r4
 800735e:	6051      	streq	r1, [r2, #4]
 8007360:	6844      	ldr	r4, [r0, #4]
 8007362:	1901      	adds	r1, r0, r4
 8007364:	428b      	cmp	r3, r1
 8007366:	d10c      	bne.n	8007382 <prvInsertBlockIntoFreeList+0x3e>
 8007368:	4908      	ldr	r1, [pc, #32]	@ (800738c <prvInsertBlockIntoFreeList+0x48>)
 800736a:	6809      	ldr	r1, [r1, #0]
 800736c:	428b      	cmp	r3, r1
 800736e:	d003      	beq.n	8007378 <prvInsertBlockIntoFreeList+0x34>
 8007370:	6859      	ldr	r1, [r3, #4]
 8007372:	4421      	add	r1, r4
 8007374:	6041      	str	r1, [r0, #4]
 8007376:	6819      	ldr	r1, [r3, #0]
 8007378:	4290      	cmp	r0, r2
 800737a:	6001      	str	r1, [r0, #0]
 800737c:	bf18      	it	ne
 800737e:	6010      	strne	r0, [r2, #0]
 8007380:	bd10      	pop	{r4, pc}
 8007382:	4619      	mov	r1, r3
 8007384:	e7f8      	b.n	8007378 <prvInsertBlockIntoFreeList+0x34>
 8007386:	bf00      	nop
 8007388:	20000b48 	.word	0x20000b48
 800738c:	20000b44 	.word	0x20000b44

08007390 <pvPortMalloc>:
 8007390:	e92d 41f0 	stmdb	sp!, {r4, r5, r6, r7, r8, lr}
 8007394:	4604      	mov	r4, r0
 8007396:	f7ff fd21 	bl	8006ddc <vTaskSuspendAll>
 800739a:	4942      	ldr	r1, [pc, #264]	@ (80074a4 <pvPortMalloc+0x114>)
 800739c:	4d42      	ldr	r5, [pc, #264]	@ (80074a8 <pvPortMalloc+0x118>)
 800739e:	680b      	ldr	r3, [r1, #0]
 80073a0:	bb0b      	cbnz	r3, 80073e6 <pvPortMalloc+0x56>
 80073a2:	4a42      	ldr	r2, [pc, #264]	@ (80074ac <pvPortMalloc+0x11c>)
 80073a4:	0756      	lsls	r6, r2, #29
 80073a6:	bf1f      	itttt	ne
 80073a8:	1dd0      	addne	r0, r2, #7
 80073aa:	f020 0007 	bicne.w	r0, r0, #7
 80073ae:	f502 5220 	addne.w	r2, r2, #10240	@ 0x2800
 80073b2:	1a13      	subne	r3, r2, r0
 80073b4:	bf0c      	ite	eq
 80073b6:	f44f 5320 	moveq.w	r3, #10240	@ 0x2800
 80073ba:	4602      	movne	r2, r0
 80073bc:	2000      	movs	r0, #0
 80073be:	4413      	add	r3, r2
 80073c0:	4e3b      	ldr	r6, [pc, #236]	@ (80074b0 <pvPortMalloc+0x120>)
 80073c2:	3b08      	subs	r3, #8
 80073c4:	f023 0307 	bic.w	r3, r3, #7
 80073c8:	6070      	str	r0, [r6, #4]
 80073ca:	6032      	str	r2, [r6, #0]
 80073cc:	e9c3 0000 	strd	r0, r0, [r3]
 80073d0:	1a98      	subs	r0, r3, r2
 80073d2:	e9c2 3000 	strd	r3, r0, [r2]
 80073d6:	600b      	str	r3, [r1, #0]
 80073d8:	4b36      	ldr	r3, [pc, #216]	@ (80074b4 <pvPortMalloc+0x124>)
 80073da:	6018      	str	r0, [r3, #0]
 80073dc:	4b36      	ldr	r3, [pc, #216]	@ (80074b8 <pvPortMalloc+0x128>)
 80073de:	6018      	str	r0, [r3, #0]
 80073e0:	f04f 4300 	mov.w	r3, #2147483648	@ 0x80000000
 80073e4:	602b      	str	r3, [r5, #0]
 80073e6:	682e      	ldr	r6, [r5, #0]
 80073e8:	4226      	tst	r6, r4
 80073ea:	d155      	bne.n	8007498 <pvPortMalloc+0x108>
 80073ec:	2c00      	cmp	r4, #0
 80073ee:	d046      	beq.n	800747e <pvPortMalloc+0xee>
 80073f0:	f104 0308 	add.w	r3, r4, #8
 80073f4:	0760      	lsls	r0, r4, #29
 80073f6:	bf1c      	itt	ne
 80073f8:	f023 0307 	bicne.w	r3, r3, #7
 80073fc:	3308      	addne	r3, #8
 80073fe:	2b00      	cmp	r3, #0
 8007400:	d04a      	beq.n	8007498 <pvPortMalloc+0x108>
 8007402:	4f2d      	ldr	r7, [pc, #180]	@ (80074b8 <pvPortMalloc+0x128>)
 8007404:	683c      	ldr	r4, [r7, #0]
 8007406:	429c      	cmp	r4, r3
 8007408:	d346      	bcc.n	8007498 <pvPortMalloc+0x108>
 800740a:	4a29      	ldr	r2, [pc, #164]	@ (80074b0 <pvPortMalloc+0x120>)
 800740c:	6815      	ldr	r5, [r2, #0]
 800740e:	6868      	ldr	r0, [r5, #4]
 8007410:	4298      	cmp	r0, r3
 8007412:	d204      	bcs.n	800741e <pvPortMalloc+0x8e>
 8007414:	f8d5 c000 	ldr.w	ip, [r5]
 8007418:	f1bc 0f00 	cmp.w	ip, #0
 800741c:	d115      	bne.n	800744a <pvPortMalloc+0xba>
 800741e:	6809      	ldr	r1, [r1, #0]
 8007420:	42a9      	cmp	r1, r5
 8007422:	d039      	beq.n	8007498 <pvPortMalloc+0x108>
 8007424:	6829      	ldr	r1, [r5, #0]
 8007426:	f8d2 8000 	ldr.w	r8, [r2]
 800742a:	6011      	str	r1, [r2, #0]
 800742c:	1ac2      	subs	r2, r0, r3
 800742e:	2a10      	cmp	r2, #16
 8007430:	d912      	bls.n	8007458 <pvPortMalloc+0xc8>
 8007432:	18e8      	adds	r0, r5, r3
 8007434:	0741      	lsls	r1, r0, #29
 8007436:	d00b      	beq.n	8007450 <pvPortMalloc+0xc0>
 8007438:	f04f 0350 	mov.w	r3, #80	@ 0x50
 800743c:	f383 8811 	msr	BASEPRI, r3
 8007440:	f3bf 8f6f 	isb	sy
 8007444:	f3bf 8f4f 	dsb	sy
 8007448:	e7fe      	b.n	8007448 <pvPortMalloc+0xb8>
 800744a:	462a      	mov	r2, r5
 800744c:	4665      	mov	r5, ip
 800744e:	e7de      	b.n	800740e <pvPortMalloc+0x7e>
 8007450:	6042      	str	r2, [r0, #4]
 8007452:	606b      	str	r3, [r5, #4]
 8007454:	f7ff ff76 	bl	8007344 <prvInsertBlockIntoFreeList>
 8007458:	2300      	movs	r3, #0
 800745a:	686a      	ldr	r2, [r5, #4]
 800745c:	4915      	ldr	r1, [pc, #84]	@ (80074b4 <pvPortMalloc+0x124>)
 800745e:	1aa4      	subs	r4, r4, r2
 8007460:	4316      	orrs	r6, r2
 8007462:	4a16      	ldr	r2, [pc, #88]	@ (80074bc <pvPortMalloc+0x12c>)
 8007464:	6808      	ldr	r0, [r1, #0]
 8007466:	602b      	str	r3, [r5, #0]
 8007468:	6813      	ldr	r3, [r2, #0]
 800746a:	4284      	cmp	r4, r0
 800746c:	f103 0301 	add.w	r3, r3, #1
 8007470:	603c      	str	r4, [r7, #0]
 8007472:	bf38      	it	cc
 8007474:	600c      	strcc	r4, [r1, #0]
 8007476:	606e      	str	r6, [r5, #4]
 8007478:	f108 0408 	add.w	r4, r8, #8
 800747c:	6013      	str	r3, [r2, #0]
 800747e:	f7ff fd4f 	bl	8006f20 <xTaskResumeAll>
 8007482:	0763      	lsls	r3, r4, #29
 8007484:	d00a      	beq.n	800749c <pvPortMalloc+0x10c>
 8007486:	f04f 0350 	mov.w	r3, #80	@ 0x50
 800748a:	f383 8811 	msr	BASEPRI, r3
 800748e:	f3bf 8f6f 	isb	sy
 8007492:	f3bf 8f4f 	dsb	sy
 8007496:	e7fe      	b.n	8007496 <pvPortMalloc+0x106>
 8007498:	2400      	movs	r4, #0
 800749a:	e7f0      	b.n	800747e <pvPortMalloc+0xee>
 800749c:	4620      	mov	r0, r4
 800749e:	e8bd 81f0 	ldmia.w	sp!, {r4, r5, r6, r7, r8, pc}
 80074a2:	bf00      	nop
 80074a4:	20000b44 	.word	0x20000b44
 80074a8:	20000b30 	.word	0x20000b30
 80074ac:	20000b50 	.word	0x20000b50
 80074b0:	20000b48 	.word	0x20000b48
 80074b4:	20000b3c 	.word	0x20000b3c
 80074b8:	20000b40 	.word	0x20000b40
 80074bc:	20000b38 	.word	0x20000b38

080074c0 <vPortFree>:
 80074c0:	b510      	push	{r4, lr}
 80074c2:	4604      	mov	r4, r0
 80074c4:	b390      	cbz	r0, 800752c <vPortFree+0x6c>
 80074c6:	4a1a      	ldr	r2, [pc, #104]	@ (8007530 <vPortFree+0x70>)
 80074c8:	f850 3c04 	ldr.w	r3, [r0, #-4]
 80074cc:	6812      	ldr	r2, [r2, #0]
 80074ce:	4213      	tst	r3, r2
 80074d0:	d108      	bne.n	80074e4 <vPortFree+0x24>
 80074d2:	f04f 0350 	mov.w	r3, #80	@ 0x50
 80074d6:	f383 8811 	msr	BASEPRI, r3
 80074da:	f3bf 8f6f 	isb	sy
 80074de:	f3bf 8f4f 	dsb	sy
 80074e2:	e7fe      	b.n	80074e2 <vPortFree+0x22>
 80074e4:	f850 1c08 	ldr.w	r1, [r0, #-8]
 80074e8:	b141      	cbz	r1, 80074fc <vPortFree+0x3c>
 80074ea:	f04f 0350 	mov.w	r3, #80	@ 0x50
 80074ee:	f383 8811 	msr	BASEPRI, r3
 80074f2:	f3bf 8f6f 	isb	sy
 80074f6:	f3bf 8f4f 	dsb	sy
 80074fa:	e7fe      	b.n	80074fa <vPortFree+0x3a>
 80074fc:	ea23 0302 	bic.w	r3, r3, r2
 8007500:	f840 3c04 	str.w	r3, [r0, #-4]
 8007504:	f7ff fc6a 	bl	8006ddc <vTaskSuspendAll>
 8007508:	4a0a      	ldr	r2, [pc, #40]	@ (8007534 <vPortFree+0x74>)
 800750a:	f854 3c04 	ldr.w	r3, [r4, #-4]
 800750e:	6811      	ldr	r1, [r2, #0]
 8007510:	f1a4 0008 	sub.w	r0, r4, #8
 8007514:	440b      	add	r3, r1
 8007516:	6013      	str	r3, [r2, #0]
 8007518:	f7ff ff14 	bl	8007344 <prvInsertBlockIntoFreeList>
 800751c:	e8bd 4010 	ldmia.w	sp!, {r4, lr}
 8007520:	4a05      	ldr	r2, [pc, #20]	@ (8007538 <vPortFree+0x78>)
 8007522:	6813      	ldr	r3, [r2, #0]
 8007524:	3301      	adds	r3, #1
 8007526:	6013      	str	r3, [r2, #0]
 8007528:	f7ff bcfa 	b.w	8006f20 <xTaskResumeAll>
 800752c:	bd10      	pop	{r4, pc}
 800752e:	bf00      	nop
 8007530:	20000b30 	.word	0x20000b30
 8007534:	20000b40 	.word	0x20000b40
 8007538:	20000b34 	.word	0x20000b34

0800753c <USBD_Get_USB_Status>:
 800753c:	b118      	cbz	r0, 8007546 <USBD_Get_USB_Status+0xa>
 800753e:	2802      	cmp	r0, #2
 8007540:	bf0c      	ite	eq
 8007542:	2001      	moveq	r0, #1
 8007544:	2002      	movne	r0, #2
 8007546:	4770      	bx	lr

08007548 <HAL_PCD_SetupStageCallback>:
 8007548:	f500 7126 	add.w	r1, r0, #664	@ 0x298
 800754c:	f8d0 02d4 	ldr.w	r0, [r0, #724]	@ 0x2d4
 8007550:	f7fe be7c 	b.w	800624c <USBD_LL_SetupStage>

08007554 <HAL_PCD_DataOutStageCallback>:
 8007554:	2328      	movs	r3, #40	@ 0x28
 8007556:	fb03 0301 	mla	r3, r3, r1, r0
 800755a:	f8d0 02d4 	ldr.w	r0, [r0, #724]	@ 0x2d4
 800755e:	f8d3 2164 	ldr.w	r2, [r3, #356]	@ 0x164
 8007562:	f7fe bea0 	b.w	80062a6 <USBD_LL_DataOutStage>

08007566 <HAL_PCD_DataInStageCallback>:
 8007566:	2328      	movs	r3, #40	@ 0x28
 8007568:	fb03 0301 	mla	r3, r3, r1, r0
 800756c:	f8d0 02d4 	ldr.w	r0, [r0, #724]	@ 0x2d4
 8007570:	6a5a      	ldr	r2, [r3, #36]	@ 0x24
 8007572:	f7fe bed0 	b.w	8006316 <USBD_LL_DataInStage>

08007576 <HAL_PCD_SOFCallback>:
 8007576:	f8d0 02d4 	ldr.w	r0, [r0, #724]	@ 0x2d4
 800757a:	f7fe bf65 	b.w	8006448 <USBD_LL_SOF>

0800757e <HAL_PCD_ResetCallback>:
 800757e:	b510      	push	{r4, lr}
 8007580:	7983      	ldrb	r3, [r0, #6]
 8007582:	4604      	mov	r4, r0
 8007584:	2b02      	cmp	r3, #2
 8007586:	d001      	beq.n	800758c <HAL_PCD_ResetCallback+0xe>
 8007588:	f7fa fbee 	bl	8001d68 <Error_Handler>
 800758c:	f8d4 02d4 	ldr.w	r0, [r4, #724]	@ 0x2d4
 8007590:	2101      	movs	r1, #1
 8007592:	f7fe ff43 	bl	800641c <USBD_LL_SetSpeed>
 8007596:	f8d4 02d4 	ldr.w	r0, [r4, #724]	@ 0x2d4
 800759a:	e8bd 4010 	ldmia.w	sp!, {r4, lr}
 800759e:	f7fe bf16 	b.w	80063ce <USBD_LL_Reset>
	...

080075a4 <HAL_PCD_SuspendCallback>:
 80075a4:	b510      	push	{r4, lr}
 80075a6:	4604      	mov	r4, r0
 80075a8:	f8d0 02d4 	ldr.w	r0, [r0, #724]	@ 0x2d4
 80075ac:	f7fe ff39 	bl	8006422 <USBD_LL_Suspend>
 80075b0:	7aa3      	ldrb	r3, [r4, #10]
 80075b2:	b123      	cbz	r3, 80075be <HAL_PCD_SuspendCallback+0x1a>
 80075b4:	4a02      	ldr	r2, [pc, #8]	@ (80075c0 <HAL_PCD_SuspendCallback+0x1c>)
 80075b6:	6913      	ldr	r3, [r2, #16]
 80075b8:	f043 0306 	orr.w	r3, r3, #6
 80075bc:	6113      	str	r3, [r2, #16]
 80075be:	bd10      	pop	{r4, pc}
 80075c0:	e000ed00 	.word	0xe000ed00

080075c4 <HAL_PCD_ResumeCallback>:
 80075c4:	f8d0 02d4 	ldr.w	r0, [r0, #724]	@ 0x2d4
 80075c8:	f7fe bf34 	b.w	8006434 <USBD_LL_Resume>

080075cc <USBD_LL_OpenEP>:
 80075cc:	b510      	push	{r4, lr}
 80075ce:	4614      	mov	r4, r2
 80075d0:	f8d0 02c0 	ldr.w	r0, [r0, #704]	@ 0x2c0
 80075d4:	461a      	mov	r2, r3
 80075d6:	4623      	mov	r3, r4
 80075d8:	f7fd f848 	bl	800466c <HAL_PCD_EP_Open>
 80075dc:	e8bd 4010 	ldmia.w	sp!, {r4, lr}
 80075e0:	f7ff bfac 	b.w	800753c <USBD_Get_USB_Status>

080075e4 <USBD_LL_StallEP>:
 80075e4:	b508      	push	{r3, lr}
 80075e6:	f8d0 02c0 	ldr.w	r0, [r0, #704]	@ 0x2c0
 80075ea:	f7fd f89e 	bl	800472a <HAL_PCD_EP_SetStall>
 80075ee:	e8bd 4008 	ldmia.w	sp!, {r3, lr}
 80075f2:	f7ff bfa3 	b.w	800753c <USBD_Get_USB_Status>

080075f6 <USBD_LL_ClearStallEP>:
 80075f6:	b508      	push	{r3, lr}
 80075f8:	f8d0 02c0 	ldr.w	r0, [r0, #704]	@ 0x2c0
 80075fc:	f7fd f8cb 	bl	8004796 <HAL_PCD_EP_ClrStall>
 8007600:	e8bd 4008 	ldmia.w	sp!, {r3, lr}
 8007604:	f7ff bf9a 	b.w	800753c <USBD_Get_USB_Status>

08007608 <USBD_LL_IsStallEP>:
 8007608:	2228      	movs	r2, #40	@ 0x28
 800760a:	f011 0f80 	tst.w	r1, #128	@ 0x80
 800760e:	f8d0 32c0 	ldr.w	r3, [r0, #704]	@ 0x2c0
 8007612:	bf1b      	ittet	ne
 8007614:	f001 017f 	andne.w	r1, r1, #127	@ 0x7f
 8007618:	fb02 3301 	mlane	r3, r2, r1, r3
 800761c:	fb02 3301 	mlaeq	r3, r2, r1, r3
 8007620:	7c98      	ldrbne	r0, [r3, #18]
 8007622:	bf08      	it	eq
 8007624:	f893 0152 	ldrbeq.w	r0, [r3, #338]	@ 0x152
 8007628:	4770      	bx	lr

0800762a <USBD_LL_SetUSBAddress>:
 800762a:	b508      	push	{r3, lr}
 800762c:	f8d0 02c0 	ldr.w	r0, [r0, #704]	@ 0x2c0
 8007630:	f7fc fb04 	bl	8003c3c <HAL_PCD_SetAddress>
 8007634:	e8bd 4008 	ldmia.w	sp!, {r3, lr}
 8007638:	f7ff bf80 	b.w	800753c <USBD_Get_USB_Status>

0800763c <USBD_LL_Transmit>:
 800763c:	b508      	push	{r3, lr}
 800763e:	f8d0 02c0 	ldr.w	r0, [r0, #704]	@ 0x2c0
 8007642:	f7fd f85a 	bl	80046fa <HAL_PCD_EP_Transmit>
 8007646:	e8bd 4008 	ldmia.w	sp!, {r3, lr}
 800764a:	f7ff bf77 	b.w	800753c <USBD_Get_USB_Status>

0800764e <USBD_LL_PrepareReceive>:
 800764e:	b508      	push	{r3, lr}
 8007650:	f8d0 02c0 	ldr.w	r0, [r0, #704]	@ 0x2c0
 8007654:	f7fd f83a 	bl	80046cc <HAL_PCD_EP_Receive>
 8007658:	e8bd 4008 	ldmia.w	sp!, {r3, lr}
 800765c:	f7ff bf6e 	b.w	800753c <USBD_Get_USB_Status>

08007660 <__cvt>:
 8007660:	2b00      	cmp	r3, #0
 8007662:	e92d 47f0 	stmdb	sp!, {r4, r5, r6, r7, r8, r9, sl, lr}
 8007666:	461d      	mov	r5, r3
 8007668:	bfbb      	ittet	lt
 800766a:	f103 4300 	addlt.w	r3, r3, #2147483648	@ 0x80000000
 800766e:	461d      	movlt	r5, r3
 8007670:	2300      	movge	r3, #0
 8007672:	232d      	movlt	r3, #45	@ 0x2d
 8007674:	b088      	sub	sp, #32
 8007676:	4614      	mov	r4, r2
 8007678:	bfb8      	it	lt
 800767a:	4614      	movlt	r4, r2
 800767c:	9a12      	ldr	r2, [sp, #72]	@ 0x48
 800767e:	9e10      	ldr	r6, [sp, #64]	@ 0x40
 8007680:	7013      	strb	r3, [r2, #0]
 8007682:	9b14      	ldr	r3, [sp, #80]	@ 0x50
 8007684:	f8dd a04c 	ldr.w	sl, [sp, #76]	@ 0x4c
 8007688:	f023 0820 	bic.w	r8, r3, #32
 800768c:	f1b8 0f46 	cmp.w	r8, #70	@ 0x46
 8007690:	d005      	beq.n	800769e <__cvt+0x3e>
 8007692:	f1b8 0f45 	cmp.w	r8, #69	@ 0x45
 8007696:	d100      	bne.n	800769a <__cvt+0x3a>
 8007698:	3601      	adds	r6, #1
 800769a:	2302      	movs	r3, #2
 800769c:	e000      	b.n	80076a0 <__cvt+0x40>
 800769e:	2303      	movs	r3, #3
 80076a0:	aa07      	add	r2, sp, #28
 80076a2:	9204      	str	r2, [sp, #16]
 80076a4:	aa06      	add	r2, sp, #24
 80076a6:	e9cd a202 	strd	sl, r2, [sp, #8]
 80076aa:	e9cd 3600 	strd	r3, r6, [sp]
 80076ae:	4622      	mov	r2, r4
 80076b0:	462b      	mov	r3, r5
 80076b2:	f000 fe59 	bl	8008368 <_dtoa_r>
 80076b6:	f1b8 0f47 	cmp.w	r8, #71	@ 0x47
 80076ba:	4607      	mov	r7, r0
 80076bc:	d119      	bne.n	80076f2 <__cvt+0x92>
 80076be:	9b11      	ldr	r3, [sp, #68]	@ 0x44
 80076c0:	07db      	lsls	r3, r3, #31
 80076c2:	d50e      	bpl.n	80076e2 <__cvt+0x82>
 80076c4:	eb00 0906 	add.w	r9, r0, r6
 80076c8:	2200      	movs	r2, #0
 80076ca:	2300      	movs	r3, #0
 80076cc:	4620      	mov	r0, r4
 80076ce:	4629      	mov	r1, r5
 80076d0:	f7f9 f96a 	bl	80009a8 <__aeabi_dcmpeq>
 80076d4:	b108      	cbz	r0, 80076da <__cvt+0x7a>
 80076d6:	f8cd 901c 	str.w	r9, [sp, #28]
 80076da:	2230      	movs	r2, #48	@ 0x30
 80076dc:	9b07      	ldr	r3, [sp, #28]
 80076de:	454b      	cmp	r3, r9
 80076e0:	d31e      	bcc.n	8007720 <__cvt+0xc0>
 80076e2:	4638      	mov	r0, r7
 80076e4:	9b07      	ldr	r3, [sp, #28]
 80076e6:	9a15      	ldr	r2, [sp, #84]	@ 0x54
 80076e8:	1bdb      	subs	r3, r3, r7
 80076ea:	6013      	str	r3, [r2, #0]
 80076ec:	b008      	add	sp, #32
 80076ee:	e8bd 87f0 	ldmia.w	sp!, {r4, r5, r6, r7, r8, r9, sl, pc}
 80076f2:	f1b8 0f46 	cmp.w	r8, #70	@ 0x46
 80076f6:	eb00 0906 	add.w	r9, r0, r6
 80076fa:	d1e5      	bne.n	80076c8 <__cvt+0x68>
 80076fc:	7803      	ldrb	r3, [r0, #0]
 80076fe:	2b30      	cmp	r3, #48	@ 0x30
 8007700:	d10a      	bne.n	8007718 <__cvt+0xb8>
 8007702:	2200      	movs	r2, #0
 8007704:	2300      	movs	r3, #0
 8007706:	4620      	mov	r0, r4
 8007708:	4629      	mov	r1, r5
 800770a:	f7f9 f94d 	bl	80009a8 <__aeabi_dcmpeq>
 800770e:	b918      	cbnz	r0, 8007718 <__cvt+0xb8>
 8007710:	f1c6 0601 	rsb	r6, r6, #1
 8007714:	f8ca 6000 	str.w	r6, [sl]
 8007718:	f8da 3000 	ldr.w	r3, [sl]
 800771c:	4499      	add	r9, r3
 800771e:	e7d3      	b.n	80076c8 <__cvt+0x68>
 8007720:	1c59      	adds	r1, r3, #1
 8007722:	9107      	str	r1, [sp, #28]
 8007724:	701a      	strb	r2, [r3, #0]
 8007726:	e7d9      	b.n	80076dc <__cvt+0x7c>

08007728 <__exponent>:
 8007728:	b5f7      	push	{r0, r1, r2, r4, r5, r6, r7, lr}
 800772a:	2900      	cmp	r1, #0
 800772c:	bfb6      	itet	lt
 800772e:	232d      	movlt	r3, #45	@ 0x2d
 8007730:	232b      	movge	r3, #43	@ 0x2b
 8007732:	4249      	neglt	r1, r1
 8007734:	2909      	cmp	r1, #9
 8007736:	7002      	strb	r2, [r0, #0]
 8007738:	7043      	strb	r3, [r0, #1]
 800773a:	dd29      	ble.n	8007790 <__exponent+0x68>
 800773c:	f10d 0307 	add.w	r3, sp, #7
 8007740:	461d      	mov	r5, r3
 8007742:	270a      	movs	r7, #10
 8007744:	fbb1 f6f7 	udiv	r6, r1, r7
 8007748:	461a      	mov	r2, r3
 800774a:	fb07 1416 	mls	r4, r7, r6, r1
 800774e:	3430      	adds	r4, #48	@ 0x30
 8007750:	f802 4c01 	strb.w	r4, [r2, #-1]
 8007754:	460c      	mov	r4, r1
 8007756:	2c63      	cmp	r4, #99	@ 0x63
 8007758:	4631      	mov	r1, r6
 800775a:	f103 33ff 	add.w	r3, r3, #4294967295
 800775e:	dcf1      	bgt.n	8007744 <__exponent+0x1c>
 8007760:	3130      	adds	r1, #48	@ 0x30
 8007762:	1e94      	subs	r4, r2, #2
 8007764:	f803 1c01 	strb.w	r1, [r3, #-1]
 8007768:	4623      	mov	r3, r4
 800776a:	1c41      	adds	r1, r0, #1
 800776c:	42ab      	cmp	r3, r5
 800776e:	d30a      	bcc.n	8007786 <__exponent+0x5e>
 8007770:	f10d 0309 	add.w	r3, sp, #9
 8007774:	1a9b      	subs	r3, r3, r2
 8007776:	42ac      	cmp	r4, r5
 8007778:	bf88      	it	hi
 800777a:	2300      	movhi	r3, #0
 800777c:	3302      	adds	r3, #2
 800777e:	4403      	add	r3, r0
 8007780:	1a18      	subs	r0, r3, r0
 8007782:	b003      	add	sp, #12
 8007784:	bdf0      	pop	{r4, r5, r6, r7, pc}
 8007786:	f813 6b01 	ldrb.w	r6, [r3], #1
 800778a:	f801 6f01 	strb.w	r6, [r1, #1]!
 800778e:	e7ed      	b.n	800776c <__exponent+0x44>
 8007790:	2330      	movs	r3, #48	@ 0x30
 8007792:	3130      	adds	r1, #48	@ 0x30
 8007794:	7083      	strb	r3, [r0, #2]
 8007796:	70c1      	strb	r1, [r0, #3]
 8007798:	1d03      	adds	r3, r0, #4
 800779a:	e7f1      	b.n	8007780 <__exponent+0x58>

0800779c <_printf_float>:
 800779c:	e92d 4ff0 	stmdb	sp!, {r4, r5, r6, r7, r8, r9, sl, fp, lr}
 80077a0:	b091      	sub	sp, #68	@ 0x44
 80077a2:	460c      	mov	r4, r1
 80077a4:	f8dd 8068 	ldr.w	r8, [sp, #104]	@ 0x68
 80077a8:	4616      	mov	r6, r2
 80077aa:	461f      	mov	r7, r3
 80077ac:	4605      	mov	r5, r0
 80077ae:	f000 fcbf 	bl	8008130 <_localeconv_r>
 80077b2:	6803      	ldr	r3, [r0, #0]
 80077b4:	4618      	mov	r0, r3
 80077b6:	9308      	str	r3, [sp, #32]
 80077b8:	f7f8 fcca 	bl	8000150 <strlen>
 80077bc:	2300      	movs	r3, #0
 80077be:	930e      	str	r3, [sp, #56]	@ 0x38
 80077c0:	f8d8 3000 	ldr.w	r3, [r8]
 80077c4:	9009      	str	r0, [sp, #36]	@ 0x24
 80077c6:	3307      	adds	r3, #7
 80077c8:	f023 0307 	bic.w	r3, r3, #7
 80077cc:	f103 0208 	add.w	r2, r3, #8
 80077d0:	f894 a018 	ldrb.w	sl, [r4, #24]
 80077d4:	f8d4 b000 	ldr.w	fp, [r4]
 80077d8:	f8c8 2000 	str.w	r2, [r8]
 80077dc:	e9d3 8900 	ldrd	r8, r9, [r3]
 80077e0:	f029 4300 	bic.w	r3, r9, #2147483648	@ 0x80000000
 80077e4:	930b      	str	r3, [sp, #44]	@ 0x2c
 80077e6:	f8cd 8028 	str.w	r8, [sp, #40]	@ 0x28
 80077ea:	f04f 32ff 	mov.w	r2, #4294967295
 80077ee:	e9dd 010a 	ldrd	r0, r1, [sp, #40]	@ 0x28
 80077f2:	e9c4 8912 	strd	r8, r9, [r4, #72]	@ 0x48
 80077f6:	4b9c      	ldr	r3, [pc, #624]	@ (8007a68 <_printf_float+0x2cc>)
 80077f8:	f7f9 f908 	bl	8000a0c <__aeabi_dcmpun>
 80077fc:	bb70      	cbnz	r0, 800785c <_printf_float+0xc0>
 80077fe:	e9dd 010a 	ldrd	r0, r1, [sp, #40]	@ 0x28
 8007802:	f04f 32ff 	mov.w	r2, #4294967295
 8007806:	4b98      	ldr	r3, [pc, #608]	@ (8007a68 <_printf_float+0x2cc>)
 8007808:	f7f9 f8e2 	bl	80009d0 <__aeabi_dcmple>
 800780c:	bb30      	cbnz	r0, 800785c <_printf_float+0xc0>
 800780e:	2200      	movs	r2, #0
 8007810:	2300      	movs	r3, #0
 8007812:	4640      	mov	r0, r8
 8007814:	4649      	mov	r1, r9
 8007816:	f7f9 f8d1 	bl	80009bc <__aeabi_dcmplt>
 800781a:	b110      	cbz	r0, 8007822 <_printf_float+0x86>
 800781c:	232d      	movs	r3, #45	@ 0x2d
 800781e:	f884 3043 	strb.w	r3, [r4, #67]	@ 0x43
 8007822:	4a92      	ldr	r2, [pc, #584]	@ (8007a6c <_printf_float+0x2d0>)
 8007824:	4b92      	ldr	r3, [pc, #584]	@ (8007a70 <_printf_float+0x2d4>)
 8007826:	f1ba 0f47 	cmp.w	sl, #71	@ 0x47
 800782a:	bf8c      	ite	hi
 800782c:	4690      	movhi	r8, r2
 800782e:	4698      	movls	r8, r3
 8007830:	2303      	movs	r3, #3
 8007832:	f04f 0900 	mov.w	r9, #0
 8007836:	6123      	str	r3, [r4, #16]
 8007838:	f02b 0304 	bic.w	r3, fp, #4
 800783c:	6023      	str	r3, [r4, #0]
 800783e:	4633      	mov	r3, r6
 8007840:	4621      	mov	r1, r4
 8007842:	4628      	mov	r0, r5
 8007844:	9700      	str	r7, [sp, #0]
 8007846:	aa0f      	add	r2, sp, #60	@ 0x3c
 8007848:	f000 f9d4 	bl	8007bf4 <_printf_common>
 800784c:	3001      	adds	r0, #1
 800784e:	f040 8090 	bne.w	8007972 <_printf_float+0x1d6>
 8007852:	f04f 30ff 	mov.w	r0, #4294967295
 8007856:	b011      	add	sp, #68	@ 0x44
 8007858:	e8bd 8ff0 	ldmia.w	sp!, {r4, r5, r6, r7, r8, r9, sl, fp, pc}
 800785c:	4642      	mov	r2, r8
 800785e:	464b      	mov	r3, r9
 8007860:	4640      	mov	r0, r8
 8007862:	4649      	mov	r1, r9
 8007864:	f7f9 f8d2 	bl	8000a0c <__aeabi_dcmpun>
 8007868:	b148      	cbz	r0, 800787e <_printf_float+0xe2>
 800786a:	464b      	mov	r3, r9
 800786c:	2b00      	cmp	r3, #0
 800786e:	bfb8      	it	lt
 8007870:	232d      	movlt	r3, #45	@ 0x2d
 8007872:	4a80      	ldr	r2, [pc, #512]	@ (8007a74 <_printf_float+0x2d8>)
 8007874:	bfb8      	it	lt
 8007876:	f884 3043 	strblt.w	r3, [r4, #67]	@ 0x43
 800787a:	4b7f      	ldr	r3, [pc, #508]	@ (8007a78 <_printf_float+0x2dc>)
 800787c:	e7d3      	b.n	8007826 <_printf_float+0x8a>
 800787e:	6863      	ldr	r3, [r4, #4]
 8007880:	f00a 01df 	and.w	r1, sl, #223	@ 0xdf
 8007884:	1c5a      	adds	r2, r3, #1
 8007886:	d13f      	bne.n	8007908 <_printf_float+0x16c>
 8007888:	2306      	movs	r3, #6
 800788a:	6063      	str	r3, [r4, #4]
 800788c:	2200      	movs	r2, #0
 800788e:	f44b 6380 	orr.w	r3, fp, #1024	@ 0x400
 8007892:	6023      	str	r3, [r4, #0]
 8007894:	9206      	str	r2, [sp, #24]
 8007896:	aa0e      	add	r2, sp, #56	@ 0x38
 8007898:	e9cd a204 	strd	sl, r2, [sp, #16]
 800789c:	aa0d      	add	r2, sp, #52	@ 0x34
 800789e:	9203      	str	r2, [sp, #12]
 80078a0:	f10d 0233 	add.w	r2, sp, #51	@ 0x33
 80078a4:	e9cd 3201 	strd	r3, r2, [sp, #4]
 80078a8:	6863      	ldr	r3, [r4, #4]
 80078aa:	4642      	mov	r2, r8
 80078ac:	9300      	str	r3, [sp, #0]
 80078ae:	4628      	mov	r0, r5
 80078b0:	464b      	mov	r3, r9
 80078b2:	910a      	str	r1, [sp, #40]	@ 0x28
 80078b4:	f7ff fed4 	bl	8007660 <__cvt>
 80078b8:	990a      	ldr	r1, [sp, #40]	@ 0x28
 80078ba:	4680      	mov	r8, r0
 80078bc:	2947      	cmp	r1, #71	@ 0x47
 80078be:	990d      	ldr	r1, [sp, #52]	@ 0x34
 80078c0:	d128      	bne.n	8007914 <_printf_float+0x178>
 80078c2:	1cc8      	adds	r0, r1, #3
 80078c4:	db02      	blt.n	80078cc <_printf_float+0x130>
 80078c6:	6863      	ldr	r3, [r4, #4]
 80078c8:	4299      	cmp	r1, r3
 80078ca:	dd40      	ble.n	800794e <_printf_float+0x1b2>
 80078cc:	f1aa 0a02 	sub.w	sl, sl, #2
 80078d0:	fa5f fa8a 	uxtb.w	sl, sl
 80078d4:	4652      	mov	r2, sl
 80078d6:	3901      	subs	r1, #1
 80078d8:	f104 0050 	add.w	r0, r4, #80	@ 0x50
 80078dc:	910d      	str	r1, [sp, #52]	@ 0x34
 80078de:	f7ff ff23 	bl	8007728 <__exponent>
 80078e2:	9a0e      	ldr	r2, [sp, #56]	@ 0x38
 80078e4:	4681      	mov	r9, r0
 80078e6:	1813      	adds	r3, r2, r0
 80078e8:	2a01      	cmp	r2, #1
 80078ea:	6123      	str	r3, [r4, #16]
 80078ec:	dc02      	bgt.n	80078f4 <_printf_float+0x158>
 80078ee:	6822      	ldr	r2, [r4, #0]
 80078f0:	07d2      	lsls	r2, r2, #31
 80078f2:	d501      	bpl.n	80078f8 <_printf_float+0x15c>
 80078f4:	3301      	adds	r3, #1
 80078f6:	6123      	str	r3, [r4, #16]
 80078f8:	f89d 3033 	ldrb.w	r3, [sp, #51]	@ 0x33
 80078fc:	2b00      	cmp	r3, #0
 80078fe:	d09e      	beq.n	800783e <_printf_float+0xa2>
 8007900:	232d      	movs	r3, #45	@ 0x2d
 8007902:	f884 3043 	strb.w	r3, [r4, #67]	@ 0x43
 8007906:	e79a      	b.n	800783e <_printf_float+0xa2>
 8007908:	2947      	cmp	r1, #71	@ 0x47
 800790a:	d1bf      	bne.n	800788c <_printf_float+0xf0>
 800790c:	2b00      	cmp	r3, #0
 800790e:	d1bd      	bne.n	800788c <_printf_float+0xf0>
 8007910:	2301      	movs	r3, #1
 8007912:	e7ba      	b.n	800788a <_printf_float+0xee>
 8007914:	f1ba 0f65 	cmp.w	sl, #101	@ 0x65
 8007918:	d9dc      	bls.n	80078d4 <_printf_float+0x138>
 800791a:	f1ba 0f66 	cmp.w	sl, #102	@ 0x66
 800791e:	d118      	bne.n	8007952 <_printf_float+0x1b6>
 8007920:	2900      	cmp	r1, #0
 8007922:	6863      	ldr	r3, [r4, #4]
 8007924:	dd0b      	ble.n	800793e <_printf_float+0x1a2>
 8007926:	6121      	str	r1, [r4, #16]
 8007928:	b913      	cbnz	r3, 8007930 <_printf_float+0x194>
 800792a:	6822      	ldr	r2, [r4, #0]
 800792c:	07d0      	lsls	r0, r2, #31
 800792e:	d502      	bpl.n	8007936 <_printf_float+0x19a>
 8007930:	3301      	adds	r3, #1
 8007932:	440b      	add	r3, r1
 8007934:	6123      	str	r3, [r4, #16]
 8007936:	f04f 0900 	mov.w	r9, #0
 800793a:	65a1      	str	r1, [r4, #88]	@ 0x58
 800793c:	e7dc      	b.n	80078f8 <_printf_float+0x15c>
 800793e:	b913      	cbnz	r3, 8007946 <_printf_float+0x1aa>
 8007940:	6822      	ldr	r2, [r4, #0]
 8007942:	07d2      	lsls	r2, r2, #31
 8007944:	d501      	bpl.n	800794a <_printf_float+0x1ae>
 8007946:	3302      	adds	r3, #2
 8007948:	e7f4      	b.n	8007934 <_printf_float+0x198>
 800794a:	2301      	movs	r3, #1
 800794c:	e7f2      	b.n	8007934 <_printf_float+0x198>
 800794e:	f04f 0a67 	mov.w	sl, #103	@ 0x67
 8007952:	9b0e      	ldr	r3, [sp, #56]	@ 0x38
 8007954:	4299      	cmp	r1, r3
 8007956:	db05      	blt.n	8007964 <_printf_float+0x1c8>
 8007958:	6823      	ldr	r3, [r4, #0]
 800795a:	6121      	str	r1, [r4, #16]
 800795c:	07d8      	lsls	r0, r3, #31
 800795e:	d5ea      	bpl.n	8007936 <_printf_float+0x19a>
 8007960:	1c4b      	adds	r3, r1, #1
 8007962:	e7e7      	b.n	8007934 <_printf_float+0x198>
 8007964:	2900      	cmp	r1, #0
 8007966:	bfcc      	ite	gt
 8007968:	2201      	movgt	r2, #1
 800796a:	f1c1 0202 	rsble	r2, r1, #2
 800796e:	4413      	add	r3, r2
 8007970:	e7e0      	b.n	8007934 <_printf_float+0x198>
 8007972:	6823      	ldr	r3, [r4, #0]
 8007974:	055a      	lsls	r2, r3, #21
 8007976:	d407      	bmi.n	8007988 <_printf_float+0x1ec>
 8007978:	6923      	ldr	r3, [r4, #16]
 800797a:	4642      	mov	r2, r8
 800797c:	4631      	mov	r1, r6
 800797e:	4628      	mov	r0, r5
 8007980:	47b8      	blx	r7
 8007982:	3001      	adds	r0, #1
 8007984:	d12b      	bne.n	80079de <_printf_float+0x242>
 8007986:	e764      	b.n	8007852 <_printf_float+0xb6>
 8007988:	f1ba 0f65 	cmp.w	sl, #101	@ 0x65
 800798c:	f240 80dc 	bls.w	8007b48 <_printf_float+0x3ac>
 8007990:	e9d4 0112 	ldrd	r0, r1, [r4, #72]	@ 0x48
 8007994:	2200      	movs	r2, #0
 8007996:	2300      	movs	r3, #0
 8007998:	f7f9 f806 	bl	80009a8 <__aeabi_dcmpeq>
 800799c:	2800      	cmp	r0, #0
 800799e:	d033      	beq.n	8007a08 <_printf_float+0x26c>
 80079a0:	2301      	movs	r3, #1
 80079a2:	4631      	mov	r1, r6
 80079a4:	4628      	mov	r0, r5
 80079a6:	4a35      	ldr	r2, [pc, #212]	@ (8007a7c <_printf_float+0x2e0>)
 80079a8:	47b8      	blx	r7
 80079aa:	3001      	adds	r0, #1
 80079ac:	f43f af51 	beq.w	8007852 <_printf_float+0xb6>
 80079b0:	e9dd 380d 	ldrd	r3, r8, [sp, #52]	@ 0x34
 80079b4:	4543      	cmp	r3, r8
 80079b6:	db02      	blt.n	80079be <_printf_float+0x222>
 80079b8:	6823      	ldr	r3, [r4, #0]
 80079ba:	07d8      	lsls	r0, r3, #31
 80079bc:	d50f      	bpl.n	80079de <_printf_float+0x242>
 80079be:	e9dd 2308 	ldrd	r2, r3, [sp, #32]
 80079c2:	4631      	mov	r1, r6
 80079c4:	4628      	mov	r0, r5
 80079c6:	47b8      	blx	r7
 80079c8:	3001      	adds	r0, #1
 80079ca:	f43f af42 	beq.w	8007852 <_printf_float+0xb6>
 80079ce:	f04f 0900 	mov.w	r9, #0
 80079d2:	f108 38ff 	add.w	r8, r8, #4294967295
 80079d6:	f104 0a1a 	add.w	sl, r4, #26
 80079da:	45c8      	cmp	r8, r9
 80079dc:	dc09      	bgt.n	80079f2 <_printf_float+0x256>
 80079de:	6823      	ldr	r3, [r4, #0]
 80079e0:	079b      	lsls	r3, r3, #30
 80079e2:	f100 8102 	bmi.w	8007bea <_printf_float+0x44e>
 80079e6:	68e0      	ldr	r0, [r4, #12]
 80079e8:	9b0f      	ldr	r3, [sp, #60]	@ 0x3c
 80079ea:	4298      	cmp	r0, r3
 80079ec:	bfb8      	it	lt
 80079ee:	4618      	movlt	r0, r3
 80079f0:	e731      	b.n	8007856 <_printf_float+0xba>
 80079f2:	2301      	movs	r3, #1
 80079f4:	4652      	mov	r2, sl
 80079f6:	4631      	mov	r1, r6
 80079f8:	4628      	mov	r0, r5
 80079fa:	47b8      	blx	r7
 80079fc:	3001      	adds	r0, #1
 80079fe:	f43f af28 	beq.w	8007852 <_printf_float+0xb6>
 8007a02:	f109 0901 	add.w	r9, r9, #1
 8007a06:	e7e8      	b.n	80079da <_printf_float+0x23e>
 8007a08:	9b0d      	ldr	r3, [sp, #52]	@ 0x34
 8007a0a:	2b00      	cmp	r3, #0
 8007a0c:	dc38      	bgt.n	8007a80 <_printf_float+0x2e4>
 8007a0e:	2301      	movs	r3, #1
 8007a10:	4631      	mov	r1, r6
 8007a12:	4628      	mov	r0, r5
 8007a14:	4a19      	ldr	r2, [pc, #100]	@ (8007a7c <_printf_float+0x2e0>)
 8007a16:	47b8      	blx	r7
 8007a18:	3001      	adds	r0, #1
 8007a1a:	f43f af1a 	beq.w	8007852 <_printf_float+0xb6>
 8007a1e:	e9dd 390d 	ldrd	r3, r9, [sp, #52]	@ 0x34
 8007a22:	ea59 0303 	orrs.w	r3, r9, r3
 8007a26:	d102      	bne.n	8007a2e <_printf_float+0x292>
 8007a28:	6823      	ldr	r3, [r4, #0]
 8007a2a:	07d9      	lsls	r1, r3, #31
 8007a2c:	d5d7      	bpl.n	80079de <_printf_float+0x242>
 8007a2e:	e9dd 2308 	ldrd	r2, r3, [sp, #32]
 8007a32:	4631      	mov	r1, r6
 8007a34:	4628      	mov	r0, r5
 8007a36:	47b8      	blx	r7
 8007a38:	3001      	adds	r0, #1
 8007a3a:	f43f af0a 	beq.w	8007852 <_printf_float+0xb6>
 8007a3e:	f04f 0a00 	mov.w	sl, #0
 8007a42:	f104 0b1a 	add.w	fp, r4, #26
 8007a46:	9b0d      	ldr	r3, [sp, #52]	@ 0x34
 8007a48:	425b      	negs	r3, r3
 8007a4a:	4553      	cmp	r3, sl
 8007a4c:	dc01      	bgt.n	8007a52 <_printf_float+0x2b6>
 8007a4e:	464b      	mov	r3, r9
 8007a50:	e793      	b.n	800797a <_printf_float+0x1de>
 8007a52:	2301      	movs	r3, #1
 8007a54:	465a      	mov	r2, fp
 8007a56:	4631      	mov	r1, r6
 8007a58:	4628      	mov	r0, r5
 8007a5a:	47b8      	blx	r7
 8007a5c:	3001      	adds	r0, #1
 8007a5e:	f43f aef8 	beq.w	8007852 <_printf_float+0xb6>
 8007a62:	f10a 0a01 	add.w	sl, sl, #1
 8007a66:	e7ee      	b.n	8007a46 <_printf_float+0x2aa>
 8007a68:	7fefffff 	.word	0x7fefffff
 8007a6c:	0800a03a 	.word	0x0800a03a
 8007a70:	0800a036 	.word	0x0800a036
 8007a74:	0800a042 	.word	0x0800a042
 8007a78:	0800a03e 	.word	0x0800a03e
 8007a7c:	0800a046 	.word	0x0800a046
 8007a80:	6da3      	ldr	r3, [r4, #88]	@ 0x58
 8007a82:	f8dd a038 	ldr.w	sl, [sp, #56]	@ 0x38
 8007a86:	4553      	cmp	r3, sl
 8007a88:	bfa8      	it	ge
 8007a8a:	4653      	movge	r3, sl
 8007a8c:	2b00      	cmp	r3, #0
 8007a8e:	4699      	mov	r9, r3
 8007a90:	dc36      	bgt.n	8007b00 <_printf_float+0x364>
 8007a92:	f04f 0b00 	mov.w	fp, #0
 8007a96:	ea29 79e9 	bic.w	r9, r9, r9, asr #31
 8007a9a:	f104 021a 	add.w	r2, r4, #26
 8007a9e:	6da3      	ldr	r3, [r4, #88]	@ 0x58
 8007aa0:	930a      	str	r3, [sp, #40]	@ 0x28
 8007aa2:	eba3 0309 	sub.w	r3, r3, r9
 8007aa6:	455b      	cmp	r3, fp
 8007aa8:	dc31      	bgt.n	8007b0e <_printf_float+0x372>
 8007aaa:	9b0d      	ldr	r3, [sp, #52]	@ 0x34
 8007aac:	459a      	cmp	sl, r3
 8007aae:	dc3a      	bgt.n	8007b26 <_printf_float+0x38a>
 8007ab0:	6823      	ldr	r3, [r4, #0]
 8007ab2:	07da      	lsls	r2, r3, #31
 8007ab4:	d437      	bmi.n	8007b26 <_printf_float+0x38a>
 8007ab6:	9b0d      	ldr	r3, [sp, #52]	@ 0x34
 8007ab8:	ebaa 0903 	sub.w	r9, sl, r3
 8007abc:	9b0a      	ldr	r3, [sp, #40]	@ 0x28
 8007abe:	ebaa 0303 	sub.w	r3, sl, r3
 8007ac2:	4599      	cmp	r9, r3
 8007ac4:	bfa8      	it	ge
 8007ac6:	4699      	movge	r9, r3
 8007ac8:	f1b9 0f00 	cmp.w	r9, #0
 8007acc:	dc33      	bgt.n	8007b36 <_printf_float+0x39a>
 8007ace:	f04f 0800 	mov.w	r8, #0
 8007ad2:	ea29 79e9 	bic.w	r9, r9, r9, asr #31
 8007ad6:	f104 0b1a 	add.w	fp, r4, #26
 8007ada:	9b0d      	ldr	r3, [sp, #52]	@ 0x34
 8007adc:	ebaa 0303 	sub.w	r3, sl, r3
 8007ae0:	eba3 0309 	sub.w	r3, r3, r9
 8007ae4:	4543      	cmp	r3, r8
 8007ae6:	f77f af7a 	ble.w	80079de <_printf_float+0x242>
 8007aea:	2301      	movs	r3, #1
 8007aec:	465a      	mov	r2, fp
 8007aee:	4631      	mov	r1, r6
 8007af0:	4628      	mov	r0, r5
 8007af2:	47b8      	blx	r7
 8007af4:	3001      	adds	r0, #1
 8007af6:	f43f aeac 	beq.w	8007852 <_printf_float+0xb6>
 8007afa:	f108 0801 	add.w	r8, r8, #1
 8007afe:	e7ec      	b.n	8007ada <_printf_float+0x33e>
 8007b00:	4642      	mov	r2, r8
 8007b02:	4631      	mov	r1, r6
 8007b04:	4628      	mov	r0, r5
 8007b06:	47b8      	blx	r7
 8007b08:	3001      	adds	r0, #1
 8007b0a:	d1c2      	bne.n	8007a92 <_printf_float+0x2f6>
 8007b0c:	e6a1      	b.n	8007852 <_printf_float+0xb6>
 8007b0e:	2301      	movs	r3, #1
 8007b10:	4631      	mov	r1, r6
 8007b12:	4628      	mov	r0, r5
 8007b14:	920a      	str	r2, [sp, #40]	@ 0x28
 8007b16:	47b8      	blx	r7
 8007b18:	3001      	adds	r0, #1
 8007b1a:	f43f ae9a 	beq.w	8007852 <_printf_float+0xb6>
 8007b1e:	9a0a      	ldr	r2, [sp, #40]	@ 0x28
 8007b20:	f10b 0b01 	add.w	fp, fp, #1
 8007b24:	e7bb      	b.n	8007a9e <_printf_float+0x302>
 8007b26:	4631      	mov	r1, r6
 8007b28:	e9dd 2308 	ldrd	r2, r3, [sp, #32]
 8007b2c:	4628      	mov	r0, r5
 8007b2e:	47b8      	blx	r7
 8007b30:	3001      	adds	r0, #1
 8007b32:	d1c0      	bne.n	8007ab6 <_printf_float+0x31a>
 8007b34:	e68d      	b.n	8007852 <_printf_float+0xb6>
 8007b36:	9a0a      	ldr	r2, [sp, #40]	@ 0x28
 8007b38:	464b      	mov	r3, r9
 8007b3a:	4631      	mov	r1, r6
 8007b3c:	4628      	mov	r0, r5
 8007b3e:	4442      	add	r2, r8
 8007b40:	47b8      	blx	r7
 8007b42:	3001      	adds	r0, #1
 8007b44:	d1c3      	bne.n	8007ace <_printf_float+0x332>
 8007b46:	e684      	b.n	8007852 <_printf_float+0xb6>
 8007b48:	f8dd a038 	ldr.w	sl, [sp, #56]	@ 0x38
 8007b4c:	f1ba 0f01 	cmp.w	sl, #1
 8007b50:	dc01      	bgt.n	8007b56 <_printf_float+0x3ba>
 8007b52:	07db      	lsls	r3, r3, #31
 8007b54:	d536      	bpl.n	8007bc4 <_printf_float+0x428>
 8007b56:	2301      	movs	r3, #1
 8007b58:	4642      	mov	r2, r8
 8007b5a:	4631      	mov	r1, r6
 8007b5c:	4628      	mov	r0, r5
 8007b5e:	47b8      	blx	r7
 8007b60:	3001      	adds	r0, #1
 8007b62:	f43f ae76 	beq.w	8007852 <_printf_float+0xb6>
 8007b66:	e9dd 2308 	ldrd	r2, r3, [sp, #32]
 8007b6a:	4631      	mov	r1, r6
 8007b6c:	4628      	mov	r0, r5
 8007b6e:	47b8      	blx	r7
 8007b70:	3001      	adds	r0, #1
 8007b72:	f43f ae6e 	beq.w	8007852 <_printf_float+0xb6>
 8007b76:	e9d4 0112 	ldrd	r0, r1, [r4, #72]	@ 0x48
 8007b7a:	2200      	movs	r2, #0
 8007b7c:	2300      	movs	r3, #0
 8007b7e:	f10a 3aff 	add.w	sl, sl, #4294967295
 8007b82:	f7f8 ff11 	bl	80009a8 <__aeabi_dcmpeq>
 8007b86:	b9c0      	cbnz	r0, 8007bba <_printf_float+0x41e>
 8007b88:	4653      	mov	r3, sl
 8007b8a:	f108 0201 	add.w	r2, r8, #1
 8007b8e:	4631      	mov	r1, r6
 8007b90:	4628      	mov	r0, r5
 8007b92:	47b8      	blx	r7
 8007b94:	3001      	adds	r0, #1
 8007b96:	d10c      	bne.n	8007bb2 <_printf_float+0x416>
 8007b98:	e65b      	b.n	8007852 <_printf_float+0xb6>
 8007b9a:	2301      	movs	r3, #1
 8007b9c:	465a      	mov	r2, fp
 8007b9e:	4631      	mov	r1, r6
 8007ba0:	4628      	mov	r0, r5
 8007ba2:	47b8      	blx	r7
 8007ba4:	3001      	adds	r0, #1
 8007ba6:	f43f ae54 	beq.w	8007852 <_printf_float+0xb6>
 8007baa:	f108 0801 	add.w	r8, r8, #1
 8007bae:	45d0      	cmp	r8, sl
 8007bb0:	dbf3      	blt.n	8007b9a <_printf_float+0x3fe>
 8007bb2:	464b      	mov	r3, r9
 8007bb4:	f104 0250 	add.w	r2, r4, #80	@ 0x50
 8007bb8:	e6e0      	b.n	800797c <_printf_float+0x1e0>
 8007bba:	f04f 0800 	mov.w	r8, #0
 8007bbe:	f104 0b1a 	add.w	fp, r4, #26
 8007bc2:	e7f4      	b.n	8007bae <_printf_float+0x412>
 8007bc4:	2301      	movs	r3, #1
 8007bc6:	4642      	mov	r2, r8
 8007bc8:	e7e1      	b.n	8007b8e <_printf_float+0x3f2>
 8007bca:	2301      	movs	r3, #1
 8007bcc:	464a      	mov	r2, r9
 8007bce:	4631      	mov	r1, r6
 8007bd0:	4628      	mov	r0, r5
 8007bd2:	47b8      	blx	r7
 8007bd4:	3001      	adds	r0, #1
 8007bd6:	f43f ae3c 	beq.w	8007852 <_printf_float+0xb6>
 8007bda:	f108 0801 	add.w	r8, r8, #1
 8007bde:	68e3      	ldr	r3, [r4, #12]
 8007be0:	990f      	ldr	r1, [sp, #60]	@ 0x3c
 8007be2:	1a5b      	subs	r3, r3, r1
 8007be4:	4543      	cmp	r3, r8
 8007be6:	dcf0      	bgt.n	8007bca <_printf_float+0x42e>
 8007be8:	e6fd      	b.n	80079e6 <_printf_float+0x24a>
 8007bea:	f04f 0800 	mov.w	r8, #0
 8007bee:	f104 0919 	add.w	r9, r4, #25
 8007bf2:	e7f4      	b.n	8007bde <_printf_float+0x442>

08007bf4 <_printf_common>:
 8007bf4:	e92d 47f0 	stmdb	sp!, {r4, r5, r6, r7, r8, r9, sl, lr}
 8007bf8:	4616      	mov	r6, r2
 8007bfa:	4698      	mov	r8, r3
 8007bfc:	688a      	ldr	r2, [r1, #8]
 8007bfe:	690b      	ldr	r3, [r1, #16]
 8007c00:	4607      	mov	r7, r0
 8007c02:	4293      	cmp	r3, r2
 8007c04:	bfb8      	it	lt
 8007c06:	4613      	movlt	r3, r2
 8007c08:	6033      	str	r3, [r6, #0]
 8007c0a:	f891 2043 	ldrb.w	r2, [r1, #67]	@ 0x43
 8007c0e:	460c      	mov	r4, r1
 8007c10:	f8dd 9020 	ldr.w	r9, [sp, #32]
 8007c14:	b10a      	cbz	r2, 8007c1a <_printf_common+0x26>
 8007c16:	3301      	adds	r3, #1
 8007c18:	6033      	str	r3, [r6, #0]
 8007c1a:	6823      	ldr	r3, [r4, #0]
 8007c1c:	0699      	lsls	r1, r3, #26
 8007c1e:	bf42      	ittt	mi
 8007c20:	6833      	ldrmi	r3, [r6, #0]
 8007c22:	3302      	addmi	r3, #2
 8007c24:	6033      	strmi	r3, [r6, #0]
 8007c26:	6825      	ldr	r5, [r4, #0]
 8007c28:	f015 0506 	ands.w	r5, r5, #6
 8007c2c:	d106      	bne.n	8007c3c <_printf_common+0x48>
 8007c2e:	f104 0a19 	add.w	sl, r4, #25
 8007c32:	68e3      	ldr	r3, [r4, #12]
 8007c34:	6832      	ldr	r2, [r6, #0]
 8007c36:	1a9b      	subs	r3, r3, r2
 8007c38:	42ab      	cmp	r3, r5
 8007c3a:	dc2b      	bgt.n	8007c94 <_printf_common+0xa0>
 8007c3c:	f894 3043 	ldrb.w	r3, [r4, #67]	@ 0x43
 8007c40:	6822      	ldr	r2, [r4, #0]
 8007c42:	3b00      	subs	r3, #0
 8007c44:	bf18      	it	ne
 8007c46:	2301      	movne	r3, #1
 8007c48:	0692      	lsls	r2, r2, #26
 8007c4a:	d430      	bmi.n	8007cae <_printf_common+0xba>
 8007c4c:	4641      	mov	r1, r8
 8007c4e:	4638      	mov	r0, r7
 8007c50:	f104 0243 	add.w	r2, r4, #67	@ 0x43
 8007c54:	47c8      	blx	r9
 8007c56:	3001      	adds	r0, #1
 8007c58:	d023      	beq.n	8007ca2 <_printf_common+0xae>
 8007c5a:	6823      	ldr	r3, [r4, #0]
 8007c5c:	6922      	ldr	r2, [r4, #16]
 8007c5e:	f003 0306 	and.w	r3, r3, #6
 8007c62:	2b04      	cmp	r3, #4
 8007c64:	bf14      	ite	ne
 8007c66:	2500      	movne	r5, #0
 8007c68:	6833      	ldreq	r3, [r6, #0]
 8007c6a:	f04f 0600 	mov.w	r6, #0
 8007c6e:	bf08      	it	eq
 8007c70:	68e5      	ldreq	r5, [r4, #12]
 8007c72:	f104 041a 	add.w	r4, r4, #26
 8007c76:	bf08      	it	eq
 8007c78:	1aed      	subeq	r5, r5, r3
 8007c7a:	f854 3c12 	ldr.w	r3, [r4, #-18]
 8007c7e:	bf08      	it	eq
 8007c80:	ea25 75e5 	biceq.w	r5, r5, r5, asr #31
 8007c84:	4293      	cmp	r3, r2
 8007c86:	bfc4      	itt	gt
 8007c88:	1a9b      	subgt	r3, r3, r2
 8007c8a:	18ed      	addgt	r5, r5, r3
 8007c8c:	42b5      	cmp	r5, r6
 8007c8e:	d11a      	bne.n	8007cc6 <_printf_common+0xd2>
 8007c90:	2000      	movs	r0, #0
 8007c92:	e008      	b.n	8007ca6 <_printf_common+0xb2>
 8007c94:	2301      	movs	r3, #1
 8007c96:	4652      	mov	r2, sl
 8007c98:	4641      	mov	r1, r8
 8007c9a:	4638      	mov	r0, r7
 8007c9c:	47c8      	blx	r9
 8007c9e:	3001      	adds	r0, #1
 8007ca0:	d103      	bne.n	8007caa <_printf_common+0xb6>
 8007ca2:	f04f 30ff 	mov.w	r0, #4294967295
 8007ca6:	e8bd 87f0 	ldmia.w	sp!, {r4, r5, r6, r7, r8, r9, sl, pc}
 8007caa:	3501      	adds	r5, #1
 8007cac:	e7c1      	b.n	8007c32 <_printf_common+0x3e>
 8007cae:	2030      	movs	r0, #48	@ 0x30
 8007cb0:	18e1      	adds	r1, r4, r3
 8007cb2:	f881 0043 	strb.w	r0, [r1, #67]	@ 0x43
 8007cb6:	1c5a      	adds	r2, r3, #1
 8007cb8:	f894 1045 	ldrb.w	r1, [r4, #69]	@ 0x45
 8007cbc:	4422      	add	r2, r4
 8007cbe:	3302      	adds	r3, #2
 8007cc0:	f882 1043 	strb.w	r1, [r2, #67]	@ 0x43
 8007cc4:	e7c2      	b.n	8007c4c <_printf_common+0x58>
 8007cc6:	2301      	movs	r3, #1
 8007cc8:	4622      	mov	r2, r4
 8007cca:	4641      	mov	r1, r8
 8007ccc:	4638      	mov	r0, r7
 8007cce:	47c8      	blx	r9
 8007cd0:	3001      	adds	r0, #1
 8007cd2:	d0e6      	beq.n	8007ca2 <_printf_common+0xae>
 8007cd4:	3601      	adds	r6, #1
 8007cd6:	e7d9      	b.n	8007c8c <_printf_common+0x98>

08007cd8 <_printf_i>:
 8007cd8:	e92d 47ff 	stmdb	sp!, {r0, r1, r2, r3, r4, r5, r6, r7, r8, r9, sl, lr}
 8007cdc:	7e0f      	ldrb	r7, [r1, #24]
 8007cde:	4691      	mov	r9, r2
 8007ce0:	2f78      	cmp	r7, #120	@ 0x78
 8007ce2:	4680      	mov	r8, r0
 8007ce4:	460c      	mov	r4, r1
 8007ce6:	469a      	mov	sl, r3
 8007ce8:	9e0c      	ldr	r6, [sp, #48]	@ 0x30
 8007cea:	f101 0243 	add.w	r2, r1, #67	@ 0x43
 8007cee:	d807      	bhi.n	8007d00 <_printf_i+0x28>
 8007cf0:	2f62      	cmp	r7, #98	@ 0x62
 8007cf2:	d80a      	bhi.n	8007d0a <_printf_i+0x32>
 8007cf4:	2f00      	cmp	r7, #0
 8007cf6:	f000 80d1 	beq.w	8007e9c <_printf_i+0x1c4>
 8007cfa:	2f58      	cmp	r7, #88	@ 0x58
 8007cfc:	f000 80b8 	beq.w	8007e70 <_printf_i+0x198>
 8007d00:	f104 0642 	add.w	r6, r4, #66	@ 0x42
 8007d04:	f884 7042 	strb.w	r7, [r4, #66]	@ 0x42
 8007d08:	e03a      	b.n	8007d80 <_printf_i+0xa8>
 8007d0a:	f1a7 0363 	sub.w	r3, r7, #99	@ 0x63
 8007d0e:	2b15      	cmp	r3, #21
 8007d10:	d8f6      	bhi.n	8007d00 <_printf_i+0x28>
 8007d12:	a101      	add	r1, pc, #4	@ (adr r1, 8007d18 <_printf_i+0x40>)
 8007d14:	f851 f023 	ldr.w	pc, [r1, r3, lsl #2]
 8007d18:	08007d71 	.word	0x08007d71
 8007d1c:	08007d85 	.word	0x08007d85
 8007d20:	08007d01 	.word	0x08007d01
 8007d24:	08007d01 	.word	0x08007d01
 8007d28:	08007d01 	.word	0x08007d01
 8007d2c:	08007d01 	.word	0x08007d01
 8007d30:	08007d85 	.word	0x08007d85
 8007d34:	08007d01 	.word	0x08007d01
 8007d38:	08007d01 	.word	0x08007d01
 8007d3c:	08007d01 	.word	0x08007d01
 8007d40:	08007d01 	.word	0x08007d01
 8007d44:	08007e83 	.word	0x08007e83
 8007d48:	08007daf 	.word	0x08007daf
 8007d4c:	08007e3d 	.word	0x08007e3d
 8007d50:	08007d01 	.word	0x08007d01
 8007d54:	08007d01 	.word	0x08007d01
 8007d58:	08007ea5 	.word	0x08007ea5
 8007d5c:	08007d01 	.word	0x08007d01
 8007d60:	08007daf 	.word	0x08007daf
 8007d64:	08007d01 	.word	0x08007d01
 8007d68:	08007d01 	.word	0x08007d01
 8007d6c:	08007e45 	.word	0x08007e45
 8007d70:	6833      	ldr	r3, [r6, #0]
 8007d72:	1d1a      	adds	r2, r3, #4
 8007d74:	681b      	ldr	r3, [r3, #0]
 8007d76:	6032      	str	r2, [r6, #0]
 8007d78:	f104 0642 	add.w	r6, r4, #66	@ 0x42
 8007d7c:	f884 3042 	strb.w	r3, [r4, #66]	@ 0x42
 8007d80:	2301      	movs	r3, #1
 8007d82:	e09c      	b.n	8007ebe <_printf_i+0x1e6>
 8007d84:	6833      	ldr	r3, [r6, #0]
 8007d86:	6820      	ldr	r0, [r4, #0]
 8007d88:	1d19      	adds	r1, r3, #4
 8007d8a:	6031      	str	r1, [r6, #0]
 8007d8c:	0606      	lsls	r6, r0, #24
 8007d8e:	d501      	bpl.n	8007d94 <_printf_i+0xbc>
 8007d90:	681d      	ldr	r5, [r3, #0]
 8007d92:	e003      	b.n	8007d9c <_printf_i+0xc4>
 8007d94:	0645      	lsls	r5, r0, #25
 8007d96:	d5fb      	bpl.n	8007d90 <_printf_i+0xb8>
 8007d98:	f9b3 5000 	ldrsh.w	r5, [r3]
 8007d9c:	2d00      	cmp	r5, #0
 8007d9e:	da03      	bge.n	8007da8 <_printf_i+0xd0>
 8007da0:	232d      	movs	r3, #45	@ 0x2d
 8007da2:	426d      	negs	r5, r5
 8007da4:	f884 3043 	strb.w	r3, [r4, #67]	@ 0x43
 8007da8:	230a      	movs	r3, #10
 8007daa:	4858      	ldr	r0, [pc, #352]	@ (8007f0c <_printf_i+0x234>)
 8007dac:	e011      	b.n	8007dd2 <_printf_i+0xfa>
 8007dae:	6821      	ldr	r1, [r4, #0]
 8007db0:	6833      	ldr	r3, [r6, #0]
 8007db2:	0608      	lsls	r0, r1, #24
 8007db4:	f853 5b04 	ldr.w	r5, [r3], #4
 8007db8:	d402      	bmi.n	8007dc0 <_printf_i+0xe8>
 8007dba:	0649      	lsls	r1, r1, #25
 8007dbc:	bf48      	it	mi
 8007dbe:	b2ad      	uxthmi	r5, r5
 8007dc0:	2f6f      	cmp	r7, #111	@ 0x6f
 8007dc2:	6033      	str	r3, [r6, #0]
 8007dc4:	bf14      	ite	ne
 8007dc6:	230a      	movne	r3, #10
 8007dc8:	2308      	moveq	r3, #8
 8007dca:	4850      	ldr	r0, [pc, #320]	@ (8007f0c <_printf_i+0x234>)
 8007dcc:	2100      	movs	r1, #0
 8007dce:	f884 1043 	strb.w	r1, [r4, #67]	@ 0x43
 8007dd2:	6866      	ldr	r6, [r4, #4]
 8007dd4:	2e00      	cmp	r6, #0
 8007dd6:	60a6      	str	r6, [r4, #8]
 8007dd8:	db05      	blt.n	8007de6 <_printf_i+0x10e>
 8007dda:	6821      	ldr	r1, [r4, #0]
 8007ddc:	432e      	orrs	r6, r5
 8007dde:	f021 0104 	bic.w	r1, r1, #4
 8007de2:	6021      	str	r1, [r4, #0]
 8007de4:	d04b      	beq.n	8007e7e <_printf_i+0x1a6>
 8007de6:	4616      	mov	r6, r2
 8007de8:	fbb5 f1f3 	udiv	r1, r5, r3
 8007dec:	fb03 5711 	mls	r7, r3, r1, r5
 8007df0:	5dc7      	ldrb	r7, [r0, r7]
 8007df2:	f806 7d01 	strb.w	r7, [r6, #-1]!
 8007df6:	462f      	mov	r7, r5
 8007df8:	42bb      	cmp	r3, r7
 8007dfa:	460d      	mov	r5, r1
 8007dfc:	d9f4      	bls.n	8007de8 <_printf_i+0x110>
 8007dfe:	2b08      	cmp	r3, #8
 8007e00:	d10b      	bne.n	8007e1a <_printf_i+0x142>
 8007e02:	6823      	ldr	r3, [r4, #0]
 8007e04:	07df      	lsls	r7, r3, #31
 8007e06:	d508      	bpl.n	8007e1a <_printf_i+0x142>
 8007e08:	6923      	ldr	r3, [r4, #16]
 8007e0a:	6861      	ldr	r1, [r4, #4]
 8007e0c:	4299      	cmp	r1, r3
 8007e0e:	bfde      	ittt	le
 8007e10:	2330      	movle	r3, #48	@ 0x30
 8007e12:	f806 3c01 	strble.w	r3, [r6, #-1]
 8007e16:	f106 36ff 	addle.w	r6, r6, #4294967295
 8007e1a:	1b92      	subs	r2, r2, r6
 8007e1c:	6122      	str	r2, [r4, #16]
 8007e1e:	464b      	mov	r3, r9
 8007e20:	4621      	mov	r1, r4
 8007e22:	4640      	mov	r0, r8
 8007e24:	f8cd a000 	str.w	sl, [sp]
 8007e28:	aa03      	add	r2, sp, #12
 8007e2a:	f7ff fee3 	bl	8007bf4 <_printf_common>
 8007e2e:	3001      	adds	r0, #1
 8007e30:	d14a      	bne.n	8007ec8 <_printf_i+0x1f0>
 8007e32:	f04f 30ff 	mov.w	r0, #4294967295
 8007e36:	b004      	add	sp, #16
 8007e38:	e8bd 87f0 	ldmia.w	sp!, {r4, r5, r6, r7, r8, r9, sl, pc}
 8007e3c:	6823      	ldr	r3, [r4, #0]
 8007e3e:	f043 0320 	orr.w	r3, r3, #32
 8007e42:	6023      	str	r3, [r4, #0]
 8007e44:	2778      	movs	r7, #120	@ 0x78
 8007e46:	4832      	ldr	r0, [pc, #200]	@ (8007f10 <_printf_i+0x238>)
 8007e48:	f884 7045 	strb.w	r7, [r4, #69]	@ 0x45
 8007e4c:	6823      	ldr	r3, [r4, #0]
 8007e4e:	6831      	ldr	r1, [r6, #0]
 8007e50:	061f      	lsls	r7, r3, #24
 8007e52:	f851 5b04 	ldr.w	r5, [r1], #4
 8007e56:	d402      	bmi.n	8007e5e <_printf_i+0x186>
 8007e58:	065f      	lsls	r7, r3, #25
 8007e5a:	bf48      	it	mi
 8007e5c:	b2ad      	uxthmi	r5, r5
 8007e5e:	6031      	str	r1, [r6, #0]
 8007e60:	07d9      	lsls	r1, r3, #31
 8007e62:	bf44      	itt	mi
 8007e64:	f043 0320 	orrmi.w	r3, r3, #32
 8007e68:	6023      	strmi	r3, [r4, #0]
 8007e6a:	b11d      	cbz	r5, 8007e74 <_printf_i+0x19c>
 8007e6c:	2310      	movs	r3, #16
 8007e6e:	e7ad      	b.n	8007dcc <_printf_i+0xf4>
 8007e70:	4826      	ldr	r0, [pc, #152]	@ (8007f0c <_printf_i+0x234>)
 8007e72:	e7e9      	b.n	8007e48 <_printf_i+0x170>
 8007e74:	6823      	ldr	r3, [r4, #0]
 8007e76:	f023 0320 	bic.w	r3, r3, #32
 8007e7a:	6023      	str	r3, [r4, #0]
 8007e7c:	e7f6      	b.n	8007e6c <_printf_i+0x194>
 8007e7e:	4616      	mov	r6, r2
 8007e80:	e7bd      	b.n	8007dfe <_printf_i+0x126>
 8007e82:	6833      	ldr	r3, [r6, #0]
 8007e84:	6825      	ldr	r5, [r4, #0]
 8007e86:	1d18      	adds	r0, r3, #4
 8007e88:	6961      	ldr	r1, [r4, #20]
 8007e8a:	6030      	str	r0, [r6, #0]
 8007e8c:	062e      	lsls	r6, r5, #24
 8007e8e:	681b      	ldr	r3, [r3, #0]
 8007e90:	d501      	bpl.n	8007e96 <_printf_i+0x1be>
 8007e92:	6019      	str	r1, [r3, #0]
 8007e94:	e002      	b.n	8007e9c <_printf_i+0x1c4>
 8007e96:	0668      	lsls	r0, r5, #25
 8007e98:	d5fb      	bpl.n	8007e92 <_printf_i+0x1ba>
 8007e9a:	8019      	strh	r1, [r3, #0]
 8007e9c:	2300      	movs	r3, #0
 8007e9e:	4616      	mov	r6, r2
 8007ea0:	6123      	str	r3, [r4, #16]
 8007ea2:	e7bc      	b.n	8007e1e <_printf_i+0x146>
 8007ea4:	6833      	ldr	r3, [r6, #0]
 8007ea6:	2100      	movs	r1, #0
 8007ea8:	1d1a      	adds	r2, r3, #4
 8007eaa:	6032      	str	r2, [r6, #0]
 8007eac:	681e      	ldr	r6, [r3, #0]
 8007eae:	6862      	ldr	r2, [r4, #4]
 8007eb0:	4630      	mov	r0, r6
 8007eb2:	f000 f9b4 	bl	800821e <memchr>
 8007eb6:	b108      	cbz	r0, 8007ebc <_printf_i+0x1e4>
 8007eb8:	1b80      	subs	r0, r0, r6
 8007eba:	6060      	str	r0, [r4, #4]
 8007ebc:	6863      	ldr	r3, [r4, #4]
 8007ebe:	6123      	str	r3, [r4, #16]
 8007ec0:	2300      	movs	r3, #0
 8007ec2:	f884 3043 	strb.w	r3, [r4, #67]	@ 0x43
 8007ec6:	e7aa      	b.n	8007e1e <_printf_i+0x146>
 8007ec8:	4632      	mov	r2, r6
 8007eca:	4649      	mov	r1, r9
 8007ecc:	4640      	mov	r0, r8
 8007ece:	6923      	ldr	r3, [r4, #16]
 8007ed0:	47d0      	blx	sl
 8007ed2:	3001      	adds	r0, #1
 8007ed4:	d0ad      	beq.n	8007e32 <_printf_i+0x15a>
 8007ed6:	6823      	ldr	r3, [r4, #0]
 8007ed8:	079b      	lsls	r3, r3, #30
 8007eda:	d413      	bmi.n	8007f04 <_printf_i+0x22c>
 8007edc:	68e0      	ldr	r0, [r4, #12]
 8007ede:	9b03      	ldr	r3, [sp, #12]
 8007ee0:	4298      	cmp	r0, r3
 8007ee2:	bfb8      	it	lt
 8007ee4:	4618      	movlt	r0, r3
 8007ee6:	e7a6      	b.n	8007e36 <_printf_i+0x15e>
 8007ee8:	2301      	movs	r3, #1
 8007eea:	4632      	mov	r2, r6
 8007eec:	4649      	mov	r1, r9
 8007eee:	4640      	mov	r0, r8
 8007ef0:	47d0      	blx	sl
 8007ef2:	3001      	adds	r0, #1
 8007ef4:	d09d      	beq.n	8007e32 <_printf_i+0x15a>
 8007ef6:	3501      	adds	r5, #1
 8007ef8:	68e3      	ldr	r3, [r4, #12]
 8007efa:	9903      	ldr	r1, [sp, #12]
 8007efc:	1a5b      	subs	r3, r3, r1
 8007efe:	42ab      	cmp	r3, r5
 8007f00:	dcf2      	bgt.n	8007ee8 <_printf_i+0x210>
 8007f02:	e7eb      	b.n	8007edc <_printf_i+0x204>
 8007f04:	2500      	movs	r5, #0
 8007f06:	f104 0619 	add.w	r6, r4, #25
 8007f0a:	e7f5      	b.n	8007ef8 <_printf_i+0x220>
 8007f0c:	0800a048 	.word	0x0800a048
 8007f10:	0800a059 	.word	0x0800a059

08007f14 <std>:
 8007f14:	2300      	movs	r3, #0
 8007f16:	b510      	push	{r4, lr}
 8007f18:	4604      	mov	r4, r0
 8007f1a:	e9c0 3300 	strd	r3, r3, [r0]
 8007f1e:	e9c0 3304 	strd	r3, r3, [r0, #16]
 8007f22:	6083      	str	r3, [r0, #8]
 8007f24:	8181      	strh	r1, [r0, #12]
 8007f26:	6643      	str	r3, [r0, #100]	@ 0x64
 8007f28:	81c2      	strh	r2, [r0, #14]
 8007f2a:	6183      	str	r3, [r0, #24]
 8007f2c:	4619      	mov	r1, r3
 8007f2e:	2208      	movs	r2, #8
 8007f30:	305c      	adds	r0, #92	@ 0x5c
 8007f32:	f000 f8f4 	bl	800811e <memset>
 8007f36:	4b0d      	ldr	r3, [pc, #52]	@ (8007f6c <std+0x58>)
 8007f38:	6224      	str	r4, [r4, #32]
 8007f3a:	6263      	str	r3, [r4, #36]	@ 0x24
 8007f3c:	4b0c      	ldr	r3, [pc, #48]	@ (8007f70 <std+0x5c>)
 8007f3e:	62a3      	str	r3, [r4, #40]	@ 0x28
 8007f40:	4b0c      	ldr	r3, [pc, #48]	@ (8007f74 <std+0x60>)
 8007f42:	62e3      	str	r3, [r4, #44]	@ 0x2c
 8007f44:	4b0c      	ldr	r3, [pc, #48]	@ (8007f78 <std+0x64>)
 8007f46:	6323      	str	r3, [r4, #48]	@ 0x30
 8007f48:	4b0c      	ldr	r3, [pc, #48]	@ (8007f7c <std+0x68>)
 8007f4a:	429c      	cmp	r4, r3
 8007f4c:	d006      	beq.n	8007f5c <std+0x48>
 8007f4e:	f103 0268 	add.w	r2, r3, #104	@ 0x68
 8007f52:	4294      	cmp	r4, r2
 8007f54:	d002      	beq.n	8007f5c <std+0x48>
 8007f56:	33d0      	adds	r3, #208	@ 0xd0
 8007f58:	429c      	cmp	r4, r3
 8007f5a:	d105      	bne.n	8007f68 <std+0x54>
 8007f5c:	f104 0058 	add.w	r0, r4, #88	@ 0x58
 8007f60:	e8bd 4010 	ldmia.w	sp!, {r4, lr}
 8007f64:	f000 b958 	b.w	8008218 <__retarget_lock_init_recursive>
 8007f68:	bd10      	pop	{r4, pc}
 8007f6a:	bf00      	nop
 8007f6c:	08008099 	.word	0x08008099
 8007f70:	080080bb 	.word	0x080080bb
 8007f74:	080080f3 	.word	0x080080f3
 8007f78:	08008117 	.word	0x08008117
 8007f7c:	20003628 	.word	0x20003628

08007f80 <stdio_exit_handler>:
 8007f80:	4a02      	ldr	r2, [pc, #8]	@ (8007f8c <stdio_exit_handler+0xc>)
 8007f82:	4903      	ldr	r1, [pc, #12]	@ (8007f90 <stdio_exit_handler+0x10>)
 8007f84:	4803      	ldr	r0, [pc, #12]	@ (8007f94 <stdio_exit_handler+0x14>)
 8007f86:	f000 b869 	b.w	800805c <_fwalk_sglue>
 8007f8a:	bf00      	nop
 8007f8c:	2000001c 	.word	0x2000001c
 8007f90:	08009901 	.word	0x08009901
 8007f94:	2000002c 	.word	0x2000002c

08007f98 <cleanup_stdio>:
 8007f98:	6841      	ldr	r1, [r0, #4]
 8007f9a:	4b0c      	ldr	r3, [pc, #48]	@ (8007fcc <cleanup_stdio+0x34>)
 8007f9c:	b510      	push	{r4, lr}
 8007f9e:	4299      	cmp	r1, r3
 8007fa0:	4604      	mov	r4, r0
 8007fa2:	d001      	beq.n	8007fa8 <cleanup_stdio+0x10>
 8007fa4:	f001 fcac 	bl	8009900 <_fflush_r>
 8007fa8:	68a1      	ldr	r1, [r4, #8]
 8007faa:	4b09      	ldr	r3, [pc, #36]	@ (8007fd0 <cleanup_stdio+0x38>)
 8007fac:	4299      	cmp	r1, r3
 8007fae:	d002      	beq.n	8007fb6 <cleanup_stdio+0x1e>
 8007fb0:	4620      	mov	r0, r4
 8007fb2:	f001 fca5 	bl	8009900 <_fflush_r>
 8007fb6:	68e1      	ldr	r1, [r4, #12]
 8007fb8:	4b06      	ldr	r3, [pc, #24]	@ (8007fd4 <cleanup_stdio+0x3c>)
 8007fba:	4299      	cmp	r1, r3
 8007fbc:	d004      	beq.n	8007fc8 <cleanup_stdio+0x30>
 8007fbe:	4620      	mov	r0, r4
 8007fc0:	e8bd 4010 	ldmia.w	sp!, {r4, lr}
 8007fc4:	f001 bc9c 	b.w	8009900 <_fflush_r>
 8007fc8:	bd10      	pop	{r4, pc}
 8007fca:	bf00      	nop
 8007fcc:	20003628 	.word	0x20003628
 8007fd0:	20003690 	.word	0x20003690
 8007fd4:	200036f8 	.word	0x200036f8

08007fd8 <global_stdio_init.part.0>:
 8007fd8:	b510      	push	{r4, lr}
 8007fda:	4b0b      	ldr	r3, [pc, #44]	@ (8008008 <global_stdio_init.part.0+0x30>)
 8007fdc:	4c0b      	ldr	r4, [pc, #44]	@ (800800c <global_stdio_init.part.0+0x34>)
 8007fde:	4a0c      	ldr	r2, [pc, #48]	@ (8008010 <global_stdio_init.part.0+0x38>)
 8007fe0:	4620      	mov	r0, r4
 8007fe2:	601a      	str	r2, [r3, #0]
 8007fe4:	2104      	movs	r1, #4
 8007fe6:	2200      	movs	r2, #0
 8007fe8:	f7ff ff94 	bl	8007f14 <std>
 8007fec:	f104 0068 	add.w	r0, r4, #104	@ 0x68
 8007ff0:	2201      	movs	r2, #1
 8007ff2:	2109      	movs	r1, #9
 8007ff4:	f7ff ff8e 	bl	8007f14 <std>
 8007ff8:	f104 00d0 	add.w	r0, r4, #208	@ 0xd0
 8007ffc:	2202      	movs	r2, #2
 8007ffe:	e8bd 4010 	ldmia.w	sp!, {r4, lr}
 8008002:	2112      	movs	r1, #18
 8008004:	f7ff bf86 	b.w	8007f14 <std>
 8008008:	20003760 	.word	0x20003760
 800800c:	20003628 	.word	0x20003628
 8008010:	08007f81 	.word	0x08007f81

08008014 <__sfp_lock_acquire>:
 8008014:	4801      	ldr	r0, [pc, #4]	@ (800801c <__sfp_lock_acquire+0x8>)
 8008016:	f000 b900 	b.w	800821a <__retarget_lock_acquire_recursive>
 800801a:	bf00      	nop
 800801c:	20003769 	.word	0x20003769

08008020 <__sfp_lock_release>:
 8008020:	4801      	ldr	r0, [pc, #4]	@ (8008028 <__sfp_lock_release+0x8>)
 8008022:	f000 b8fb 	b.w	800821c <__retarget_lock_release_recursive>
 8008026:	bf00      	nop
 8008028:	20003769 	.word	0x20003769

0800802c <__sinit>:
 800802c:	b510      	push	{r4, lr}
 800802e:	4604      	mov	r4, r0
 8008030:	f7ff fff0 	bl	8008014 <__sfp_lock_acquire>
 8008034:	6a23      	ldr	r3, [r4, #32]
 8008036:	b11b      	cbz	r3, 8008040 <__sinit+0x14>
 8008038:	e8bd 4010 	ldmia.w	sp!, {r4, lr}
 800803c:	f7ff bff0 	b.w	8008020 <__sfp_lock_release>
 8008040:	4b04      	ldr	r3, [pc, #16]	@ (8008054 <__sinit+0x28>)
 8008042:	6223      	str	r3, [r4, #32]
 8008044:	4b04      	ldr	r3, [pc, #16]	@ (8008058 <__sinit+0x2c>)
 8008046:	681b      	ldr	r3, [r3, #0]
 8008048:	2b00      	cmp	r3, #0
 800804a:	d1f5      	bne.n	8008038 <__sinit+0xc>
 800804c:	f7ff ffc4 	bl	8007fd8 <global_stdio_init.part.0>
 8008050:	e7f2      	b.n	8008038 <__sinit+0xc>
 8008052:	bf00      	nop
 8008054:	08007f99 	.word	0x08007f99
 8008058:	20003760 	.word	0x20003760

0800805c <_fwalk_sglue>:
 800805c:	e92d 43f8 	stmdb	sp!, {r3, r4, r5, r6, r7, r8, r9, lr}
 8008060:	4607      	mov	r7, r0
 8008062:	4688      	mov	r8, r1
 8008064:	4614      	mov	r4, r2
 8008066:	2600      	movs	r6, #0
 8008068:	e9d4 9501 	ldrd	r9, r5, [r4, #4]
 800806c:	f1b9 0901 	subs.w	r9, r9, #1
 8008070:	d505      	bpl.n	800807e <_fwalk_sglue+0x22>
 8008072:	6824      	ldr	r4, [r4, #0]
 8008074:	2c00      	cmp	r4, #0
 8008076:	d1f7      	bne.n	8008068 <_fwalk_sglue+0xc>
 8008078:	4630      	mov	r0, r6
 800807a:	e8bd 83f8 	ldmia.w	sp!, {r3, r4, r5, r6, r7, r8, r9, pc}
 800807e:	89ab      	ldrh	r3, [r5, #12]
 8008080:	2b01      	cmp	r3, #1
 8008082:	d907      	bls.n	8008094 <_fwalk_sglue+0x38>
 8008084:	f9b5 300e 	ldrsh.w	r3, [r5, #14]
 8008088:	3301      	adds	r3, #1
 800808a:	d003      	beq.n	8008094 <_fwalk_sglue+0x38>
 800808c:	4629      	mov	r1, r5
 800808e:	4638      	mov	r0, r7
 8008090:	47c0      	blx	r8
 8008092:	4306      	orrs	r6, r0
 8008094:	3568      	adds	r5, #104	@ 0x68
 8008096:	e7e9      	b.n	800806c <_fwalk_sglue+0x10>

08008098 <__sread>:
 8008098:	b510      	push	{r4, lr}
 800809a:	460c      	mov	r4, r1
 800809c:	f9b1 100e 	ldrsh.w	r1, [r1, #14]
 80080a0:	f000 f86c 	bl	800817c <_read_r>
 80080a4:	2800      	cmp	r0, #0
 80080a6:	bfab      	itete	ge
 80080a8:	6d63      	ldrge	r3, [r4, #84]	@ 0x54
 80080aa:	89a3      	ldrhlt	r3, [r4, #12]
 80080ac:	181b      	addge	r3, r3, r0
 80080ae:	f423 5380 	biclt.w	r3, r3, #4096	@ 0x1000
 80080b2:	bfac      	ite	ge
 80080b4:	6563      	strge	r3, [r4, #84]	@ 0x54
 80080b6:	81a3      	strhlt	r3, [r4, #12]
 80080b8:	bd10      	pop	{r4, pc}

080080ba <__swrite>:
 80080ba:	e92d 41f0 	stmdb	sp!, {r4, r5, r6, r7, r8, lr}
 80080be:	461f      	mov	r7, r3
 80080c0:	898b      	ldrh	r3, [r1, #12]
 80080c2:	4605      	mov	r5, r0
 80080c4:	05db      	lsls	r3, r3, #23
 80080c6:	460c      	mov	r4, r1
 80080c8:	4616      	mov	r6, r2
 80080ca:	d505      	bpl.n	80080d8 <__swrite+0x1e>
 80080cc:	2302      	movs	r3, #2
 80080ce:	2200      	movs	r2, #0
 80080d0:	f9b1 100e 	ldrsh.w	r1, [r1, #14]
 80080d4:	f000 f840 	bl	8008158 <_lseek_r>
 80080d8:	89a3      	ldrh	r3, [r4, #12]
 80080da:	4632      	mov	r2, r6
 80080dc:	f423 5380 	bic.w	r3, r3, #4096	@ 0x1000
 80080e0:	81a3      	strh	r3, [r4, #12]
 80080e2:	4628      	mov	r0, r5
 80080e4:	463b      	mov	r3, r7
 80080e6:	f9b4 100e 	ldrsh.w	r1, [r4, #14]
 80080ea:	e8bd 41f0 	ldmia.w	sp!, {r4, r5, r6, r7, r8, lr}
 80080ee:	f000 b857 	b.w	80081a0 <_write_r>

080080f2 <__sseek>:
 80080f2:	b510      	push	{r4, lr}
 80080f4:	460c      	mov	r4, r1
 80080f6:	f9b1 100e 	ldrsh.w	r1, [r1, #14]
 80080fa:	f000 f82d 	bl	8008158 <_lseek_r>
 80080fe:	1c43      	adds	r3, r0, #1
 8008100:	89a3      	ldrh	r3, [r4, #12]
 8008102:	bf15      	itete	ne
 8008104:	6560      	strne	r0, [r4, #84]	@ 0x54
 8008106:	f423 5380 	biceq.w	r3, r3, #4096	@ 0x1000
 800810a:	f443 5380 	orrne.w	r3, r3, #4096	@ 0x1000
 800810e:	81a3      	strheq	r3, [r4, #12]
 8008110:	bf18      	it	ne
 8008112:	81a3      	strhne	r3, [r4, #12]
 8008114:	bd10      	pop	{r4, pc}

08008116 <__sclose>:
 8008116:	f9b1 100e 	ldrsh.w	r1, [r1, #14]
 800811a:	f000 b80d 	b.w	8008138 <_close_r>

0800811e <memset>:
 800811e:	4603      	mov	r3, r0
 8008120:	4402      	add	r2, r0
 8008122:	4293      	cmp	r3, r2
 8008124:	d100      	bne.n	8008128 <memset+0xa>
 8008126:	4770      	bx	lr
 8008128:	f803 1b01 	strb.w	r1, [r3], #1
 800812c:	e7f9      	b.n	8008122 <memset+0x4>
	...

08008130 <_localeconv_r>:
 8008130:	4800      	ldr	r0, [pc, #0]	@ (8008134 <_localeconv_r+0x4>)
 8008132:	4770      	bx	lr
 8008134:	20000168 	.word	0x20000168

08008138 <_close_r>:
 8008138:	b538      	push	{r3, r4, r5, lr}
 800813a:	2300      	movs	r3, #0
 800813c:	4d05      	ldr	r5, [pc, #20]	@ (8008154 <_close_r+0x1c>)
 800813e:	4604      	mov	r4, r0
 8008140:	4608      	mov	r0, r1
 8008142:	602b      	str	r3, [r5, #0]
 8008144:	f7fa fec8 	bl	8002ed8 <_close>
 8008148:	1c43      	adds	r3, r0, #1
 800814a:	d102      	bne.n	8008152 <_close_r+0x1a>
 800814c:	682b      	ldr	r3, [r5, #0]
 800814e:	b103      	cbz	r3, 8008152 <_close_r+0x1a>
 8008150:	6023      	str	r3, [r4, #0]
 8008152:	bd38      	pop	{r3, r4, r5, pc}
 8008154:	20003764 	.word	0x20003764

08008158 <_lseek_r>:
 8008158:	b538      	push	{r3, r4, r5, lr}
 800815a:	4604      	mov	r4, r0
 800815c:	4608      	mov	r0, r1
 800815e:	4611      	mov	r1, r2
 8008160:	2200      	movs	r2, #0
 8008162:	4d05      	ldr	r5, [pc, #20]	@ (8008178 <_lseek_r+0x20>)
 8008164:	602a      	str	r2, [r5, #0]
 8008166:	461a      	mov	r2, r3
 8008168:	f7fa fec0 	bl	8002eec <_lseek>
 800816c:	1c43      	adds	r3, r0, #1
 800816e:	d102      	bne.n	8008176 <_lseek_r+0x1e>
 8008170:	682b      	ldr	r3, [r5, #0]
 8008172:	b103      	cbz	r3, 8008176 <_lseek_r+0x1e>
 8008174:	6023      	str	r3, [r4, #0]
 8008176:	bd38      	pop	{r3, r4, r5, pc}
 8008178:	20003764 	.word	0x20003764

0800817c <_read_r>:
 800817c:	b538      	push	{r3, r4, r5, lr}
 800817e:	4604      	mov	r4, r0
 8008180:	4608      	mov	r0, r1
 8008182:	4611      	mov	r1, r2
 8008184:	2200      	movs	r2, #0
 8008186:	4d05      	ldr	r5, [pc, #20]	@ (800819c <_read_r+0x20>)
 8008188:	602a      	str	r2, [r5, #0]
 800818a:	461a      	mov	r2, r3
 800818c:	f7fa fe88 	bl	8002ea0 <_read>
 8008190:	1c43      	adds	r3, r0, #1
 8008192:	d102      	bne.n	800819a <_read_r+0x1e>
 8008194:	682b      	ldr	r3, [r5, #0]
 8008196:	b103      	cbz	r3, 800819a <_read_r+0x1e>
 8008198:	6023      	str	r3, [r4, #0]
 800819a:	bd38      	pop	{r3, r4, r5, pc}
 800819c:	20003764 	.word	0x20003764

080081a0 <_write_r>:
 80081a0:	b538      	push	{r3, r4, r5, lr}
 80081a2:	4604      	mov	r4, r0
 80081a4:	4608      	mov	r0, r1
 80081a6:	4611      	mov	r1, r2
 80081a8:	2200      	movs	r2, #0
 80081aa:	4d05      	ldr	r5, [pc, #20]	@ (80081c0 <_write_r+0x20>)
 80081ac:	602a      	str	r2, [r5, #0]
 80081ae:	461a      	mov	r2, r3
 80081b0:	f7fa fe84 	bl	8002ebc <_write>
 80081b4:	1c43      	adds	r3, r0, #1
 80081b6:	d102      	bne.n	80081be <_write_r+0x1e>
 80081b8:	682b      	ldr	r3, [r5, #0]
 80081ba:	b103      	cbz	r3, 80081be <_write_r+0x1e>
 80081bc:	6023      	str	r3, [r4, #0]
 80081be:	bd38      	pop	{r3, r4, r5, pc}
 80081c0:	20003764 	.word	0x20003764

080081c4 <__errno>:
 80081c4:	4b01      	ldr	r3, [pc, #4]	@ (80081cc <__errno+0x8>)
 80081c6:	6818      	ldr	r0, [r3, #0]
 80081c8:	4770      	bx	lr
 80081ca:	bf00      	nop
 80081cc:	20000028 	.word	0x20000028

080081d0 <__libc_init_array>:
 80081d0:	b570      	push	{r4, r5, r6, lr}
 80081d2:	2600      	movs	r6, #0
 80081d4:	4d0c      	ldr	r5, [pc, #48]	@ (8008208 <__libc_init_array+0x38>)
 80081d6:	4c0d      	ldr	r4, [pc, #52]	@ (800820c <__libc_init_array+0x3c>)
 80081d8:	1b64      	subs	r4, r4, r5
 80081da:	10a4      	asrs	r4, r4, #2
 80081dc:	42a6      	cmp	r6, r4
 80081de:	d109      	bne.n	80081f4 <__libc_init_array+0x24>
 80081e0:	f001 fecc 	bl	8009f7c <_init>
 80081e4:	2600      	movs	r6, #0
 80081e6:	4d0a      	ldr	r5, [pc, #40]	@ (8008210 <__libc_init_array+0x40>)
 80081e8:	4c0a      	ldr	r4, [pc, #40]	@ (8008214 <__libc_init_array+0x44>)
 80081ea:	1b64      	subs	r4, r4, r5
 80081ec:	10a4      	asrs	r4, r4, #2
 80081ee:	42a6      	cmp	r6, r4
 80081f0:	d105      	bne.n	80081fe <__libc_init_array+0x2e>
 80081f2:	bd70      	pop	{r4, r5, r6, pc}
 80081f4:	f855 3b04 	ldr.w	r3, [r5], #4
 80081f8:	4798      	blx	r3
 80081fa:	3601      	adds	r6, #1
 80081fc:	e7ee      	b.n	80081dc <__libc_init_array+0xc>
 80081fe:	f855 3b04 	ldr.w	r3, [r5], #4
 8008202:	4798      	blx	r3
 8008204:	3601      	adds	r6, #1
 8008206:	e7f2      	b.n	80081ee <__libc_init_array+0x1e>
 8008208:	0800a3dc 	.word	0x0800a3dc
 800820c:	0800a3dc 	.word	0x0800a3dc
 8008210:	0800a3dc 	.word	0x0800a3dc
 8008214:	0800a3e0 	.word	0x0800a3e0

08008218 <__retarget_lock_init_recursive>:
 8008218:	4770      	bx	lr

0800821a <__retarget_lock_acquire_recursive>:
 800821a:	4770      	bx	lr

0800821c <__retarget_lock_release_recursive>:
 800821c:	4770      	bx	lr

0800821e <memchr>:
 800821e:	4603      	mov	r3, r0
 8008220:	b510      	push	{r4, lr}
 8008222:	b2c9      	uxtb	r1, r1
 8008224:	4402      	add	r2, r0
 8008226:	4293      	cmp	r3, r2
 8008228:	4618      	mov	r0, r3
 800822a:	d101      	bne.n	8008230 <memchr+0x12>
 800822c:	2000      	movs	r0, #0
 800822e:	e003      	b.n	8008238 <memchr+0x1a>
 8008230:	7804      	ldrb	r4, [r0, #0]
 8008232:	3301      	adds	r3, #1
 8008234:	428c      	cmp	r4, r1
 8008236:	d1f6      	bne.n	8008226 <memchr+0x8>
 8008238:	bd10      	pop	{r4, pc}

0800823a <memcpy>:
 800823a:	440a      	add	r2, r1
 800823c:	4291      	cmp	r1, r2
 800823e:	f100 33ff 	add.w	r3, r0, #4294967295
 8008242:	d100      	bne.n	8008246 <memcpy+0xc>
 8008244:	4770      	bx	lr
 8008246:	b510      	push	{r4, lr}
 8008248:	f811 4b01 	ldrb.w	r4, [r1], #1
 800824c:	4291      	cmp	r1, r2
 800824e:	f803 4f01 	strb.w	r4, [r3, #1]!
 8008252:	d1f9      	bne.n	8008248 <memcpy+0xe>
 8008254:	bd10      	pop	{r4, pc}

08008256 <quorem>:
 8008256:	e92d 4ff7 	stmdb	sp!, {r0, r1, r2, r4, r5, r6, r7, r8, r9, sl, fp, lr}
 800825a:	6903      	ldr	r3, [r0, #16]
 800825c:	690c      	ldr	r4, [r1, #16]
 800825e:	4607      	mov	r7, r0
 8008260:	42a3      	cmp	r3, r4
 8008262:	db7e      	blt.n	8008362 <quorem+0x10c>
 8008264:	3c01      	subs	r4, #1
 8008266:	00a3      	lsls	r3, r4, #2
 8008268:	f100 0514 	add.w	r5, r0, #20
 800826c:	f101 0814 	add.w	r8, r1, #20
 8008270:	9300      	str	r3, [sp, #0]
 8008272:	eb05 0384 	add.w	r3, r5, r4, lsl #2
 8008276:	9301      	str	r3, [sp, #4]
 8008278:	f858 3024 	ldr.w	r3, [r8, r4, lsl #2]
 800827c:	f855 2024 	ldr.w	r2, [r5, r4, lsl #2]
 8008280:	3301      	adds	r3, #1
 8008282:	429a      	cmp	r2, r3
 8008284:	fbb2 f6f3 	udiv	r6, r2, r3
 8008288:	eb08 0984 	add.w	r9, r8, r4, lsl #2
 800828c:	d32e      	bcc.n	80082ec <quorem+0x96>
 800828e:	f04f 0a00 	mov.w	sl, #0
 8008292:	46c4      	mov	ip, r8
 8008294:	46ae      	mov	lr, r5
 8008296:	46d3      	mov	fp, sl
 8008298:	f85c 3b04 	ldr.w	r3, [ip], #4
 800829c:	b298      	uxth	r0, r3
 800829e:	fb06 a000 	mla	r0, r6, r0, sl
 80082a2:	0c1b      	lsrs	r3, r3, #16
 80082a4:	0c02      	lsrs	r2, r0, #16
 80082a6:	fb06 2303 	mla	r3, r6, r3, r2
 80082aa:	f8de 2000 	ldr.w	r2, [lr]
 80082ae:	b280      	uxth	r0, r0
 80082b0:	b292      	uxth	r2, r2
 80082b2:	1a12      	subs	r2, r2, r0
 80082b4:	445a      	add	r2, fp
 80082b6:	f8de 0000 	ldr.w	r0, [lr]
 80082ba:	ea4f 4a13 	mov.w	sl, r3, lsr #16
 80082be:	b29b      	uxth	r3, r3
 80082c0:	ebc3 4322 	rsb	r3, r3, r2, asr #16
 80082c4:	eb03 4310 	add.w	r3, r3, r0, lsr #16
 80082c8:	b292      	uxth	r2, r2
 80082ca:	ea42 4203 	orr.w	r2, r2, r3, lsl #16
 80082ce:	45e1      	cmp	r9, ip
 80082d0:	ea4f 4b23 	mov.w	fp, r3, asr #16
 80082d4:	f84e 2b04 	str.w	r2, [lr], #4
 80082d8:	d2de      	bcs.n	8008298 <quorem+0x42>
 80082da:	9b00      	ldr	r3, [sp, #0]
 80082dc:	58eb      	ldr	r3, [r5, r3]
 80082de:	b92b      	cbnz	r3, 80082ec <quorem+0x96>
 80082e0:	9b01      	ldr	r3, [sp, #4]
 80082e2:	3b04      	subs	r3, #4
 80082e4:	429d      	cmp	r5, r3
 80082e6:	461a      	mov	r2, r3
 80082e8:	d32f      	bcc.n	800834a <quorem+0xf4>
 80082ea:	613c      	str	r4, [r7, #16]
 80082ec:	4638      	mov	r0, r7
 80082ee:	f001 f97f 	bl	80095f0 <__mcmp>
 80082f2:	2800      	cmp	r0, #0
 80082f4:	db25      	blt.n	8008342 <quorem+0xec>
 80082f6:	4629      	mov	r1, r5
 80082f8:	2000      	movs	r0, #0
 80082fa:	f858 2b04 	ldr.w	r2, [r8], #4
 80082fe:	f8d1 c000 	ldr.w	ip, [r1]
 8008302:	fa1f fe82 	uxth.w	lr, r2
 8008306:	fa1f f38c 	uxth.w	r3, ip
 800830a:	eba3 030e 	sub.w	r3, r3, lr
 800830e:	4403      	add	r3, r0
 8008310:	0c12      	lsrs	r2, r2, #16
 8008312:	ebc2 4223 	rsb	r2, r2, r3, asr #16
 8008316:	eb02 421c 	add.w	r2, r2, ip, lsr #16
 800831a:	b29b      	uxth	r3, r3
 800831c:	ea43 4302 	orr.w	r3, r3, r2, lsl #16
 8008320:	45c1      	cmp	r9, r8
 8008322:	ea4f 4022 	mov.w	r0, r2, asr #16
 8008326:	f841 3b04 	str.w	r3, [r1], #4
 800832a:	d2e6      	bcs.n	80082fa <quorem+0xa4>
 800832c:	f855 2024 	ldr.w	r2, [r5, r4, lsl #2]
 8008330:	eb05 0384 	add.w	r3, r5, r4, lsl #2
 8008334:	b922      	cbnz	r2, 8008340 <quorem+0xea>
 8008336:	3b04      	subs	r3, #4
 8008338:	429d      	cmp	r5, r3
 800833a:	461a      	mov	r2, r3
 800833c:	d30b      	bcc.n	8008356 <quorem+0x100>
 800833e:	613c      	str	r4, [r7, #16]
 8008340:	3601      	adds	r6, #1
 8008342:	4630      	mov	r0, r6
 8008344:	b003      	add	sp, #12
 8008346:	e8bd 8ff0 	ldmia.w	sp!, {r4, r5, r6, r7, r8, r9, sl, fp, pc}
 800834a:	6812      	ldr	r2, [r2, #0]
 800834c:	3b04      	subs	r3, #4
 800834e:	2a00      	cmp	r2, #0
 8008350:	d1cb      	bne.n	80082ea <quorem+0x94>
 8008352:	3c01      	subs	r4, #1
 8008354:	e7c6      	b.n	80082e4 <quorem+0x8e>
 8008356:	6812      	ldr	r2, [r2, #0]
 8008358:	3b04      	subs	r3, #4
 800835a:	2a00      	cmp	r2, #0
 800835c:	d1ef      	bne.n	800833e <quorem+0xe8>
 800835e:	3c01      	subs	r4, #1
 8008360:	e7ea      	b.n	8008338 <quorem+0xe2>
 8008362:	2000      	movs	r0, #0
 8008364:	e7ee      	b.n	8008344 <quorem+0xee>
	...

08008368 <_dtoa_r>:
 8008368:	e92d 4ff0 	stmdb	sp!, {r4, r5, r6, r7, r8, r9, sl, fp, lr}
 800836c:	4614      	mov	r4, r2
 800836e:	461d      	mov	r5, r3
 8008370:	69c7      	ldr	r7, [r0, #28]
 8008372:	b097      	sub	sp, #92	@ 0x5c
 8008374:	4681      	mov	r9, r0
 8008376:	e9cd 4506 	strd	r4, r5, [sp, #24]
 800837a:	9e23      	ldr	r6, [sp, #140]	@ 0x8c
 800837c:	b97f      	cbnz	r7, 800839e <_dtoa_r+0x36>
 800837e:	2010      	movs	r0, #16
 8008380:	f000 fe0e 	bl	8008fa0 <malloc>
 8008384:	4602      	mov	r2, r0
 8008386:	f8c9 001c 	str.w	r0, [r9, #28]
 800838a:	b920      	cbnz	r0, 8008396 <_dtoa_r+0x2e>
 800838c:	21ef      	movs	r1, #239	@ 0xef
 800838e:	4bac      	ldr	r3, [pc, #688]	@ (8008640 <_dtoa_r+0x2d8>)
 8008390:	48ac      	ldr	r0, [pc, #688]	@ (8008644 <_dtoa_r+0x2dc>)
 8008392:	f001 faed 	bl	8009970 <__assert_func>
 8008396:	e9c0 7701 	strd	r7, r7, [r0, #4]
 800839a:	6007      	str	r7, [r0, #0]
 800839c:	60c7      	str	r7, [r0, #12]
 800839e:	f8d9 301c 	ldr.w	r3, [r9, #28]
 80083a2:	6819      	ldr	r1, [r3, #0]
 80083a4:	b159      	cbz	r1, 80083be <_dtoa_r+0x56>
 80083a6:	685a      	ldr	r2, [r3, #4]
 80083a8:	2301      	movs	r3, #1
 80083aa:	4093      	lsls	r3, r2
 80083ac:	604a      	str	r2, [r1, #4]
 80083ae:	608b      	str	r3, [r1, #8]
 80083b0:	4648      	mov	r0, r9
 80083b2:	f000 feeb 	bl	800918c <_Bfree>
 80083b6:	2200      	movs	r2, #0
 80083b8:	f8d9 301c 	ldr.w	r3, [r9, #28]
 80083bc:	601a      	str	r2, [r3, #0]
 80083be:	1e2b      	subs	r3, r5, #0
 80083c0:	bfaf      	iteee	ge
 80083c2:	2300      	movge	r3, #0
 80083c4:	2201      	movlt	r2, #1
 80083c6:	f023 4300 	biclt.w	r3, r3, #2147483648	@ 0x80000000
 80083ca:	9307      	strlt	r3, [sp, #28]
 80083cc:	bfa8      	it	ge
 80083ce:	6033      	strge	r3, [r6, #0]
 80083d0:	f8dd 801c 	ldr.w	r8, [sp, #28]
 80083d4:	4b9c      	ldr	r3, [pc, #624]	@ (8008648 <_dtoa_r+0x2e0>)
 80083d6:	bfb8      	it	lt
 80083d8:	6032      	strlt	r2, [r6, #0]
 80083da:	ea33 0308 	bics.w	r3, r3, r8
 80083de:	d112      	bne.n	8008406 <_dtoa_r+0x9e>
 80083e0:	f242 730f 	movw	r3, #9999	@ 0x270f
 80083e4:	9a22      	ldr	r2, [sp, #136]	@ 0x88
 80083e6:	6013      	str	r3, [r2, #0]
 80083e8:	f3c8 0313 	ubfx	r3, r8, #0, #20
 80083ec:	4323      	orrs	r3, r4
 80083ee:	f000 855e 	beq.w	8008eae <_dtoa_r+0xb46>
 80083f2:	9b24      	ldr	r3, [sp, #144]	@ 0x90
 80083f4:	f8df a254 	ldr.w	sl, [pc, #596]	@ 800864c <_dtoa_r+0x2e4>
 80083f8:	2b00      	cmp	r3, #0
 80083fa:	f000 8560 	beq.w	8008ebe <_dtoa_r+0xb56>
 80083fe:	f10a 0303 	add.w	r3, sl, #3
 8008402:	f000 bd5a 	b.w	8008eba <_dtoa_r+0xb52>
 8008406:	e9dd 2306 	ldrd	r2, r3, [sp, #24]
 800840a:	e9cd 230c 	strd	r2, r3, [sp, #48]	@ 0x30
 800840e:	e9dd 010c 	ldrd	r0, r1, [sp, #48]	@ 0x30
 8008412:	2200      	movs	r2, #0
 8008414:	2300      	movs	r3, #0
 8008416:	f7f8 fac7 	bl	80009a8 <__aeabi_dcmpeq>
 800841a:	4607      	mov	r7, r0
 800841c:	b158      	cbz	r0, 8008436 <_dtoa_r+0xce>
 800841e:	2301      	movs	r3, #1
 8008420:	9a22      	ldr	r2, [sp, #136]	@ 0x88
 8008422:	6013      	str	r3, [r2, #0]
 8008424:	9b24      	ldr	r3, [sp, #144]	@ 0x90
 8008426:	b113      	cbz	r3, 800842e <_dtoa_r+0xc6>
 8008428:	4b89      	ldr	r3, [pc, #548]	@ (8008650 <_dtoa_r+0x2e8>)
 800842a:	9a24      	ldr	r2, [sp, #144]	@ 0x90
 800842c:	6013      	str	r3, [r2, #0]
 800842e:	f8df a224 	ldr.w	sl, [pc, #548]	@ 8008654 <_dtoa_r+0x2ec>
 8008432:	f000 bd44 	b.w	8008ebe <_dtoa_r+0xb56>
 8008436:	ab14      	add	r3, sp, #80	@ 0x50
 8008438:	9301      	str	r3, [sp, #4]
 800843a:	ab15      	add	r3, sp, #84	@ 0x54
 800843c:	9300      	str	r3, [sp, #0]
 800843e:	4648      	mov	r0, r9
 8008440:	e9dd 230c 	ldrd	r2, r3, [sp, #48]	@ 0x30
 8008444:	f001 f984 	bl	8009750 <__d2b>
 8008448:	f3c8 560a 	ubfx	r6, r8, #20, #11
 800844c:	9003      	str	r0, [sp, #12]
 800844e:	2e00      	cmp	r6, #0
 8008450:	d078      	beq.n	8008544 <_dtoa_r+0x1dc>
 8008452:	e9dd 010c 	ldrd	r0, r1, [sp, #48]	@ 0x30
 8008456:	9b0d      	ldr	r3, [sp, #52]	@ 0x34
 8008458:	f2a6 36ff 	subw	r6, r6, #1023	@ 0x3ff
 800845c:	f3c3 0313 	ubfx	r3, r3, #0, #20
 8008460:	f043 537f 	orr.w	r3, r3, #1069547520	@ 0x3fc00000
 8008464:	f443 1340 	orr.w	r3, r3, #3145728	@ 0x300000
 8008468:	9712      	str	r7, [sp, #72]	@ 0x48
 800846a:	4619      	mov	r1, r3
 800846c:	2200      	movs	r2, #0
 800846e:	4b7a      	ldr	r3, [pc, #488]	@ (8008658 <_dtoa_r+0x2f0>)
 8008470:	f7f7 fe7a 	bl	8000168 <__aeabi_dsub>
 8008474:	a36c      	add	r3, pc, #432	@ (adr r3, 8008628 <_dtoa_r+0x2c0>)
 8008476:	e9d3 2300 	ldrd	r2, r3, [r3]
 800847a:	f7f8 f82d 	bl	80004d8 <__aeabi_dmul>
 800847e:	a36c      	add	r3, pc, #432	@ (adr r3, 8008630 <_dtoa_r+0x2c8>)
 8008480:	e9d3 2300 	ldrd	r2, r3, [r3]
 8008484:	f7f7 fe72 	bl	800016c <__adddf3>
 8008488:	4604      	mov	r4, r0
 800848a:	4630      	mov	r0, r6
 800848c:	460d      	mov	r5, r1
 800848e:	f7f7 ffb9 	bl	8000404 <__aeabi_i2d>
 8008492:	a369      	add	r3, pc, #420	@ (adr r3, 8008638 <_dtoa_r+0x2d0>)
 8008494:	e9d3 2300 	ldrd	r2, r3, [r3]
 8008498:	f7f8 f81e 	bl	80004d8 <__aeabi_dmul>
 800849c:	4602      	mov	r2, r0
 800849e:	460b      	mov	r3, r1
 80084a0:	4620      	mov	r0, r4
 80084a2:	4629      	mov	r1, r5
 80084a4:	f7f7 fe62 	bl	800016c <__adddf3>
 80084a8:	4604      	mov	r4, r0
 80084aa:	460d      	mov	r5, r1
 80084ac:	f7f8 fac4 	bl	8000a38 <__aeabi_d2iz>
 80084b0:	2200      	movs	r2, #0
 80084b2:	4607      	mov	r7, r0
 80084b4:	2300      	movs	r3, #0
 80084b6:	4620      	mov	r0, r4
 80084b8:	4629      	mov	r1, r5
 80084ba:	f7f8 fa7f 	bl	80009bc <__aeabi_dcmplt>
 80084be:	b140      	cbz	r0, 80084d2 <_dtoa_r+0x16a>
 80084c0:	4638      	mov	r0, r7
 80084c2:	f7f7 ff9f 	bl	8000404 <__aeabi_i2d>
 80084c6:	4622      	mov	r2, r4
 80084c8:	462b      	mov	r3, r5
 80084ca:	f7f8 fa6d 	bl	80009a8 <__aeabi_dcmpeq>
 80084ce:	b900      	cbnz	r0, 80084d2 <_dtoa_r+0x16a>
 80084d0:	3f01      	subs	r7, #1
 80084d2:	2f16      	cmp	r7, #22
 80084d4:	d854      	bhi.n	8008580 <_dtoa_r+0x218>
 80084d6:	e9dd 010c 	ldrd	r0, r1, [sp, #48]	@ 0x30
 80084da:	4b60      	ldr	r3, [pc, #384]	@ (800865c <_dtoa_r+0x2f4>)
 80084dc:	eb03 03c7 	add.w	r3, r3, r7, lsl #3
 80084e0:	e9d3 2300 	ldrd	r2, r3, [r3]
 80084e4:	f7f8 fa6a 	bl	80009bc <__aeabi_dcmplt>
 80084e8:	2800      	cmp	r0, #0
 80084ea:	d04b      	beq.n	8008584 <_dtoa_r+0x21c>
 80084ec:	2300      	movs	r3, #0
 80084ee:	3f01      	subs	r7, #1
 80084f0:	930f      	str	r3, [sp, #60]	@ 0x3c
 80084f2:	9b14      	ldr	r3, [sp, #80]	@ 0x50
 80084f4:	1b9b      	subs	r3, r3, r6
 80084f6:	1e5a      	subs	r2, r3, #1
 80084f8:	bf49      	itett	mi
 80084fa:	f1c3 0301 	rsbmi	r3, r3, #1
 80084fe:	2300      	movpl	r3, #0
 8008500:	9304      	strmi	r3, [sp, #16]
 8008502:	2300      	movmi	r3, #0
 8008504:	9209      	str	r2, [sp, #36]	@ 0x24
 8008506:	bf54      	ite	pl
 8008508:	9304      	strpl	r3, [sp, #16]
 800850a:	9309      	strmi	r3, [sp, #36]	@ 0x24
 800850c:	2f00      	cmp	r7, #0
 800850e:	db3b      	blt.n	8008588 <_dtoa_r+0x220>
 8008510:	9b09      	ldr	r3, [sp, #36]	@ 0x24
 8008512:	970e      	str	r7, [sp, #56]	@ 0x38
 8008514:	443b      	add	r3, r7
 8008516:	9309      	str	r3, [sp, #36]	@ 0x24
 8008518:	2300      	movs	r3, #0
 800851a:	930a      	str	r3, [sp, #40]	@ 0x28
 800851c:	9b20      	ldr	r3, [sp, #128]	@ 0x80
 800851e:	2b09      	cmp	r3, #9
 8008520:	d865      	bhi.n	80085ee <_dtoa_r+0x286>
 8008522:	2b05      	cmp	r3, #5
 8008524:	bfc4      	itt	gt
 8008526:	3b04      	subgt	r3, #4
 8008528:	9320      	strgt	r3, [sp, #128]	@ 0x80
 800852a:	9b20      	ldr	r3, [sp, #128]	@ 0x80
 800852c:	bfc8      	it	gt
 800852e:	2400      	movgt	r4, #0
 8008530:	f1a3 0302 	sub.w	r3, r3, #2
 8008534:	bfd8      	it	le
 8008536:	2401      	movle	r4, #1
 8008538:	2b03      	cmp	r3, #3
 800853a:	d864      	bhi.n	8008606 <_dtoa_r+0x29e>
 800853c:	e8df f003 	tbb	[pc, r3]
 8008540:	2c385553 	.word	0x2c385553
 8008544:	e9dd 6314 	ldrd	r6, r3, [sp, #80]	@ 0x50
 8008548:	441e      	add	r6, r3
 800854a:	f206 4332 	addw	r3, r6, #1074	@ 0x432
 800854e:	2b20      	cmp	r3, #32
 8008550:	bfc1      	itttt	gt
 8008552:	f1c3 0340 	rsbgt	r3, r3, #64	@ 0x40
 8008556:	fa08 f803 	lslgt.w	r8, r8, r3
 800855a:	f206 4312 	addwgt	r3, r6, #1042	@ 0x412
 800855e:	fa24 f303 	lsrgt.w	r3, r4, r3
 8008562:	bfd6      	itet	le
 8008564:	f1c3 0320 	rsble	r3, r3, #32
 8008568:	ea48 0003 	orrgt.w	r0, r8, r3
 800856c:	fa04 f003 	lslle.w	r0, r4, r3
 8008570:	f7f7 ff38 	bl	80003e4 <__aeabi_ui2d>
 8008574:	2201      	movs	r2, #1
 8008576:	f1a1 73f8 	sub.w	r3, r1, #32505856	@ 0x1f00000
 800857a:	3e01      	subs	r6, #1
 800857c:	9212      	str	r2, [sp, #72]	@ 0x48
 800857e:	e774      	b.n	800846a <_dtoa_r+0x102>
 8008580:	2301      	movs	r3, #1
 8008582:	e7b5      	b.n	80084f0 <_dtoa_r+0x188>
 8008584:	900f      	str	r0, [sp, #60]	@ 0x3c
 8008586:	e7b4      	b.n	80084f2 <_dtoa_r+0x18a>
 8008588:	9b04      	ldr	r3, [sp, #16]
 800858a:	1bdb      	subs	r3, r3, r7
 800858c:	9304      	str	r3, [sp, #16]
 800858e:	427b      	negs	r3, r7
 8008590:	930a      	str	r3, [sp, #40]	@ 0x28
 8008592:	2300      	movs	r3, #0
 8008594:	930e      	str	r3, [sp, #56]	@ 0x38
 8008596:	e7c1      	b.n	800851c <_dtoa_r+0x1b4>
 8008598:	2301      	movs	r3, #1
 800859a:	930b      	str	r3, [sp, #44]	@ 0x2c
 800859c:	9b21      	ldr	r3, [sp, #132]	@ 0x84
 800859e:	eb07 0b03 	add.w	fp, r7, r3
 80085a2:	f10b 0301 	add.w	r3, fp, #1
 80085a6:	2b01      	cmp	r3, #1
 80085a8:	9308      	str	r3, [sp, #32]
 80085aa:	bfb8      	it	lt
 80085ac:	2301      	movlt	r3, #1
 80085ae:	e006      	b.n	80085be <_dtoa_r+0x256>
 80085b0:	2301      	movs	r3, #1
 80085b2:	930b      	str	r3, [sp, #44]	@ 0x2c
 80085b4:	9b21      	ldr	r3, [sp, #132]	@ 0x84
 80085b6:	2b00      	cmp	r3, #0
 80085b8:	dd28      	ble.n	800860c <_dtoa_r+0x2a4>
 80085ba:	469b      	mov	fp, r3
 80085bc:	9308      	str	r3, [sp, #32]
 80085be:	2100      	movs	r1, #0
 80085c0:	2204      	movs	r2, #4
 80085c2:	f8d9 001c 	ldr.w	r0, [r9, #28]
 80085c6:	f102 0514 	add.w	r5, r2, #20
 80085ca:	429d      	cmp	r5, r3
 80085cc:	d926      	bls.n	800861c <_dtoa_r+0x2b4>
 80085ce:	6041      	str	r1, [r0, #4]
 80085d0:	4648      	mov	r0, r9
 80085d2:	f000 fd9b 	bl	800910c <_Balloc>
 80085d6:	4682      	mov	sl, r0
 80085d8:	2800      	cmp	r0, #0
 80085da:	d143      	bne.n	8008664 <_dtoa_r+0x2fc>
 80085dc:	4602      	mov	r2, r0
 80085de:	f240 11af 	movw	r1, #431	@ 0x1af
 80085e2:	4b1f      	ldr	r3, [pc, #124]	@ (8008660 <_dtoa_r+0x2f8>)
 80085e4:	e6d4      	b.n	8008390 <_dtoa_r+0x28>
 80085e6:	2300      	movs	r3, #0
 80085e8:	e7e3      	b.n	80085b2 <_dtoa_r+0x24a>
 80085ea:	2300      	movs	r3, #0
 80085ec:	e7d5      	b.n	800859a <_dtoa_r+0x232>
 80085ee:	2401      	movs	r4, #1
 80085f0:	2300      	movs	r3, #0
 80085f2:	940b      	str	r4, [sp, #44]	@ 0x2c
 80085f4:	9320      	str	r3, [sp, #128]	@ 0x80
 80085f6:	f04f 3bff 	mov.w	fp, #4294967295
 80085fa:	2200      	movs	r2, #0
 80085fc:	2312      	movs	r3, #18
 80085fe:	f8cd b020 	str.w	fp, [sp, #32]
 8008602:	9221      	str	r2, [sp, #132]	@ 0x84
 8008604:	e7db      	b.n	80085be <_dtoa_r+0x256>
 8008606:	2301      	movs	r3, #1
 8008608:	930b      	str	r3, [sp, #44]	@ 0x2c
 800860a:	e7f4      	b.n	80085f6 <_dtoa_r+0x28e>
 800860c:	f04f 0b01 	mov.w	fp, #1
 8008610:	465b      	mov	r3, fp
 8008612:	f8cd b020 	str.w	fp, [sp, #32]
 8008616:	f8cd b084 	str.w	fp, [sp, #132]	@ 0x84
 800861a:	e7d0      	b.n	80085be <_dtoa_r+0x256>
 800861c:	3101      	adds	r1, #1
 800861e:	0052      	lsls	r2, r2, #1
 8008620:	e7d1      	b.n	80085c6 <_dtoa_r+0x25e>
 8008622:	bf00      	nop
 8008624:	f3af 8000 	nop.w
 8008628:	636f4361 	.word	0x636f4361
 800862c:	3fd287a7 	.word	0x3fd287a7
 8008630:	8b60c8b3 	.word	0x8b60c8b3
 8008634:	3fc68a28 	.word	0x3fc68a28
 8008638:	509f79fb 	.word	0x509f79fb
 800863c:	3fd34413 	.word	0x3fd34413
 8008640:	0800a077 	.word	0x0800a077
 8008644:	0800a08e 	.word	0x0800a08e
 8008648:	7ff00000 	.word	0x7ff00000
 800864c:	0800a073 	.word	0x0800a073
 8008650:	0800a047 	.word	0x0800a047
 8008654:	0800a046 	.word	0x0800a046
 8008658:	3ff80000 	.word	0x3ff80000
 800865c:	0800a208 	.word	0x0800a208
 8008660:	0800a0e6 	.word	0x0800a0e6
 8008664:	f8d9 301c 	ldr.w	r3, [r9, #28]
 8008668:	6018      	str	r0, [r3, #0]
 800866a:	9b08      	ldr	r3, [sp, #32]
 800866c:	2b0e      	cmp	r3, #14
 800866e:	f200 80a1 	bhi.w	80087b4 <_dtoa_r+0x44c>
 8008672:	2c00      	cmp	r4, #0
 8008674:	f000 809e 	beq.w	80087b4 <_dtoa_r+0x44c>
 8008678:	2f00      	cmp	r7, #0
 800867a:	dd33      	ble.n	80086e4 <_dtoa_r+0x37c>
 800867c:	4b9c      	ldr	r3, [pc, #624]	@ (80088f0 <_dtoa_r+0x588>)
 800867e:	f007 020f 	and.w	r2, r7, #15
 8008682:	eb03 03c2 	add.w	r3, r3, r2, lsl #3
 8008686:	05f8      	lsls	r0, r7, #23
 8008688:	e9d3 3400 	ldrd	r3, r4, [r3]
 800868c:	e9cd 3410 	strd	r3, r4, [sp, #64]	@ 0x40
 8008690:	ea4f 1427 	mov.w	r4, r7, asr #4
 8008694:	d516      	bpl.n	80086c4 <_dtoa_r+0x35c>
 8008696:	e9dd 010c 	ldrd	r0, r1, [sp, #48]	@ 0x30
 800869a:	4b96      	ldr	r3, [pc, #600]	@ (80088f4 <_dtoa_r+0x58c>)
 800869c:	2603      	movs	r6, #3
 800869e:	e9d3 2308 	ldrd	r2, r3, [r3, #32]
 80086a2:	f7f8 f843 	bl	800072c <__aeabi_ddiv>
 80086a6:	e9cd 0106 	strd	r0, r1, [sp, #24]
 80086aa:	f004 040f 	and.w	r4, r4, #15
 80086ae:	4d91      	ldr	r5, [pc, #580]	@ (80088f4 <_dtoa_r+0x58c>)
 80086b0:	b954      	cbnz	r4, 80086c8 <_dtoa_r+0x360>
 80086b2:	e9dd 2310 	ldrd	r2, r3, [sp, #64]	@ 0x40
 80086b6:	e9dd 0106 	ldrd	r0, r1, [sp, #24]
 80086ba:	f7f8 f837 	bl	800072c <__aeabi_ddiv>
 80086be:	e9cd 0106 	strd	r0, r1, [sp, #24]
 80086c2:	e028      	b.n	8008716 <_dtoa_r+0x3ae>
 80086c4:	2602      	movs	r6, #2
 80086c6:	e7f2      	b.n	80086ae <_dtoa_r+0x346>
 80086c8:	07e1      	lsls	r1, r4, #31
 80086ca:	d508      	bpl.n	80086de <_dtoa_r+0x376>
 80086cc:	e9dd 0110 	ldrd	r0, r1, [sp, #64]	@ 0x40
 80086d0:	e9d5 2300 	ldrd	r2, r3, [r5]
 80086d4:	f7f7 ff00 	bl	80004d8 <__aeabi_dmul>
 80086d8:	e9cd 0110 	strd	r0, r1, [sp, #64]	@ 0x40
 80086dc:	3601      	adds	r6, #1
 80086de:	1064      	asrs	r4, r4, #1
 80086e0:	3508      	adds	r5, #8
 80086e2:	e7e5      	b.n	80086b0 <_dtoa_r+0x348>
 80086e4:	f000 80af 	beq.w	8008846 <_dtoa_r+0x4de>
 80086e8:	e9dd 010c 	ldrd	r0, r1, [sp, #48]	@ 0x30
 80086ec:	427c      	negs	r4, r7
 80086ee:	4b80      	ldr	r3, [pc, #512]	@ (80088f0 <_dtoa_r+0x588>)
 80086f0:	f004 020f 	and.w	r2, r4, #15
 80086f4:	eb03 03c2 	add.w	r3, r3, r2, lsl #3
 80086f8:	e9d3 2300 	ldrd	r2, r3, [r3]
 80086fc:	f7f7 feec 	bl	80004d8 <__aeabi_dmul>
 8008700:	2602      	movs	r6, #2
 8008702:	2300      	movs	r3, #0
 8008704:	e9cd 0106 	strd	r0, r1, [sp, #24]
 8008708:	4d7a      	ldr	r5, [pc, #488]	@ (80088f4 <_dtoa_r+0x58c>)
 800870a:	1124      	asrs	r4, r4, #4
 800870c:	2c00      	cmp	r4, #0
 800870e:	f040 808f 	bne.w	8008830 <_dtoa_r+0x4c8>
 8008712:	2b00      	cmp	r3, #0
 8008714:	d1d3      	bne.n	80086be <_dtoa_r+0x356>
 8008716:	e9dd 4506 	ldrd	r4, r5, [sp, #24]
 800871a:	9b0f      	ldr	r3, [sp, #60]	@ 0x3c
 800871c:	2b00      	cmp	r3, #0
 800871e:	f000 8094 	beq.w	800884a <_dtoa_r+0x4e2>
 8008722:	2200      	movs	r2, #0
 8008724:	4620      	mov	r0, r4
 8008726:	4629      	mov	r1, r5
 8008728:	4b73      	ldr	r3, [pc, #460]	@ (80088f8 <_dtoa_r+0x590>)
 800872a:	f7f8 f947 	bl	80009bc <__aeabi_dcmplt>
 800872e:	2800      	cmp	r0, #0
 8008730:	f000 808b 	beq.w	800884a <_dtoa_r+0x4e2>
 8008734:	9b08      	ldr	r3, [sp, #32]
 8008736:	2b00      	cmp	r3, #0
 8008738:	f000 8087 	beq.w	800884a <_dtoa_r+0x4e2>
 800873c:	f1bb 0f00 	cmp.w	fp, #0
 8008740:	dd34      	ble.n	80087ac <_dtoa_r+0x444>
 8008742:	4620      	mov	r0, r4
 8008744:	2200      	movs	r2, #0
 8008746:	4629      	mov	r1, r5
 8008748:	4b6c      	ldr	r3, [pc, #432]	@ (80088fc <_dtoa_r+0x594>)
 800874a:	f7f7 fec5 	bl	80004d8 <__aeabi_dmul>
 800874e:	465c      	mov	r4, fp
 8008750:	e9cd 0106 	strd	r0, r1, [sp, #24]
 8008754:	f107 38ff 	add.w	r8, r7, #4294967295
 8008758:	3601      	adds	r6, #1
 800875a:	4630      	mov	r0, r6
 800875c:	f7f7 fe52 	bl	8000404 <__aeabi_i2d>
 8008760:	e9dd 2306 	ldrd	r2, r3, [sp, #24]
 8008764:	f7f7 feb8 	bl	80004d8 <__aeabi_dmul>
 8008768:	2200      	movs	r2, #0
 800876a:	4b65      	ldr	r3, [pc, #404]	@ (8008900 <_dtoa_r+0x598>)
 800876c:	f7f7 fcfe 	bl	800016c <__adddf3>
 8008770:	4605      	mov	r5, r0
 8008772:	f1a1 7650 	sub.w	r6, r1, #54525952	@ 0x3400000
 8008776:	2c00      	cmp	r4, #0
 8008778:	d16a      	bne.n	8008850 <_dtoa_r+0x4e8>
 800877a:	e9dd 0106 	ldrd	r0, r1, [sp, #24]
 800877e:	2200      	movs	r2, #0
 8008780:	4b60      	ldr	r3, [pc, #384]	@ (8008904 <_dtoa_r+0x59c>)
 8008782:	f7f7 fcf1 	bl	8000168 <__aeabi_dsub>
 8008786:	4602      	mov	r2, r0
 8008788:	460b      	mov	r3, r1
 800878a:	e9cd 2306 	strd	r2, r3, [sp, #24]
 800878e:	462a      	mov	r2, r5
 8008790:	4633      	mov	r3, r6
 8008792:	f7f8 f931 	bl	80009f8 <__aeabi_dcmpgt>
 8008796:	2800      	cmp	r0, #0
 8008798:	f040 8298 	bne.w	8008ccc <_dtoa_r+0x964>
 800879c:	e9dd 0106 	ldrd	r0, r1, [sp, #24]
 80087a0:	462a      	mov	r2, r5
 80087a2:	f106 4300 	add.w	r3, r6, #2147483648	@ 0x80000000
 80087a6:	f7f8 f909 	bl	80009bc <__aeabi_dcmplt>
 80087aa:	bb38      	cbnz	r0, 80087fc <_dtoa_r+0x494>
 80087ac:	e9dd 340c 	ldrd	r3, r4, [sp, #48]	@ 0x30
 80087b0:	e9cd 3406 	strd	r3, r4, [sp, #24]
 80087b4:	9b15      	ldr	r3, [sp, #84]	@ 0x54
 80087b6:	2b00      	cmp	r3, #0
 80087b8:	f2c0 8157 	blt.w	8008a6a <_dtoa_r+0x702>
 80087bc:	2f0e      	cmp	r7, #14
 80087be:	f300 8154 	bgt.w	8008a6a <_dtoa_r+0x702>
 80087c2:	4b4b      	ldr	r3, [pc, #300]	@ (80088f0 <_dtoa_r+0x588>)
 80087c4:	eb03 03c7 	add.w	r3, r3, r7, lsl #3
 80087c8:	e9d3 3400 	ldrd	r3, r4, [r3]
 80087cc:	e9cd 3404 	strd	r3, r4, [sp, #16]
 80087d0:	9b21      	ldr	r3, [sp, #132]	@ 0x84
 80087d2:	2b00      	cmp	r3, #0
 80087d4:	f280 80e5 	bge.w	80089a2 <_dtoa_r+0x63a>
 80087d8:	9b08      	ldr	r3, [sp, #32]
 80087da:	2b00      	cmp	r3, #0
 80087dc:	f300 80e1 	bgt.w	80089a2 <_dtoa_r+0x63a>
 80087e0:	d10c      	bne.n	80087fc <_dtoa_r+0x494>
 80087e2:	e9dd 0104 	ldrd	r0, r1, [sp, #16]
 80087e6:	2200      	movs	r2, #0
 80087e8:	4b46      	ldr	r3, [pc, #280]	@ (8008904 <_dtoa_r+0x59c>)
 80087ea:	f7f7 fe75 	bl	80004d8 <__aeabi_dmul>
 80087ee:	e9dd 2306 	ldrd	r2, r3, [sp, #24]
 80087f2:	f7f8 f8f7 	bl	80009e4 <__aeabi_dcmpge>
 80087f6:	2800      	cmp	r0, #0
 80087f8:	f000 8266 	beq.w	8008cc8 <_dtoa_r+0x960>
 80087fc:	2400      	movs	r4, #0
 80087fe:	4625      	mov	r5, r4
 8008800:	9b21      	ldr	r3, [sp, #132]	@ 0x84
 8008802:	4656      	mov	r6, sl
 8008804:	ea6f 0803 	mvn.w	r8, r3
 8008808:	2700      	movs	r7, #0
 800880a:	4621      	mov	r1, r4
 800880c:	4648      	mov	r0, r9
 800880e:	f000 fcbd 	bl	800918c <_Bfree>
 8008812:	2d00      	cmp	r5, #0
 8008814:	f000 80bd 	beq.w	8008992 <_dtoa_r+0x62a>
 8008818:	b12f      	cbz	r7, 8008826 <_dtoa_r+0x4be>
 800881a:	42af      	cmp	r7, r5
 800881c:	d003      	beq.n	8008826 <_dtoa_r+0x4be>
 800881e:	4639      	mov	r1, r7
 8008820:	4648      	mov	r0, r9
 8008822:	f000 fcb3 	bl	800918c <_Bfree>
 8008826:	4629      	mov	r1, r5
 8008828:	4648      	mov	r0, r9
 800882a:	f000 fcaf 	bl	800918c <_Bfree>
 800882e:	e0b0      	b.n	8008992 <_dtoa_r+0x62a>
 8008830:	07e2      	lsls	r2, r4, #31
 8008832:	d505      	bpl.n	8008840 <_dtoa_r+0x4d8>
 8008834:	e9d5 2300 	ldrd	r2, r3, [r5]
 8008838:	f7f7 fe4e 	bl	80004d8 <__aeabi_dmul>
 800883c:	2301      	movs	r3, #1
 800883e:	3601      	adds	r6, #1
 8008840:	1064      	asrs	r4, r4, #1
 8008842:	3508      	adds	r5, #8
 8008844:	e762      	b.n	800870c <_dtoa_r+0x3a4>
 8008846:	2602      	movs	r6, #2
 8008848:	e765      	b.n	8008716 <_dtoa_r+0x3ae>
 800884a:	46b8      	mov	r8, r7
 800884c:	9c08      	ldr	r4, [sp, #32]
 800884e:	e784      	b.n	800875a <_dtoa_r+0x3f2>
 8008850:	4b27      	ldr	r3, [pc, #156]	@ (80088f0 <_dtoa_r+0x588>)
 8008852:	990b      	ldr	r1, [sp, #44]	@ 0x2c
 8008854:	eb03 03c4 	add.w	r3, r3, r4, lsl #3
 8008858:	e953 2302 	ldrd	r2, r3, [r3, #-8]
 800885c:	4454      	add	r4, sl
 800885e:	2900      	cmp	r1, #0
 8008860:	d054      	beq.n	800890c <_dtoa_r+0x5a4>
 8008862:	2000      	movs	r0, #0
 8008864:	4928      	ldr	r1, [pc, #160]	@ (8008908 <_dtoa_r+0x5a0>)
 8008866:	f7f7 ff61 	bl	800072c <__aeabi_ddiv>
 800886a:	4633      	mov	r3, r6
 800886c:	462a      	mov	r2, r5
 800886e:	f7f7 fc7b 	bl	8000168 <__aeabi_dsub>
 8008872:	4656      	mov	r6, sl
 8008874:	e9cd 0110 	strd	r0, r1, [sp, #64]	@ 0x40
 8008878:	e9dd 0106 	ldrd	r0, r1, [sp, #24]
 800887c:	f7f8 f8dc 	bl	8000a38 <__aeabi_d2iz>
 8008880:	4605      	mov	r5, r0
 8008882:	f7f7 fdbf 	bl	8000404 <__aeabi_i2d>
 8008886:	4602      	mov	r2, r0
 8008888:	460b      	mov	r3, r1
 800888a:	e9dd 0106 	ldrd	r0, r1, [sp, #24]
 800888e:	f7f7 fc6b 	bl	8000168 <__aeabi_dsub>
 8008892:	4602      	mov	r2, r0
 8008894:	460b      	mov	r3, r1
 8008896:	3530      	adds	r5, #48	@ 0x30
 8008898:	e9cd 2306 	strd	r2, r3, [sp, #24]
 800889c:	e9dd 2310 	ldrd	r2, r3, [sp, #64]	@ 0x40
 80088a0:	f806 5b01 	strb.w	r5, [r6], #1
 80088a4:	f7f8 f88a 	bl	80009bc <__aeabi_dcmplt>
 80088a8:	2800      	cmp	r0, #0
 80088aa:	d172      	bne.n	8008992 <_dtoa_r+0x62a>
 80088ac:	e9dd 2306 	ldrd	r2, r3, [sp, #24]
 80088b0:	2000      	movs	r0, #0
 80088b2:	4911      	ldr	r1, [pc, #68]	@ (80088f8 <_dtoa_r+0x590>)
 80088b4:	f7f7 fc58 	bl	8000168 <__aeabi_dsub>
 80088b8:	e9dd 2310 	ldrd	r2, r3, [sp, #64]	@ 0x40
 80088bc:	f7f8 f87e 	bl	80009bc <__aeabi_dcmplt>
 80088c0:	2800      	cmp	r0, #0
 80088c2:	f040 80b4 	bne.w	8008a2e <_dtoa_r+0x6c6>
 80088c6:	42a6      	cmp	r6, r4
 80088c8:	f43f af70 	beq.w	80087ac <_dtoa_r+0x444>
 80088cc:	e9dd 0110 	ldrd	r0, r1, [sp, #64]	@ 0x40
 80088d0:	2200      	movs	r2, #0
 80088d2:	4b0a      	ldr	r3, [pc, #40]	@ (80088fc <_dtoa_r+0x594>)
 80088d4:	f7f7 fe00 	bl	80004d8 <__aeabi_dmul>
 80088d8:	2200      	movs	r2, #0
 80088da:	e9cd 0110 	strd	r0, r1, [sp, #64]	@ 0x40
 80088de:	e9dd 0106 	ldrd	r0, r1, [sp, #24]
 80088e2:	4b06      	ldr	r3, [pc, #24]	@ (80088fc <_dtoa_r+0x594>)
 80088e4:	f7f7 fdf8 	bl	80004d8 <__aeabi_dmul>
 80088e8:	e9cd 0106 	strd	r0, r1, [sp, #24]
 80088ec:	e7c4      	b.n	8008878 <_dtoa_r+0x510>
 80088ee:	bf00      	nop
 80088f0:	0800a208 	.word	0x0800a208
 80088f4:	0800a1e0 	.word	0x0800a1e0
 80088f8:	3ff00000 	.word	0x3ff00000
 80088fc:	40240000 	.word	0x40240000
 8008900:	401c0000 	.word	0x401c0000
 8008904:	40140000 	.word	0x40140000
 8008908:	3fe00000 	.word	0x3fe00000
 800890c:	4631      	mov	r1, r6
 800890e:	4628      	mov	r0, r5
 8008910:	f7f7 fde2 	bl	80004d8 <__aeabi_dmul>
 8008914:	4656      	mov	r6, sl
 8008916:	e9cd 0110 	strd	r0, r1, [sp, #64]	@ 0x40
 800891a:	9413      	str	r4, [sp, #76]	@ 0x4c
 800891c:	e9dd 0106 	ldrd	r0, r1, [sp, #24]
 8008920:	f7f8 f88a 	bl	8000a38 <__aeabi_d2iz>
 8008924:	4605      	mov	r5, r0
 8008926:	f7f7 fd6d 	bl	8000404 <__aeabi_i2d>
 800892a:	4602      	mov	r2, r0
 800892c:	460b      	mov	r3, r1
 800892e:	e9dd 0106 	ldrd	r0, r1, [sp, #24]
 8008932:	f7f7 fc19 	bl	8000168 <__aeabi_dsub>
 8008936:	4602      	mov	r2, r0
 8008938:	460b      	mov	r3, r1
 800893a:	3530      	adds	r5, #48	@ 0x30
 800893c:	f806 5b01 	strb.w	r5, [r6], #1
 8008940:	42a6      	cmp	r6, r4
 8008942:	e9cd 2306 	strd	r2, r3, [sp, #24]
 8008946:	f04f 0200 	mov.w	r2, #0
 800894a:	d124      	bne.n	8008996 <_dtoa_r+0x62e>
 800894c:	e9dd 0110 	ldrd	r0, r1, [sp, #64]	@ 0x40
 8008950:	4bae      	ldr	r3, [pc, #696]	@ (8008c0c <_dtoa_r+0x8a4>)
 8008952:	f7f7 fc0b 	bl	800016c <__adddf3>
 8008956:	4602      	mov	r2, r0
 8008958:	460b      	mov	r3, r1
 800895a:	e9dd 0106 	ldrd	r0, r1, [sp, #24]
 800895e:	f7f8 f84b 	bl	80009f8 <__aeabi_dcmpgt>
 8008962:	2800      	cmp	r0, #0
 8008964:	d163      	bne.n	8008a2e <_dtoa_r+0x6c6>
 8008966:	e9dd 2310 	ldrd	r2, r3, [sp, #64]	@ 0x40
 800896a:	2000      	movs	r0, #0
 800896c:	49a7      	ldr	r1, [pc, #668]	@ (8008c0c <_dtoa_r+0x8a4>)
 800896e:	f7f7 fbfb 	bl	8000168 <__aeabi_dsub>
 8008972:	4602      	mov	r2, r0
 8008974:	460b      	mov	r3, r1
 8008976:	e9dd 0106 	ldrd	r0, r1, [sp, #24]
 800897a:	f7f8 f81f 	bl	80009bc <__aeabi_dcmplt>
 800897e:	2800      	cmp	r0, #0
 8008980:	f43f af14 	beq.w	80087ac <_dtoa_r+0x444>
 8008984:	9e13      	ldr	r6, [sp, #76]	@ 0x4c
 8008986:	1e73      	subs	r3, r6, #1
 8008988:	9313      	str	r3, [sp, #76]	@ 0x4c
 800898a:	f816 3c01 	ldrb.w	r3, [r6, #-1]
 800898e:	2b30      	cmp	r3, #48	@ 0x30
 8008990:	d0f8      	beq.n	8008984 <_dtoa_r+0x61c>
 8008992:	4647      	mov	r7, r8
 8008994:	e03b      	b.n	8008a0e <_dtoa_r+0x6a6>
 8008996:	4b9e      	ldr	r3, [pc, #632]	@ (8008c10 <_dtoa_r+0x8a8>)
 8008998:	f7f7 fd9e 	bl	80004d8 <__aeabi_dmul>
 800899c:	e9cd 0106 	strd	r0, r1, [sp, #24]
 80089a0:	e7bc      	b.n	800891c <_dtoa_r+0x5b4>
 80089a2:	4656      	mov	r6, sl
 80089a4:	e9dd 4506 	ldrd	r4, r5, [sp, #24]
 80089a8:	e9dd 2304 	ldrd	r2, r3, [sp, #16]
 80089ac:	4620      	mov	r0, r4
 80089ae:	4629      	mov	r1, r5
 80089b0:	f7f7 febc 	bl	800072c <__aeabi_ddiv>
 80089b4:	f7f8 f840 	bl	8000a38 <__aeabi_d2iz>
 80089b8:	4680      	mov	r8, r0
 80089ba:	f7f7 fd23 	bl	8000404 <__aeabi_i2d>
 80089be:	e9dd 2304 	ldrd	r2, r3, [sp, #16]
 80089c2:	f7f7 fd89 	bl	80004d8 <__aeabi_dmul>
 80089c6:	4602      	mov	r2, r0
 80089c8:	460b      	mov	r3, r1
 80089ca:	4620      	mov	r0, r4
 80089cc:	4629      	mov	r1, r5
 80089ce:	f7f7 fbcb 	bl	8000168 <__aeabi_dsub>
 80089d2:	f108 0430 	add.w	r4, r8, #48	@ 0x30
 80089d6:	9d08      	ldr	r5, [sp, #32]
 80089d8:	f806 4b01 	strb.w	r4, [r6], #1
 80089dc:	eba6 040a 	sub.w	r4, r6, sl
 80089e0:	42a5      	cmp	r5, r4
 80089e2:	4602      	mov	r2, r0
 80089e4:	460b      	mov	r3, r1
 80089e6:	d133      	bne.n	8008a50 <_dtoa_r+0x6e8>
 80089e8:	f7f7 fbc0 	bl	800016c <__adddf3>
 80089ec:	e9dd 2304 	ldrd	r2, r3, [sp, #16]
 80089f0:	4604      	mov	r4, r0
 80089f2:	460d      	mov	r5, r1
 80089f4:	f7f8 f800 	bl	80009f8 <__aeabi_dcmpgt>
 80089f8:	b9c0      	cbnz	r0, 8008a2c <_dtoa_r+0x6c4>
 80089fa:	e9dd 2304 	ldrd	r2, r3, [sp, #16]
 80089fe:	4620      	mov	r0, r4
 8008a00:	4629      	mov	r1, r5
 8008a02:	f7f7 ffd1 	bl	80009a8 <__aeabi_dcmpeq>
 8008a06:	b110      	cbz	r0, 8008a0e <_dtoa_r+0x6a6>
 8008a08:	f018 0f01 	tst.w	r8, #1
 8008a0c:	d10e      	bne.n	8008a2c <_dtoa_r+0x6c4>
 8008a0e:	4648      	mov	r0, r9
 8008a10:	9903      	ldr	r1, [sp, #12]
 8008a12:	f000 fbbb 	bl	800918c <_Bfree>
 8008a16:	2300      	movs	r3, #0
 8008a18:	7033      	strb	r3, [r6, #0]
 8008a1a:	9b22      	ldr	r3, [sp, #136]	@ 0x88
 8008a1c:	3701      	adds	r7, #1
 8008a1e:	601f      	str	r7, [r3, #0]
 8008a20:	9b24      	ldr	r3, [sp, #144]	@ 0x90
 8008a22:	2b00      	cmp	r3, #0
 8008a24:	f000 824b 	beq.w	8008ebe <_dtoa_r+0xb56>
 8008a28:	601e      	str	r6, [r3, #0]
 8008a2a:	e248      	b.n	8008ebe <_dtoa_r+0xb56>
 8008a2c:	46b8      	mov	r8, r7
 8008a2e:	4633      	mov	r3, r6
 8008a30:	461e      	mov	r6, r3
 8008a32:	f813 2d01 	ldrb.w	r2, [r3, #-1]!
 8008a36:	2a39      	cmp	r2, #57	@ 0x39
 8008a38:	d106      	bne.n	8008a48 <_dtoa_r+0x6e0>
 8008a3a:	459a      	cmp	sl, r3
 8008a3c:	d1f8      	bne.n	8008a30 <_dtoa_r+0x6c8>
 8008a3e:	2230      	movs	r2, #48	@ 0x30
 8008a40:	f108 0801 	add.w	r8, r8, #1
 8008a44:	f88a 2000 	strb.w	r2, [sl]
 8008a48:	781a      	ldrb	r2, [r3, #0]
 8008a4a:	3201      	adds	r2, #1
 8008a4c:	701a      	strb	r2, [r3, #0]
 8008a4e:	e7a0      	b.n	8008992 <_dtoa_r+0x62a>
 8008a50:	2200      	movs	r2, #0
 8008a52:	4b6f      	ldr	r3, [pc, #444]	@ (8008c10 <_dtoa_r+0x8a8>)
 8008a54:	f7f7 fd40 	bl	80004d8 <__aeabi_dmul>
 8008a58:	2200      	movs	r2, #0
 8008a5a:	2300      	movs	r3, #0
 8008a5c:	4604      	mov	r4, r0
 8008a5e:	460d      	mov	r5, r1
 8008a60:	f7f7 ffa2 	bl	80009a8 <__aeabi_dcmpeq>
 8008a64:	2800      	cmp	r0, #0
 8008a66:	d09f      	beq.n	80089a8 <_dtoa_r+0x640>
 8008a68:	e7d1      	b.n	8008a0e <_dtoa_r+0x6a6>
 8008a6a:	9a0b      	ldr	r2, [sp, #44]	@ 0x2c
 8008a6c:	2a00      	cmp	r2, #0
 8008a6e:	f000 80ea 	beq.w	8008c46 <_dtoa_r+0x8de>
 8008a72:	9a20      	ldr	r2, [sp, #128]	@ 0x80
 8008a74:	2a01      	cmp	r2, #1
 8008a76:	f300 80cd 	bgt.w	8008c14 <_dtoa_r+0x8ac>
 8008a7a:	9a12      	ldr	r2, [sp, #72]	@ 0x48
 8008a7c:	2a00      	cmp	r2, #0
 8008a7e:	f000 80c1 	beq.w	8008c04 <_dtoa_r+0x89c>
 8008a82:	f203 4333 	addw	r3, r3, #1075	@ 0x433
 8008a86:	9c0a      	ldr	r4, [sp, #40]	@ 0x28
 8008a88:	9e04      	ldr	r6, [sp, #16]
 8008a8a:	9a04      	ldr	r2, [sp, #16]
 8008a8c:	2101      	movs	r1, #1
 8008a8e:	441a      	add	r2, r3
 8008a90:	9204      	str	r2, [sp, #16]
 8008a92:	9a09      	ldr	r2, [sp, #36]	@ 0x24
 8008a94:	4648      	mov	r0, r9
 8008a96:	441a      	add	r2, r3
 8008a98:	9209      	str	r2, [sp, #36]	@ 0x24
 8008a9a:	f000 fc2b 	bl	80092f4 <__i2b>
 8008a9e:	4605      	mov	r5, r0
 8008aa0:	b166      	cbz	r6, 8008abc <_dtoa_r+0x754>
 8008aa2:	9b09      	ldr	r3, [sp, #36]	@ 0x24
 8008aa4:	2b00      	cmp	r3, #0
 8008aa6:	dd09      	ble.n	8008abc <_dtoa_r+0x754>
 8008aa8:	42b3      	cmp	r3, r6
 8008aaa:	bfa8      	it	ge
 8008aac:	4633      	movge	r3, r6
 8008aae:	9a04      	ldr	r2, [sp, #16]
 8008ab0:	1af6      	subs	r6, r6, r3
 8008ab2:	1ad2      	subs	r2, r2, r3
 8008ab4:	9204      	str	r2, [sp, #16]
 8008ab6:	9a09      	ldr	r2, [sp, #36]	@ 0x24
 8008ab8:	1ad3      	subs	r3, r2, r3
 8008aba:	9309      	str	r3, [sp, #36]	@ 0x24
 8008abc:	9b0a      	ldr	r3, [sp, #40]	@ 0x28
 8008abe:	b30b      	cbz	r3, 8008b04 <_dtoa_r+0x79c>
 8008ac0:	9b0b      	ldr	r3, [sp, #44]	@ 0x2c
 8008ac2:	2b00      	cmp	r3, #0
 8008ac4:	f000 80c6 	beq.w	8008c54 <_dtoa_r+0x8ec>
 8008ac8:	2c00      	cmp	r4, #0
 8008aca:	f000 80c0 	beq.w	8008c4e <_dtoa_r+0x8e6>
 8008ace:	4629      	mov	r1, r5
 8008ad0:	4622      	mov	r2, r4
 8008ad2:	4648      	mov	r0, r9
 8008ad4:	f000 fcc6 	bl	8009464 <__pow5mult>
 8008ad8:	9a03      	ldr	r2, [sp, #12]
 8008ada:	4601      	mov	r1, r0
 8008adc:	4605      	mov	r5, r0
 8008ade:	4648      	mov	r0, r9
 8008ae0:	f000 fc1e 	bl	8009320 <__multiply>
 8008ae4:	9903      	ldr	r1, [sp, #12]
 8008ae6:	4680      	mov	r8, r0
 8008ae8:	4648      	mov	r0, r9
 8008aea:	f000 fb4f 	bl	800918c <_Bfree>
 8008aee:	9b0a      	ldr	r3, [sp, #40]	@ 0x28
 8008af0:	1b1b      	subs	r3, r3, r4
 8008af2:	930a      	str	r3, [sp, #40]	@ 0x28
 8008af4:	f000 80b1 	beq.w	8008c5a <_dtoa_r+0x8f2>
 8008af8:	4641      	mov	r1, r8
 8008afa:	9a0a      	ldr	r2, [sp, #40]	@ 0x28
 8008afc:	4648      	mov	r0, r9
 8008afe:	f000 fcb1 	bl	8009464 <__pow5mult>
 8008b02:	9003      	str	r0, [sp, #12]
 8008b04:	2101      	movs	r1, #1
 8008b06:	4648      	mov	r0, r9
 8008b08:	f000 fbf4 	bl	80092f4 <__i2b>
 8008b0c:	9b0e      	ldr	r3, [sp, #56]	@ 0x38
 8008b0e:	4604      	mov	r4, r0
 8008b10:	2b00      	cmp	r3, #0
 8008b12:	f000 81d8 	beq.w	8008ec6 <_dtoa_r+0xb5e>
 8008b16:	461a      	mov	r2, r3
 8008b18:	4601      	mov	r1, r0
 8008b1a:	4648      	mov	r0, r9
 8008b1c:	f000 fca2 	bl	8009464 <__pow5mult>
 8008b20:	9b20      	ldr	r3, [sp, #128]	@ 0x80
 8008b22:	4604      	mov	r4, r0
 8008b24:	2b01      	cmp	r3, #1
 8008b26:	f300 809f 	bgt.w	8008c68 <_dtoa_r+0x900>
 8008b2a:	9b06      	ldr	r3, [sp, #24]
 8008b2c:	2b00      	cmp	r3, #0
 8008b2e:	f040 8097 	bne.w	8008c60 <_dtoa_r+0x8f8>
 8008b32:	9b07      	ldr	r3, [sp, #28]
 8008b34:	f3c3 0313 	ubfx	r3, r3, #0, #20
 8008b38:	2b00      	cmp	r3, #0
 8008b3a:	f040 8093 	bne.w	8008c64 <_dtoa_r+0x8fc>
 8008b3e:	9b07      	ldr	r3, [sp, #28]
 8008b40:	f023 4300 	bic.w	r3, r3, #2147483648	@ 0x80000000
 8008b44:	0d1b      	lsrs	r3, r3, #20
 8008b46:	051b      	lsls	r3, r3, #20
 8008b48:	b133      	cbz	r3, 8008b58 <_dtoa_r+0x7f0>
 8008b4a:	9b04      	ldr	r3, [sp, #16]
 8008b4c:	3301      	adds	r3, #1
 8008b4e:	9304      	str	r3, [sp, #16]
 8008b50:	9b09      	ldr	r3, [sp, #36]	@ 0x24
 8008b52:	3301      	adds	r3, #1
 8008b54:	9309      	str	r3, [sp, #36]	@ 0x24
 8008b56:	2301      	movs	r3, #1
 8008b58:	930a      	str	r3, [sp, #40]	@ 0x28
 8008b5a:	9b0e      	ldr	r3, [sp, #56]	@ 0x38
 8008b5c:	2b00      	cmp	r3, #0
 8008b5e:	f000 81b8 	beq.w	8008ed2 <_dtoa_r+0xb6a>
 8008b62:	6923      	ldr	r3, [r4, #16]
 8008b64:	eb04 0383 	add.w	r3, r4, r3, lsl #2
 8008b68:	6918      	ldr	r0, [r3, #16]
 8008b6a:	f000 fb77 	bl	800925c <__hi0bits>
 8008b6e:	f1c0 0020 	rsb	r0, r0, #32
 8008b72:	9b09      	ldr	r3, [sp, #36]	@ 0x24
 8008b74:	4418      	add	r0, r3
 8008b76:	f010 001f 	ands.w	r0, r0, #31
 8008b7a:	f000 8082 	beq.w	8008c82 <_dtoa_r+0x91a>
 8008b7e:	f1c0 0320 	rsb	r3, r0, #32
 8008b82:	2b04      	cmp	r3, #4
 8008b84:	dd73      	ble.n	8008c6e <_dtoa_r+0x906>
 8008b86:	9b04      	ldr	r3, [sp, #16]
 8008b88:	f1c0 001c 	rsb	r0, r0, #28
 8008b8c:	4403      	add	r3, r0
 8008b8e:	9304      	str	r3, [sp, #16]
 8008b90:	9b09      	ldr	r3, [sp, #36]	@ 0x24
 8008b92:	4406      	add	r6, r0
 8008b94:	4403      	add	r3, r0
 8008b96:	9309      	str	r3, [sp, #36]	@ 0x24
 8008b98:	9b04      	ldr	r3, [sp, #16]
 8008b9a:	2b00      	cmp	r3, #0
 8008b9c:	dd05      	ble.n	8008baa <_dtoa_r+0x842>
 8008b9e:	461a      	mov	r2, r3
 8008ba0:	4648      	mov	r0, r9
 8008ba2:	9903      	ldr	r1, [sp, #12]
 8008ba4:	f000 fcb8 	bl	8009518 <__lshift>
 8008ba8:	9003      	str	r0, [sp, #12]
 8008baa:	9b09      	ldr	r3, [sp, #36]	@ 0x24
 8008bac:	2b00      	cmp	r3, #0
 8008bae:	dd05      	ble.n	8008bbc <_dtoa_r+0x854>
 8008bb0:	4621      	mov	r1, r4
 8008bb2:	461a      	mov	r2, r3
 8008bb4:	4648      	mov	r0, r9
 8008bb6:	f000 fcaf 	bl	8009518 <__lshift>
 8008bba:	4604      	mov	r4, r0
 8008bbc:	9b0f      	ldr	r3, [sp, #60]	@ 0x3c
 8008bbe:	2b00      	cmp	r3, #0
 8008bc0:	d061      	beq.n	8008c86 <_dtoa_r+0x91e>
 8008bc2:	4621      	mov	r1, r4
 8008bc4:	9803      	ldr	r0, [sp, #12]
 8008bc6:	f000 fd13 	bl	80095f0 <__mcmp>
 8008bca:	2800      	cmp	r0, #0
 8008bcc:	da5b      	bge.n	8008c86 <_dtoa_r+0x91e>
 8008bce:	2300      	movs	r3, #0
 8008bd0:	220a      	movs	r2, #10
 8008bd2:	4648      	mov	r0, r9
 8008bd4:	9903      	ldr	r1, [sp, #12]
 8008bd6:	f000 fafb 	bl	80091d0 <__multadd>
 8008bda:	9b0b      	ldr	r3, [sp, #44]	@ 0x2c
 8008bdc:	f107 38ff 	add.w	r8, r7, #4294967295
 8008be0:	9003      	str	r0, [sp, #12]
 8008be2:	2b00      	cmp	r3, #0
 8008be4:	f000 8177 	beq.w	8008ed6 <_dtoa_r+0xb6e>
 8008be8:	4629      	mov	r1, r5
 8008bea:	2300      	movs	r3, #0
 8008bec:	220a      	movs	r2, #10
 8008bee:	4648      	mov	r0, r9
 8008bf0:	f000 faee 	bl	80091d0 <__multadd>
 8008bf4:	f1bb 0f00 	cmp.w	fp, #0
 8008bf8:	4605      	mov	r5, r0
 8008bfa:	dc6f      	bgt.n	8008cdc <_dtoa_r+0x974>
 8008bfc:	9b20      	ldr	r3, [sp, #128]	@ 0x80
 8008bfe:	2b02      	cmp	r3, #2
 8008c00:	dc49      	bgt.n	8008c96 <_dtoa_r+0x92e>
 8008c02:	e06b      	b.n	8008cdc <_dtoa_r+0x974>
 8008c04:	9b14      	ldr	r3, [sp, #80]	@ 0x50
 8008c06:	f1c3 0336 	rsb	r3, r3, #54	@ 0x36
 8008c0a:	e73c      	b.n	8008a86 <_dtoa_r+0x71e>
 8008c0c:	3fe00000 	.word	0x3fe00000
 8008c10:	40240000 	.word	0x40240000
 8008c14:	9b08      	ldr	r3, [sp, #32]
 8008c16:	1e5c      	subs	r4, r3, #1
 8008c18:	9b0a      	ldr	r3, [sp, #40]	@ 0x28
 8008c1a:	42a3      	cmp	r3, r4
 8008c1c:	db09      	blt.n	8008c32 <_dtoa_r+0x8ca>
 8008c1e:	1b1c      	subs	r4, r3, r4
 8008c20:	9b08      	ldr	r3, [sp, #32]
 8008c22:	2b00      	cmp	r3, #0
 8008c24:	f6bf af30 	bge.w	8008a88 <_dtoa_r+0x720>
 8008c28:	9b04      	ldr	r3, [sp, #16]
 8008c2a:	9a08      	ldr	r2, [sp, #32]
 8008c2c:	1a9e      	subs	r6, r3, r2
 8008c2e:	2300      	movs	r3, #0
 8008c30:	e72b      	b.n	8008a8a <_dtoa_r+0x722>
 8008c32:	9b0a      	ldr	r3, [sp, #40]	@ 0x28
 8008c34:	9a0e      	ldr	r2, [sp, #56]	@ 0x38
 8008c36:	1ae3      	subs	r3, r4, r3
 8008c38:	441a      	add	r2, r3
 8008c3a:	940a      	str	r4, [sp, #40]	@ 0x28
 8008c3c:	9e04      	ldr	r6, [sp, #16]
 8008c3e:	2400      	movs	r4, #0
 8008c40:	9b08      	ldr	r3, [sp, #32]
 8008c42:	920e      	str	r2, [sp, #56]	@ 0x38
 8008c44:	e721      	b.n	8008a8a <_dtoa_r+0x722>
 8008c46:	9c0a      	ldr	r4, [sp, #40]	@ 0x28
 8008c48:	9e04      	ldr	r6, [sp, #16]
 8008c4a:	9d0b      	ldr	r5, [sp, #44]	@ 0x2c
 8008c4c:	e728      	b.n	8008aa0 <_dtoa_r+0x738>
 8008c4e:	f8dd 800c 	ldr.w	r8, [sp, #12]
 8008c52:	e751      	b.n	8008af8 <_dtoa_r+0x790>
 8008c54:	9a0a      	ldr	r2, [sp, #40]	@ 0x28
 8008c56:	9903      	ldr	r1, [sp, #12]
 8008c58:	e750      	b.n	8008afc <_dtoa_r+0x794>
 8008c5a:	f8cd 800c 	str.w	r8, [sp, #12]
 8008c5e:	e751      	b.n	8008b04 <_dtoa_r+0x79c>
 8008c60:	2300      	movs	r3, #0
 8008c62:	e779      	b.n	8008b58 <_dtoa_r+0x7f0>
 8008c64:	9b06      	ldr	r3, [sp, #24]
 8008c66:	e777      	b.n	8008b58 <_dtoa_r+0x7f0>
 8008c68:	2300      	movs	r3, #0
 8008c6a:	930a      	str	r3, [sp, #40]	@ 0x28
 8008c6c:	e779      	b.n	8008b62 <_dtoa_r+0x7fa>
 8008c6e:	d093      	beq.n	8008b98 <_dtoa_r+0x830>
 8008c70:	9a04      	ldr	r2, [sp, #16]
 8008c72:	331c      	adds	r3, #28
 8008c74:	441a      	add	r2, r3
 8008c76:	9204      	str	r2, [sp, #16]
 8008c78:	9a09      	ldr	r2, [sp, #36]	@ 0x24
 8008c7a:	441e      	add	r6, r3
 8008c7c:	441a      	add	r2, r3
 8008c7e:	9209      	str	r2, [sp, #36]	@ 0x24
 8008c80:	e78a      	b.n	8008b98 <_dtoa_r+0x830>
 8008c82:	4603      	mov	r3, r0
 8008c84:	e7f4      	b.n	8008c70 <_dtoa_r+0x908>
 8008c86:	9b08      	ldr	r3, [sp, #32]
 8008c88:	46b8      	mov	r8, r7
 8008c8a:	2b00      	cmp	r3, #0
 8008c8c:	dc20      	bgt.n	8008cd0 <_dtoa_r+0x968>
 8008c8e:	469b      	mov	fp, r3
 8008c90:	9b20      	ldr	r3, [sp, #128]	@ 0x80
 8008c92:	2b02      	cmp	r3, #2
 8008c94:	dd1e      	ble.n	8008cd4 <_dtoa_r+0x96c>
 8008c96:	f1bb 0f00 	cmp.w	fp, #0
 8008c9a:	f47f adb1 	bne.w	8008800 <_dtoa_r+0x498>
 8008c9e:	4621      	mov	r1, r4
 8008ca0:	465b      	mov	r3, fp
 8008ca2:	2205      	movs	r2, #5
 8008ca4:	4648      	mov	r0, r9
 8008ca6:	f000 fa93 	bl	80091d0 <__multadd>
 8008caa:	4601      	mov	r1, r0
 8008cac:	4604      	mov	r4, r0
 8008cae:	9803      	ldr	r0, [sp, #12]
 8008cb0:	f000 fc9e 	bl	80095f0 <__mcmp>
 8008cb4:	2800      	cmp	r0, #0
 8008cb6:	f77f ada3 	ble.w	8008800 <_dtoa_r+0x498>
 8008cba:	4656      	mov	r6, sl
 8008cbc:	2331      	movs	r3, #49	@ 0x31
 8008cbe:	f108 0801 	add.w	r8, r8, #1
 8008cc2:	f806 3b01 	strb.w	r3, [r6], #1
 8008cc6:	e59f      	b.n	8008808 <_dtoa_r+0x4a0>
 8008cc8:	46b8      	mov	r8, r7
 8008cca:	9c08      	ldr	r4, [sp, #32]
 8008ccc:	4625      	mov	r5, r4
 8008cce:	e7f4      	b.n	8008cba <_dtoa_r+0x952>
 8008cd0:	f8dd b020 	ldr.w	fp, [sp, #32]
 8008cd4:	9b0b      	ldr	r3, [sp, #44]	@ 0x2c
 8008cd6:	2b00      	cmp	r3, #0
 8008cd8:	f000 8101 	beq.w	8008ede <_dtoa_r+0xb76>
 8008cdc:	2e00      	cmp	r6, #0
 8008cde:	dd05      	ble.n	8008cec <_dtoa_r+0x984>
 8008ce0:	4629      	mov	r1, r5
 8008ce2:	4632      	mov	r2, r6
 8008ce4:	4648      	mov	r0, r9
 8008ce6:	f000 fc17 	bl	8009518 <__lshift>
 8008cea:	4605      	mov	r5, r0
 8008cec:	9b0a      	ldr	r3, [sp, #40]	@ 0x28
 8008cee:	2b00      	cmp	r3, #0
 8008cf0:	d05c      	beq.n	8008dac <_dtoa_r+0xa44>
 8008cf2:	4648      	mov	r0, r9
 8008cf4:	6869      	ldr	r1, [r5, #4]
 8008cf6:	f000 fa09 	bl	800910c <_Balloc>
 8008cfa:	4606      	mov	r6, r0
 8008cfc:	b928      	cbnz	r0, 8008d0a <_dtoa_r+0x9a2>
 8008cfe:	4602      	mov	r2, r0
 8008d00:	f240 21ef 	movw	r1, #751	@ 0x2ef
 8008d04:	4b80      	ldr	r3, [pc, #512]	@ (8008f08 <_dtoa_r+0xba0>)
 8008d06:	f7ff bb43 	b.w	8008390 <_dtoa_r+0x28>
 8008d0a:	692a      	ldr	r2, [r5, #16]
 8008d0c:	f105 010c 	add.w	r1, r5, #12
 8008d10:	3202      	adds	r2, #2
 8008d12:	0092      	lsls	r2, r2, #2
 8008d14:	300c      	adds	r0, #12
 8008d16:	f7ff fa90 	bl	800823a <memcpy>
 8008d1a:	2201      	movs	r2, #1
 8008d1c:	4631      	mov	r1, r6
 8008d1e:	4648      	mov	r0, r9
 8008d20:	f000 fbfa 	bl	8009518 <__lshift>
 8008d24:	462f      	mov	r7, r5
 8008d26:	4605      	mov	r5, r0
 8008d28:	f10a 0301 	add.w	r3, sl, #1
 8008d2c:	9304      	str	r3, [sp, #16]
 8008d2e:	eb0a 030b 	add.w	r3, sl, fp
 8008d32:	930a      	str	r3, [sp, #40]	@ 0x28
 8008d34:	9b06      	ldr	r3, [sp, #24]
 8008d36:	f003 0301 	and.w	r3, r3, #1
 8008d3a:	9309      	str	r3, [sp, #36]	@ 0x24
 8008d3c:	9b04      	ldr	r3, [sp, #16]
 8008d3e:	4621      	mov	r1, r4
 8008d40:	9803      	ldr	r0, [sp, #12]
 8008d42:	f103 3bff 	add.w	fp, r3, #4294967295
 8008d46:	f7ff fa86 	bl	8008256 <quorem>
 8008d4a:	4603      	mov	r3, r0
 8008d4c:	4639      	mov	r1, r7
 8008d4e:	3330      	adds	r3, #48	@ 0x30
 8008d50:	9006      	str	r0, [sp, #24]
 8008d52:	9803      	ldr	r0, [sp, #12]
 8008d54:	930b      	str	r3, [sp, #44]	@ 0x2c
 8008d56:	f000 fc4b 	bl	80095f0 <__mcmp>
 8008d5a:	462a      	mov	r2, r5
 8008d5c:	9008      	str	r0, [sp, #32]
 8008d5e:	4621      	mov	r1, r4
 8008d60:	4648      	mov	r0, r9
 8008d62:	f000 fc61 	bl	8009628 <__mdiff>
 8008d66:	68c2      	ldr	r2, [r0, #12]
 8008d68:	4606      	mov	r6, r0
 8008d6a:	9b0b      	ldr	r3, [sp, #44]	@ 0x2c
 8008d6c:	bb02      	cbnz	r2, 8008db0 <_dtoa_r+0xa48>
 8008d6e:	4601      	mov	r1, r0
 8008d70:	9803      	ldr	r0, [sp, #12]
 8008d72:	f000 fc3d 	bl	80095f0 <__mcmp>
 8008d76:	4602      	mov	r2, r0
 8008d78:	9b0b      	ldr	r3, [sp, #44]	@ 0x2c
 8008d7a:	4631      	mov	r1, r6
 8008d7c:	4648      	mov	r0, r9
 8008d7e:	e9cd 320b 	strd	r3, r2, [sp, #44]	@ 0x2c
 8008d82:	f000 fa03 	bl	800918c <_Bfree>
 8008d86:	9b20      	ldr	r3, [sp, #128]	@ 0x80
 8008d88:	9a0c      	ldr	r2, [sp, #48]	@ 0x30
 8008d8a:	9e04      	ldr	r6, [sp, #16]
 8008d8c:	ea42 0103 	orr.w	r1, r2, r3
 8008d90:	9b09      	ldr	r3, [sp, #36]	@ 0x24
 8008d92:	4319      	orrs	r1, r3
 8008d94:	9b0b      	ldr	r3, [sp, #44]	@ 0x2c
 8008d96:	d10d      	bne.n	8008db4 <_dtoa_r+0xa4c>
 8008d98:	2b39      	cmp	r3, #57	@ 0x39
 8008d9a:	d027      	beq.n	8008dec <_dtoa_r+0xa84>
 8008d9c:	9a08      	ldr	r2, [sp, #32]
 8008d9e:	2a00      	cmp	r2, #0
 8008da0:	dd01      	ble.n	8008da6 <_dtoa_r+0xa3e>
 8008da2:	9b06      	ldr	r3, [sp, #24]
 8008da4:	3331      	adds	r3, #49	@ 0x31
 8008da6:	f88b 3000 	strb.w	r3, [fp]
 8008daa:	e52e      	b.n	800880a <_dtoa_r+0x4a2>
 8008dac:	4628      	mov	r0, r5
 8008dae:	e7b9      	b.n	8008d24 <_dtoa_r+0x9bc>
 8008db0:	2201      	movs	r2, #1
 8008db2:	e7e2      	b.n	8008d7a <_dtoa_r+0xa12>
 8008db4:	9908      	ldr	r1, [sp, #32]
 8008db6:	2900      	cmp	r1, #0
 8008db8:	db04      	blt.n	8008dc4 <_dtoa_r+0xa5c>
 8008dba:	9820      	ldr	r0, [sp, #128]	@ 0x80
 8008dbc:	4301      	orrs	r1, r0
 8008dbe:	9809      	ldr	r0, [sp, #36]	@ 0x24
 8008dc0:	4301      	orrs	r1, r0
 8008dc2:	d120      	bne.n	8008e06 <_dtoa_r+0xa9e>
 8008dc4:	2a00      	cmp	r2, #0
 8008dc6:	ddee      	ble.n	8008da6 <_dtoa_r+0xa3e>
 8008dc8:	2201      	movs	r2, #1
 8008dca:	9903      	ldr	r1, [sp, #12]
 8008dcc:	4648      	mov	r0, r9
 8008dce:	9304      	str	r3, [sp, #16]
 8008dd0:	f000 fba2 	bl	8009518 <__lshift>
 8008dd4:	4621      	mov	r1, r4
 8008dd6:	9003      	str	r0, [sp, #12]
 8008dd8:	f000 fc0a 	bl	80095f0 <__mcmp>
 8008ddc:	2800      	cmp	r0, #0
 8008dde:	9b04      	ldr	r3, [sp, #16]
 8008de0:	dc02      	bgt.n	8008de8 <_dtoa_r+0xa80>
 8008de2:	d1e0      	bne.n	8008da6 <_dtoa_r+0xa3e>
 8008de4:	07da      	lsls	r2, r3, #31
 8008de6:	d5de      	bpl.n	8008da6 <_dtoa_r+0xa3e>
 8008de8:	2b39      	cmp	r3, #57	@ 0x39
 8008dea:	d1da      	bne.n	8008da2 <_dtoa_r+0xa3a>
 8008dec:	2339      	movs	r3, #57	@ 0x39
 8008dee:	f88b 3000 	strb.w	r3, [fp]
 8008df2:	4633      	mov	r3, r6
 8008df4:	461e      	mov	r6, r3
 8008df6:	f816 2c01 	ldrb.w	r2, [r6, #-1]
 8008dfa:	3b01      	subs	r3, #1
 8008dfc:	2a39      	cmp	r2, #57	@ 0x39
 8008dfe:	d04e      	beq.n	8008e9e <_dtoa_r+0xb36>
 8008e00:	3201      	adds	r2, #1
 8008e02:	701a      	strb	r2, [r3, #0]
 8008e04:	e501      	b.n	800880a <_dtoa_r+0x4a2>
 8008e06:	2a00      	cmp	r2, #0
 8008e08:	dd03      	ble.n	8008e12 <_dtoa_r+0xaaa>
 8008e0a:	2b39      	cmp	r3, #57	@ 0x39
 8008e0c:	d0ee      	beq.n	8008dec <_dtoa_r+0xa84>
 8008e0e:	3301      	adds	r3, #1
 8008e10:	e7c9      	b.n	8008da6 <_dtoa_r+0xa3e>
 8008e12:	9a04      	ldr	r2, [sp, #16]
 8008e14:	990a      	ldr	r1, [sp, #40]	@ 0x28
 8008e16:	f802 3c01 	strb.w	r3, [r2, #-1]
 8008e1a:	428a      	cmp	r2, r1
 8008e1c:	d028      	beq.n	8008e70 <_dtoa_r+0xb08>
 8008e1e:	2300      	movs	r3, #0
 8008e20:	220a      	movs	r2, #10
 8008e22:	9903      	ldr	r1, [sp, #12]
 8008e24:	4648      	mov	r0, r9
 8008e26:	f000 f9d3 	bl	80091d0 <__multadd>
 8008e2a:	42af      	cmp	r7, r5
 8008e2c:	9003      	str	r0, [sp, #12]
 8008e2e:	f04f 0300 	mov.w	r3, #0
 8008e32:	f04f 020a 	mov.w	r2, #10
 8008e36:	4639      	mov	r1, r7
 8008e38:	4648      	mov	r0, r9
 8008e3a:	d107      	bne.n	8008e4c <_dtoa_r+0xae4>
 8008e3c:	f000 f9c8 	bl	80091d0 <__multadd>
 8008e40:	4607      	mov	r7, r0
 8008e42:	4605      	mov	r5, r0
 8008e44:	9b04      	ldr	r3, [sp, #16]
 8008e46:	3301      	adds	r3, #1
 8008e48:	9304      	str	r3, [sp, #16]
 8008e4a:	e777      	b.n	8008d3c <_dtoa_r+0x9d4>
 8008e4c:	f000 f9c0 	bl	80091d0 <__multadd>
 8008e50:	4629      	mov	r1, r5
 8008e52:	4607      	mov	r7, r0
 8008e54:	2300      	movs	r3, #0
 8008e56:	220a      	movs	r2, #10
 8008e58:	4648      	mov	r0, r9
 8008e5a:	f000 f9b9 	bl	80091d0 <__multadd>
 8008e5e:	4605      	mov	r5, r0
 8008e60:	e7f0      	b.n	8008e44 <_dtoa_r+0xadc>
 8008e62:	f1bb 0f00 	cmp.w	fp, #0
 8008e66:	bfcc      	ite	gt
 8008e68:	465e      	movgt	r6, fp
 8008e6a:	2601      	movle	r6, #1
 8008e6c:	2700      	movs	r7, #0
 8008e6e:	4456      	add	r6, sl
 8008e70:	2201      	movs	r2, #1
 8008e72:	9903      	ldr	r1, [sp, #12]
 8008e74:	4648      	mov	r0, r9
 8008e76:	9304      	str	r3, [sp, #16]
 8008e78:	f000 fb4e 	bl	8009518 <__lshift>
 8008e7c:	4621      	mov	r1, r4
 8008e7e:	9003      	str	r0, [sp, #12]
 8008e80:	f000 fbb6 	bl	80095f0 <__mcmp>
 8008e84:	2800      	cmp	r0, #0
 8008e86:	dcb4      	bgt.n	8008df2 <_dtoa_r+0xa8a>
 8008e88:	d102      	bne.n	8008e90 <_dtoa_r+0xb28>
 8008e8a:	9b04      	ldr	r3, [sp, #16]
 8008e8c:	07db      	lsls	r3, r3, #31
 8008e8e:	d4b0      	bmi.n	8008df2 <_dtoa_r+0xa8a>
 8008e90:	4633      	mov	r3, r6
 8008e92:	461e      	mov	r6, r3
 8008e94:	f813 2d01 	ldrb.w	r2, [r3, #-1]!
 8008e98:	2a30      	cmp	r2, #48	@ 0x30
 8008e9a:	d0fa      	beq.n	8008e92 <_dtoa_r+0xb2a>
 8008e9c:	e4b5      	b.n	800880a <_dtoa_r+0x4a2>
 8008e9e:	459a      	cmp	sl, r3
 8008ea0:	d1a8      	bne.n	8008df4 <_dtoa_r+0xa8c>
 8008ea2:	2331      	movs	r3, #49	@ 0x31
 8008ea4:	f108 0801 	add.w	r8, r8, #1
 8008ea8:	f88a 3000 	strb.w	r3, [sl]
 8008eac:	e4ad      	b.n	800880a <_dtoa_r+0x4a2>
 8008eae:	9b24      	ldr	r3, [sp, #144]	@ 0x90
 8008eb0:	f8df a058 	ldr.w	sl, [pc, #88]	@ 8008f0c <_dtoa_r+0xba4>
 8008eb4:	b11b      	cbz	r3, 8008ebe <_dtoa_r+0xb56>
 8008eb6:	f10a 0308 	add.w	r3, sl, #8
 8008eba:	9a24      	ldr	r2, [sp, #144]	@ 0x90
 8008ebc:	6013      	str	r3, [r2, #0]
 8008ebe:	4650      	mov	r0, sl
 8008ec0:	b017      	add	sp, #92	@ 0x5c
 8008ec2:	e8bd 8ff0 	ldmia.w	sp!, {r4, r5, r6, r7, r8, r9, sl, fp, pc}
 8008ec6:	9b20      	ldr	r3, [sp, #128]	@ 0x80
 8008ec8:	2b01      	cmp	r3, #1
 8008eca:	f77f ae2e 	ble.w	8008b2a <_dtoa_r+0x7c2>
 8008ece:	9b0e      	ldr	r3, [sp, #56]	@ 0x38
 8008ed0:	930a      	str	r3, [sp, #40]	@ 0x28
 8008ed2:	2001      	movs	r0, #1
 8008ed4:	e64d      	b.n	8008b72 <_dtoa_r+0x80a>
 8008ed6:	f1bb 0f00 	cmp.w	fp, #0
 8008eda:	f77f aed9 	ble.w	8008c90 <_dtoa_r+0x928>
 8008ede:	4656      	mov	r6, sl
 8008ee0:	4621      	mov	r1, r4
 8008ee2:	9803      	ldr	r0, [sp, #12]
 8008ee4:	f7ff f9b7 	bl	8008256 <quorem>
 8008ee8:	f100 0330 	add.w	r3, r0, #48	@ 0x30
 8008eec:	f806 3b01 	strb.w	r3, [r6], #1
 8008ef0:	eba6 020a 	sub.w	r2, r6, sl
 8008ef4:	4593      	cmp	fp, r2
 8008ef6:	ddb4      	ble.n	8008e62 <_dtoa_r+0xafa>
 8008ef8:	2300      	movs	r3, #0
 8008efa:	220a      	movs	r2, #10
 8008efc:	4648      	mov	r0, r9
 8008efe:	9903      	ldr	r1, [sp, #12]
 8008f00:	f000 f966 	bl	80091d0 <__multadd>
 8008f04:	9003      	str	r0, [sp, #12]
 8008f06:	e7eb      	b.n	8008ee0 <_dtoa_r+0xb78>
 8008f08:	0800a0e6 	.word	0x0800a0e6
 8008f0c:	0800a06a 	.word	0x0800a06a

08008f10 <_free_r>:
 8008f10:	b538      	push	{r3, r4, r5, lr}
 8008f12:	4605      	mov	r5, r0
 8008f14:	2900      	cmp	r1, #0
 8008f16:	d040      	beq.n	8008f9a <_free_r+0x8a>
 8008f18:	f851 3c04 	ldr.w	r3, [r1, #-4]
 8008f1c:	1f0c      	subs	r4, r1, #4
 8008f1e:	2b00      	cmp	r3, #0
 8008f20:	bfb8      	it	lt
 8008f22:	18e4      	addlt	r4, r4, r3
 8008f24:	f000 f8e6 	bl	80090f4 <__malloc_lock>
 8008f28:	4a1c      	ldr	r2, [pc, #112]	@ (8008f9c <_free_r+0x8c>)
 8008f2a:	6813      	ldr	r3, [r2, #0]
 8008f2c:	b933      	cbnz	r3, 8008f3c <_free_r+0x2c>
 8008f2e:	6063      	str	r3, [r4, #4]
 8008f30:	6014      	str	r4, [r2, #0]
 8008f32:	4628      	mov	r0, r5
 8008f34:	e8bd 4038 	ldmia.w	sp!, {r3, r4, r5, lr}
 8008f38:	f000 b8e2 	b.w	8009100 <__malloc_unlock>
 8008f3c:	42a3      	cmp	r3, r4
 8008f3e:	d908      	bls.n	8008f52 <_free_r+0x42>
 8008f40:	6820      	ldr	r0, [r4, #0]
 8008f42:	1821      	adds	r1, r4, r0
 8008f44:	428b      	cmp	r3, r1
 8008f46:	bf01      	itttt	eq
 8008f48:	6819      	ldreq	r1, [r3, #0]
 8008f4a:	685b      	ldreq	r3, [r3, #4]
 8008f4c:	1809      	addeq	r1, r1, r0
 8008f4e:	6021      	streq	r1, [r4, #0]
 8008f50:	e7ed      	b.n	8008f2e <_free_r+0x1e>
 8008f52:	461a      	mov	r2, r3
 8008f54:	685b      	ldr	r3, [r3, #4]
 8008f56:	b10b      	cbz	r3, 8008f5c <_free_r+0x4c>
 8008f58:	42a3      	cmp	r3, r4
 8008f5a:	d9fa      	bls.n	8008f52 <_free_r+0x42>
 8008f5c:	6811      	ldr	r1, [r2, #0]
 8008f5e:	1850      	adds	r0, r2, r1
 8008f60:	42a0      	cmp	r0, r4
 8008f62:	d10b      	bne.n	8008f7c <_free_r+0x6c>
 8008f64:	6820      	ldr	r0, [r4, #0]
 8008f66:	4401      	add	r1, r0
 8008f68:	1850      	adds	r0, r2, r1
 8008f6a:	4283      	cmp	r3, r0
 8008f6c:	6011      	str	r1, [r2, #0]
 8008f6e:	d1e0      	bne.n	8008f32 <_free_r+0x22>
 8008f70:	6818      	ldr	r0, [r3, #0]
 8008f72:	685b      	ldr	r3, [r3, #4]
 8008f74:	4408      	add	r0, r1
 8008f76:	6010      	str	r0, [r2, #0]
 8008f78:	6053      	str	r3, [r2, #4]
 8008f7a:	e7da      	b.n	8008f32 <_free_r+0x22>
 8008f7c:	d902      	bls.n	8008f84 <_free_r+0x74>
 8008f7e:	230c      	movs	r3, #12
 8008f80:	602b      	str	r3, [r5, #0]
 8008f82:	e7d6      	b.n	8008f32 <_free_r+0x22>
 8008f84:	6820      	ldr	r0, [r4, #0]
 8008f86:	1821      	adds	r1, r4, r0
 8008f88:	428b      	cmp	r3, r1
 8008f8a:	bf01      	itttt	eq
 8008f8c:	6819      	ldreq	r1, [r3, #0]
 8008f8e:	685b      	ldreq	r3, [r3, #4]
 8008f90:	1809      	addeq	r1, r1, r0
 8008f92:	6021      	streq	r1, [r4, #0]
 8008f94:	6063      	str	r3, [r4, #4]
 8008f96:	6054      	str	r4, [r2, #4]
 8008f98:	e7cb      	b.n	8008f32 <_free_r+0x22>
 8008f9a:	bd38      	pop	{r3, r4, r5, pc}
 8008f9c:	20003770 	.word	0x20003770

08008fa0 <malloc>:
 8008fa0:	4b02      	ldr	r3, [pc, #8]	@ (8008fac <malloc+0xc>)
 8008fa2:	4601      	mov	r1, r0
 8008fa4:	6818      	ldr	r0, [r3, #0]
 8008fa6:	f000 b825 	b.w	8008ff4 <_malloc_r>
 8008faa:	bf00      	nop
 8008fac:	20000028 	.word	0x20000028

08008fb0 <sbrk_aligned>:
 8008fb0:	b570      	push	{r4, r5, r6, lr}
 8008fb2:	4e0f      	ldr	r6, [pc, #60]	@ (8008ff0 <sbrk_aligned+0x40>)
 8008fb4:	460c      	mov	r4, r1
 8008fb6:	6831      	ldr	r1, [r6, #0]
 8008fb8:	4605      	mov	r5, r0
 8008fba:	b911      	cbnz	r1, 8008fc2 <sbrk_aligned+0x12>
 8008fbc:	f000 fcc8 	bl	8009950 <_sbrk_r>
 8008fc0:	6030      	str	r0, [r6, #0]
 8008fc2:	4621      	mov	r1, r4
 8008fc4:	4628      	mov	r0, r5
 8008fc6:	f000 fcc3 	bl	8009950 <_sbrk_r>
 8008fca:	1c43      	adds	r3, r0, #1
 8008fcc:	d103      	bne.n	8008fd6 <sbrk_aligned+0x26>
 8008fce:	f04f 34ff 	mov.w	r4, #4294967295
 8008fd2:	4620      	mov	r0, r4
 8008fd4:	bd70      	pop	{r4, r5, r6, pc}
 8008fd6:	1cc4      	adds	r4, r0, #3
 8008fd8:	f024 0403 	bic.w	r4, r4, #3
 8008fdc:	42a0      	cmp	r0, r4
 8008fde:	d0f8      	beq.n	8008fd2 <sbrk_aligned+0x22>
 8008fe0:	1a21      	subs	r1, r4, r0
 8008fe2:	4628      	mov	r0, r5
 8008fe4:	f000 fcb4 	bl	8009950 <_sbrk_r>
 8008fe8:	3001      	adds	r0, #1
 8008fea:	d1f2      	bne.n	8008fd2 <sbrk_aligned+0x22>
 8008fec:	e7ef      	b.n	8008fce <sbrk_aligned+0x1e>
 8008fee:	bf00      	nop
 8008ff0:	2000376c 	.word	0x2000376c

08008ff4 <_malloc_r>:
 8008ff4:	e92d 43f8 	stmdb	sp!, {r3, r4, r5, r6, r7, r8, r9, lr}
 8008ff8:	1ccd      	adds	r5, r1, #3
 8008ffa:	f025 0503 	bic.w	r5, r5, #3
 8008ffe:	3508      	adds	r5, #8
 8009000:	2d0c      	cmp	r5, #12
 8009002:	bf38      	it	cc
 8009004:	250c      	movcc	r5, #12
 8009006:	2d00      	cmp	r5, #0
 8009008:	4606      	mov	r6, r0
 800900a:	db01      	blt.n	8009010 <_malloc_r+0x1c>
 800900c:	42a9      	cmp	r1, r5
 800900e:	d904      	bls.n	800901a <_malloc_r+0x26>
 8009010:	230c      	movs	r3, #12
 8009012:	6033      	str	r3, [r6, #0]
 8009014:	2000      	movs	r0, #0
 8009016:	e8bd 83f8 	ldmia.w	sp!, {r3, r4, r5, r6, r7, r8, r9, pc}
 800901a:	f8df 80d4 	ldr.w	r8, [pc, #212]	@ 80090f0 <_malloc_r+0xfc>
 800901e:	f000 f869 	bl	80090f4 <__malloc_lock>
 8009022:	f8d8 3000 	ldr.w	r3, [r8]
 8009026:	461c      	mov	r4, r3
 8009028:	bb44      	cbnz	r4, 800907c <_malloc_r+0x88>
 800902a:	4629      	mov	r1, r5
 800902c:	4630      	mov	r0, r6
 800902e:	f7ff ffbf 	bl	8008fb0 <sbrk_aligned>
 8009032:	1c43      	adds	r3, r0, #1
 8009034:	4604      	mov	r4, r0
 8009036:	d158      	bne.n	80090ea <_malloc_r+0xf6>
 8009038:	f8d8 4000 	ldr.w	r4, [r8]
 800903c:	4627      	mov	r7, r4
 800903e:	2f00      	cmp	r7, #0
 8009040:	d143      	bne.n	80090ca <_malloc_r+0xd6>
 8009042:	2c00      	cmp	r4, #0
 8009044:	d04b      	beq.n	80090de <_malloc_r+0xea>
 8009046:	6823      	ldr	r3, [r4, #0]
 8009048:	4639      	mov	r1, r7
 800904a:	4630      	mov	r0, r6
 800904c:	eb04 0903 	add.w	r9, r4, r3
 8009050:	f000 fc7e 	bl	8009950 <_sbrk_r>
 8009054:	4581      	cmp	r9, r0
 8009056:	d142      	bne.n	80090de <_malloc_r+0xea>
 8009058:	6821      	ldr	r1, [r4, #0]
 800905a:	4630      	mov	r0, r6
 800905c:	1a6d      	subs	r5, r5, r1
 800905e:	4629      	mov	r1, r5
 8009060:	f7ff ffa6 	bl	8008fb0 <sbrk_aligned>
 8009064:	3001      	adds	r0, #1
 8009066:	d03a      	beq.n	80090de <_malloc_r+0xea>
 8009068:	6823      	ldr	r3, [r4, #0]
 800906a:	442b      	add	r3, r5
 800906c:	6023      	str	r3, [r4, #0]
 800906e:	f8d8 3000 	ldr.w	r3, [r8]
 8009072:	685a      	ldr	r2, [r3, #4]
 8009074:	bb62      	cbnz	r2, 80090d0 <_malloc_r+0xdc>
 8009076:	f8c8 7000 	str.w	r7, [r8]
 800907a:	e00f      	b.n	800909c <_malloc_r+0xa8>
 800907c:	6822      	ldr	r2, [r4, #0]
 800907e:	1b52      	subs	r2, r2, r5
 8009080:	d420      	bmi.n	80090c4 <_malloc_r+0xd0>
 8009082:	2a0b      	cmp	r2, #11
 8009084:	d917      	bls.n	80090b6 <_malloc_r+0xc2>
 8009086:	1961      	adds	r1, r4, r5
 8009088:	42a3      	cmp	r3, r4
 800908a:	6025      	str	r5, [r4, #0]
 800908c:	bf18      	it	ne
 800908e:	6059      	strne	r1, [r3, #4]
 8009090:	6863      	ldr	r3, [r4, #4]
 8009092:	bf08      	it	eq
 8009094:	f8c8 1000 	streq.w	r1, [r8]
 8009098:	5162      	str	r2, [r4, r5]
 800909a:	604b      	str	r3, [r1, #4]
 800909c:	4630      	mov	r0, r6
 800909e:	f000 f82f 	bl	8009100 <__malloc_unlock>
 80090a2:	f104 000b 	add.w	r0, r4, #11
 80090a6:	1d23      	adds	r3, r4, #4
 80090a8:	f020 0007 	bic.w	r0, r0, #7
 80090ac:	1ac2      	subs	r2, r0, r3
 80090ae:	bf1c      	itt	ne
 80090b0:	1a1b      	subne	r3, r3, r0
 80090b2:	50a3      	strne	r3, [r4, r2]
 80090b4:	e7af      	b.n	8009016 <_malloc_r+0x22>
 80090b6:	6862      	ldr	r2, [r4, #4]
 80090b8:	42a3      	cmp	r3, r4
 80090ba:	bf0c      	ite	eq
 80090bc:	f8c8 2000 	streq.w	r2, [r8]
 80090c0:	605a      	strne	r2, [r3, #4]
 80090c2:	e7eb      	b.n	800909c <_malloc_r+0xa8>
 80090c4:	4623      	mov	r3, r4
 80090c6:	6864      	ldr	r4, [r4, #4]
 80090c8:	e7ae      	b.n	8009028 <_malloc_r+0x34>
 80090ca:	463c      	mov	r4, r7
 80090cc:	687f      	ldr	r7, [r7, #4]
 80090ce:	e7b6      	b.n	800903e <_malloc_r+0x4a>
 80090d0:	461a      	mov	r2, r3
 80090d2:	685b      	ldr	r3, [r3, #4]
 80090d4:	42a3      	cmp	r3, r4
 80090d6:	d1fb      	bne.n	80090d0 <_malloc_r+0xdc>
 80090d8:	2300      	movs	r3, #0
 80090da:	6053      	str	r3, [r2, #4]
 80090dc:	e7de      	b.n	800909c <_malloc_r+0xa8>
 80090de:	230c      	movs	r3, #12
 80090e0:	4630      	mov	r0, r6
 80090e2:	6033      	str	r3, [r6, #0]
 80090e4:	f000 f80c 	bl	8009100 <__malloc_unlock>
 80090e8:	e794      	b.n	8009014 <_malloc_r+0x20>
 80090ea:	6005      	str	r5, [r0, #0]
 80090ec:	e7d6      	b.n	800909c <_malloc_r+0xa8>
 80090ee:	bf00      	nop
 80090f0:	20003770 	.word	0x20003770

080090f4 <__malloc_lock>:
 80090f4:	4801      	ldr	r0, [pc, #4]	@ (80090fc <__malloc_lock+0x8>)
 80090f6:	f7ff b890 	b.w	800821a <__retarget_lock_acquire_recursive>
 80090fa:	bf00      	nop
 80090fc:	20003768 	.word	0x20003768

08009100 <__malloc_unlock>:
 8009100:	4801      	ldr	r0, [pc, #4]	@ (8009108 <__malloc_unlock+0x8>)
 8009102:	f7ff b88b 	b.w	800821c <__retarget_lock_release_recursive>
 8009106:	bf00      	nop
 8009108:	20003768 	.word	0x20003768

0800910c <_Balloc>:
 800910c:	b570      	push	{r4, r5, r6, lr}
 800910e:	69c6      	ldr	r6, [r0, #28]
 8009110:	4604      	mov	r4, r0
 8009112:	460d      	mov	r5, r1
 8009114:	b976      	cbnz	r6, 8009134 <_Balloc+0x28>
 8009116:	2010      	movs	r0, #16
 8009118:	f7ff ff42 	bl	8008fa0 <malloc>
 800911c:	4602      	mov	r2, r0
 800911e:	61e0      	str	r0, [r4, #28]
 8009120:	b920      	cbnz	r0, 800912c <_Balloc+0x20>
 8009122:	216b      	movs	r1, #107	@ 0x6b
 8009124:	4b17      	ldr	r3, [pc, #92]	@ (8009184 <_Balloc+0x78>)
 8009126:	4818      	ldr	r0, [pc, #96]	@ (8009188 <_Balloc+0x7c>)
 8009128:	f000 fc22 	bl	8009970 <__assert_func>
 800912c:	e9c0 6601 	strd	r6, r6, [r0, #4]
 8009130:	6006      	str	r6, [r0, #0]
 8009132:	60c6      	str	r6, [r0, #12]
 8009134:	69e6      	ldr	r6, [r4, #28]
 8009136:	68f3      	ldr	r3, [r6, #12]
 8009138:	b183      	cbz	r3, 800915c <_Balloc+0x50>
 800913a:	69e3      	ldr	r3, [r4, #28]
 800913c:	68db      	ldr	r3, [r3, #12]
 800913e:	f853 0025 	ldr.w	r0, [r3, r5, lsl #2]
 8009142:	b9b8      	cbnz	r0, 8009174 <_Balloc+0x68>
 8009144:	2101      	movs	r1, #1
 8009146:	fa01 f605 	lsl.w	r6, r1, r5
 800914a:	1d72      	adds	r2, r6, #5
 800914c:	4620      	mov	r0, r4
 800914e:	0092      	lsls	r2, r2, #2
 8009150:	f000 fc2c 	bl	80099ac <_calloc_r>
 8009154:	b160      	cbz	r0, 8009170 <_Balloc+0x64>
 8009156:	e9c0 5601 	strd	r5, r6, [r0, #4]
 800915a:	e00e      	b.n	800917a <_Balloc+0x6e>
 800915c:	2221      	movs	r2, #33	@ 0x21
 800915e:	2104      	movs	r1, #4
 8009160:	4620      	mov	r0, r4
 8009162:	f000 fc23 	bl	80099ac <_calloc_r>
 8009166:	69e3      	ldr	r3, [r4, #28]
 8009168:	60f0      	str	r0, [r6, #12]
 800916a:	68db      	ldr	r3, [r3, #12]
 800916c:	2b00      	cmp	r3, #0
 800916e:	d1e4      	bne.n	800913a <_Balloc+0x2e>
 8009170:	2000      	movs	r0, #0
 8009172:	bd70      	pop	{r4, r5, r6, pc}
 8009174:	6802      	ldr	r2, [r0, #0]
 8009176:	f843 2025 	str.w	r2, [r3, r5, lsl #2]
 800917a:	2300      	movs	r3, #0
 800917c:	e9c0 3303 	strd	r3, r3, [r0, #12]
 8009180:	e7f7      	b.n	8009172 <_Balloc+0x66>
 8009182:	bf00      	nop
 8009184:	0800a077 	.word	0x0800a077
 8009188:	0800a0f7 	.word	0x0800a0f7

0800918c <_Bfree>:
 800918c:	b570      	push	{r4, r5, r6, lr}
 800918e:	69c6      	ldr	r6, [r0, #28]
 8009190:	4605      	mov	r5, r0
 8009192:	460c      	mov	r4, r1
 8009194:	b976      	cbnz	r6, 80091b4 <_Bfree+0x28>
 8009196:	2010      	movs	r0, #16
 8009198:	f7ff ff02 	bl	8008fa0 <malloc>
 800919c:	4602      	mov	r2, r0
 800919e:	61e8      	str	r0, [r5, #28]
 80091a0:	b920      	cbnz	r0, 80091ac <_Bfree+0x20>
 80091a2:	218f      	movs	r1, #143	@ 0x8f
 80091a4:	4b08      	ldr	r3, [pc, #32]	@ (80091c8 <_Bfree+0x3c>)
 80091a6:	4809      	ldr	r0, [pc, #36]	@ (80091cc <_Bfree+0x40>)
 80091a8:	f000 fbe2 	bl	8009970 <__assert_func>
 80091ac:	e9c0 6601 	strd	r6, r6, [r0, #4]
 80091b0:	6006      	str	r6, [r0, #0]
 80091b2:	60c6      	str	r6, [r0, #12]
 80091b4:	b13c      	cbz	r4, 80091c6 <_Bfree+0x3a>
 80091b6:	69eb      	ldr	r3, [r5, #28]
 80091b8:	6862      	ldr	r2, [r4, #4]
 80091ba:	68db      	ldr	r3, [r3, #12]
 80091bc:	f853 1022 	ldr.w	r1, [r3, r2, lsl #2]
 80091c0:	6021      	str	r1, [r4, #0]
 80091c2:	f843 4022 	str.w	r4, [r3, r2, lsl #2]
 80091c6:	bd70      	pop	{r4, r5, r6, pc}
 80091c8:	0800a077 	.word	0x0800a077
 80091cc:	0800a0f7 	.word	0x0800a0f7

080091d0 <__multadd>:
 80091d0:	e92d 41f0 	stmdb	sp!, {r4, r5, r6, r7, r8, lr}
 80091d4:	4607      	mov	r7, r0
 80091d6:	460c      	mov	r4, r1
 80091d8:	461e      	mov	r6, r3
 80091da:	2000      	movs	r0, #0
 80091dc:	690d      	ldr	r5, [r1, #16]
 80091de:	f101 0c14 	add.w	ip, r1, #20
 80091e2:	f8dc 3000 	ldr.w	r3, [ip]
 80091e6:	3001      	adds	r0, #1
 80091e8:	b299      	uxth	r1, r3
 80091ea:	fb02 6101 	mla	r1, r2, r1, r6
 80091ee:	0c1e      	lsrs	r6, r3, #16
 80091f0:	0c0b      	lsrs	r3, r1, #16
 80091f2:	fb02 3306 	mla	r3, r2, r6, r3
 80091f6:	b289      	uxth	r1, r1
 80091f8:	eb01 4103 	add.w	r1, r1, r3, lsl #16
 80091fc:	4285      	cmp	r5, r0
 80091fe:	ea4f 4613 	mov.w	r6, r3, lsr #16
 8009202:	f84c 1b04 	str.w	r1, [ip], #4
 8009206:	dcec      	bgt.n	80091e2 <__multadd+0x12>
 8009208:	b30e      	cbz	r6, 800924e <__multadd+0x7e>
 800920a:	68a3      	ldr	r3, [r4, #8]
 800920c:	42ab      	cmp	r3, r5
 800920e:	dc19      	bgt.n	8009244 <__multadd+0x74>
 8009210:	6861      	ldr	r1, [r4, #4]
 8009212:	4638      	mov	r0, r7
 8009214:	3101      	adds	r1, #1
 8009216:	f7ff ff79 	bl	800910c <_Balloc>
 800921a:	4680      	mov	r8, r0
 800921c:	b928      	cbnz	r0, 800922a <__multadd+0x5a>
 800921e:	4602      	mov	r2, r0
 8009220:	21ba      	movs	r1, #186	@ 0xba
 8009222:	4b0c      	ldr	r3, [pc, #48]	@ (8009254 <__multadd+0x84>)
 8009224:	480c      	ldr	r0, [pc, #48]	@ (8009258 <__multadd+0x88>)
 8009226:	f000 fba3 	bl	8009970 <__assert_func>
 800922a:	6922      	ldr	r2, [r4, #16]
 800922c:	f104 010c 	add.w	r1, r4, #12
 8009230:	3202      	adds	r2, #2
 8009232:	0092      	lsls	r2, r2, #2
 8009234:	300c      	adds	r0, #12
 8009236:	f7ff f800 	bl	800823a <memcpy>
 800923a:	4621      	mov	r1, r4
 800923c:	4638      	mov	r0, r7
 800923e:	f7ff ffa5 	bl	800918c <_Bfree>
 8009242:	4644      	mov	r4, r8
 8009244:	eb04 0385 	add.w	r3, r4, r5, lsl #2
 8009248:	3501      	adds	r5, #1
 800924a:	615e      	str	r6, [r3, #20]
 800924c:	6125      	str	r5, [r4, #16]
 800924e:	4620      	mov	r0, r4
 8009250:	e8bd 81f0 	ldmia.w	sp!, {r4, r5, r6, r7, r8, pc}
 8009254:	0800a0e6 	.word	0x0800a0e6
 8009258:	0800a0f7 	.word	0x0800a0f7

0800925c <__hi0bits>:
 800925c:	4603      	mov	r3, r0
 800925e:	f5b0 3f80 	cmp.w	r0, #65536	@ 0x10000
 8009262:	bf3a      	itte	cc
 8009264:	0403      	lslcc	r3, r0, #16
 8009266:	2010      	movcc	r0, #16
 8009268:	2000      	movcs	r0, #0
 800926a:	f1b3 7f80 	cmp.w	r3, #16777216	@ 0x1000000
 800926e:	bf3c      	itt	cc
 8009270:	021b      	lslcc	r3, r3, #8
 8009272:	3008      	addcc	r0, #8
 8009274:	f1b3 5f80 	cmp.w	r3, #268435456	@ 0x10000000
 8009278:	bf3c      	itt	cc
 800927a:	011b      	lslcc	r3, r3, #4
 800927c:	3004      	addcc	r0, #4
 800927e:	f1b3 4f80 	cmp.w	r3, #1073741824	@ 0x40000000
 8009282:	bf3c      	itt	cc
 8009284:	009b      	lslcc	r3, r3, #2
 8009286:	3002      	addcc	r0, #2
 8009288:	2b00      	cmp	r3, #0
 800928a:	db05      	blt.n	8009298 <__hi0bits+0x3c>
 800928c:	f013 4f80 	tst.w	r3, #1073741824	@ 0x40000000
 8009290:	f100 0001 	add.w	r0, r0, #1
 8009294:	bf08      	it	eq
 8009296:	2020      	moveq	r0, #32
 8009298:	4770      	bx	lr

0800929a <__lo0bits>:
 800929a:	6803      	ldr	r3, [r0, #0]
 800929c:	4602      	mov	r2, r0
 800929e:	f013 0007 	ands.w	r0, r3, #7
 80092a2:	d00b      	beq.n	80092bc <__lo0bits+0x22>
 80092a4:	07d9      	lsls	r1, r3, #31
 80092a6:	d421      	bmi.n	80092ec <__lo0bits+0x52>
 80092a8:	0798      	lsls	r0, r3, #30
 80092aa:	bf49      	itett	mi
 80092ac:	085b      	lsrmi	r3, r3, #1
 80092ae:	089b      	lsrpl	r3, r3, #2
 80092b0:	2001      	movmi	r0, #1
 80092b2:	6013      	strmi	r3, [r2, #0]
 80092b4:	bf5c      	itt	pl
 80092b6:	2002      	movpl	r0, #2
 80092b8:	6013      	strpl	r3, [r2, #0]
 80092ba:	4770      	bx	lr
 80092bc:	b299      	uxth	r1, r3
 80092be:	b909      	cbnz	r1, 80092c4 <__lo0bits+0x2a>
 80092c0:	2010      	movs	r0, #16
 80092c2:	0c1b      	lsrs	r3, r3, #16
 80092c4:	b2d9      	uxtb	r1, r3
 80092c6:	b909      	cbnz	r1, 80092cc <__lo0bits+0x32>
 80092c8:	3008      	adds	r0, #8
 80092ca:	0a1b      	lsrs	r3, r3, #8
 80092cc:	0719      	lsls	r1, r3, #28
 80092ce:	bf04      	itt	eq
 80092d0:	091b      	lsreq	r3, r3, #4
 80092d2:	3004      	addeq	r0, #4
 80092d4:	0799      	lsls	r1, r3, #30
 80092d6:	bf04      	itt	eq
 80092d8:	089b      	lsreq	r3, r3, #2
 80092da:	3002      	addeq	r0, #2
 80092dc:	07d9      	lsls	r1, r3, #31
 80092de:	d403      	bmi.n	80092e8 <__lo0bits+0x4e>
 80092e0:	085b      	lsrs	r3, r3, #1
 80092e2:	f100 0001 	add.w	r0, r0, #1
 80092e6:	d003      	beq.n	80092f0 <__lo0bits+0x56>
 80092e8:	6013      	str	r3, [r2, #0]
 80092ea:	4770      	bx	lr
 80092ec:	2000      	movs	r0, #0
 80092ee:	4770      	bx	lr
 80092f0:	2020      	movs	r0, #32
 80092f2:	4770      	bx	lr

080092f4 <__i2b>:
 80092f4:	b510      	push	{r4, lr}
 80092f6:	460c      	mov	r4, r1
 80092f8:	2101      	movs	r1, #1
 80092fa:	f7ff ff07 	bl	800910c <_Balloc>
 80092fe:	4602      	mov	r2, r0
 8009300:	b928      	cbnz	r0, 800930e <__i2b+0x1a>
 8009302:	f240 1145 	movw	r1, #325	@ 0x145
 8009306:	4b04      	ldr	r3, [pc, #16]	@ (8009318 <__i2b+0x24>)
 8009308:	4804      	ldr	r0, [pc, #16]	@ (800931c <__i2b+0x28>)
 800930a:	f000 fb31 	bl	8009970 <__assert_func>
 800930e:	2301      	movs	r3, #1
 8009310:	6144      	str	r4, [r0, #20]
 8009312:	6103      	str	r3, [r0, #16]
 8009314:	bd10      	pop	{r4, pc}
 8009316:	bf00      	nop
 8009318:	0800a0e6 	.word	0x0800a0e6
 800931c:	0800a0f7 	.word	0x0800a0f7

08009320 <__multiply>:
 8009320:	e92d 4ff0 	stmdb	sp!, {r4, r5, r6, r7, r8, r9, sl, fp, lr}
 8009324:	4617      	mov	r7, r2
 8009326:	690a      	ldr	r2, [r1, #16]
 8009328:	693b      	ldr	r3, [r7, #16]
 800932a:	4689      	mov	r9, r1
 800932c:	429a      	cmp	r2, r3
 800932e:	bfa2      	ittt	ge
 8009330:	463b      	movge	r3, r7
 8009332:	460f      	movge	r7, r1
 8009334:	4699      	movge	r9, r3
 8009336:	693d      	ldr	r5, [r7, #16]
 8009338:	f8d9 a010 	ldr.w	sl, [r9, #16]
 800933c:	68bb      	ldr	r3, [r7, #8]
 800933e:	6879      	ldr	r1, [r7, #4]
 8009340:	eb05 060a 	add.w	r6, r5, sl
 8009344:	42b3      	cmp	r3, r6
 8009346:	b085      	sub	sp, #20
 8009348:	bfb8      	it	lt
 800934a:	3101      	addlt	r1, #1
 800934c:	f7ff fede 	bl	800910c <_Balloc>
 8009350:	b930      	cbnz	r0, 8009360 <__multiply+0x40>
 8009352:	4602      	mov	r2, r0
 8009354:	f44f 71b1 	mov.w	r1, #354	@ 0x162
 8009358:	4b40      	ldr	r3, [pc, #256]	@ (800945c <__multiply+0x13c>)
 800935a:	4841      	ldr	r0, [pc, #260]	@ (8009460 <__multiply+0x140>)
 800935c:	f000 fb08 	bl	8009970 <__assert_func>
 8009360:	f100 0414 	add.w	r4, r0, #20
 8009364:	4623      	mov	r3, r4
 8009366:	2200      	movs	r2, #0
 8009368:	eb04 0e86 	add.w	lr, r4, r6, lsl #2
 800936c:	4573      	cmp	r3, lr
 800936e:	d320      	bcc.n	80093b2 <__multiply+0x92>
 8009370:	f107 0814 	add.w	r8, r7, #20
 8009374:	f109 0114 	add.w	r1, r9, #20
 8009378:	eb08 0585 	add.w	r5, r8, r5, lsl #2
 800937c:	eb01 038a 	add.w	r3, r1, sl, lsl #2
 8009380:	9302      	str	r3, [sp, #8]
 8009382:	1beb      	subs	r3, r5, r7
 8009384:	3b15      	subs	r3, #21
 8009386:	f023 0303 	bic.w	r3, r3, #3
 800938a:	3304      	adds	r3, #4
 800938c:	3715      	adds	r7, #21
 800938e:	42bd      	cmp	r5, r7
 8009390:	bf38      	it	cc
 8009392:	2304      	movcc	r3, #4
 8009394:	9301      	str	r3, [sp, #4]
 8009396:	9b02      	ldr	r3, [sp, #8]
 8009398:	9103      	str	r1, [sp, #12]
 800939a:	428b      	cmp	r3, r1
 800939c:	d80c      	bhi.n	80093b8 <__multiply+0x98>
 800939e:	2e00      	cmp	r6, #0
 80093a0:	dd03      	ble.n	80093aa <__multiply+0x8a>
 80093a2:	f85e 3d04 	ldr.w	r3, [lr, #-4]!
 80093a6:	2b00      	cmp	r3, #0
 80093a8:	d055      	beq.n	8009456 <__multiply+0x136>
 80093aa:	6106      	str	r6, [r0, #16]
 80093ac:	b005      	add	sp, #20
 80093ae:	e8bd 8ff0 	ldmia.w	sp!, {r4, r5, r6, r7, r8, r9, sl, fp, pc}
 80093b2:	f843 2b04 	str.w	r2, [r3], #4
 80093b6:	e7d9      	b.n	800936c <__multiply+0x4c>
 80093b8:	f8b1 a000 	ldrh.w	sl, [r1]
 80093bc:	f1ba 0f00 	cmp.w	sl, #0
 80093c0:	d01f      	beq.n	8009402 <__multiply+0xe2>
 80093c2:	46c4      	mov	ip, r8
 80093c4:	46a1      	mov	r9, r4
 80093c6:	2700      	movs	r7, #0
 80093c8:	f85c 2b04 	ldr.w	r2, [ip], #4
 80093cc:	f8d9 3000 	ldr.w	r3, [r9]
 80093d0:	fa1f fb82 	uxth.w	fp, r2
 80093d4:	b29b      	uxth	r3, r3
 80093d6:	fb0a 330b 	mla	r3, sl, fp, r3
 80093da:	443b      	add	r3, r7
 80093dc:	f8d9 7000 	ldr.w	r7, [r9]
 80093e0:	0c12      	lsrs	r2, r2, #16
 80093e2:	0c3f      	lsrs	r7, r7, #16
 80093e4:	fb0a 7202 	mla	r2, sl, r2, r7
 80093e8:	eb02 4213 	add.w	r2, r2, r3, lsr #16
 80093ec:	b29b      	uxth	r3, r3
 80093ee:	ea43 4302 	orr.w	r3, r3, r2, lsl #16
 80093f2:	4565      	cmp	r5, ip
 80093f4:	ea4f 4712 	mov.w	r7, r2, lsr #16
 80093f8:	f849 3b04 	str.w	r3, [r9], #4
 80093fc:	d8e4      	bhi.n	80093c8 <__multiply+0xa8>
 80093fe:	9b01      	ldr	r3, [sp, #4]
 8009400:	50e7      	str	r7, [r4, r3]
 8009402:	9b03      	ldr	r3, [sp, #12]
 8009404:	3104      	adds	r1, #4
 8009406:	f8b3 9002 	ldrh.w	r9, [r3, #2]
 800940a:	f1b9 0f00 	cmp.w	r9, #0
 800940e:	d020      	beq.n	8009452 <__multiply+0x132>
 8009410:	4647      	mov	r7, r8
 8009412:	46a4      	mov	ip, r4
 8009414:	f04f 0a00 	mov.w	sl, #0
 8009418:	6823      	ldr	r3, [r4, #0]
 800941a:	f8b7 b000 	ldrh.w	fp, [r7]
 800941e:	f8bc 2002 	ldrh.w	r2, [ip, #2]
 8009422:	b29b      	uxth	r3, r3
 8009424:	fb09 220b 	mla	r2, r9, fp, r2
 8009428:	4452      	add	r2, sl
 800942a:	ea43 4302 	orr.w	r3, r3, r2, lsl #16
 800942e:	f84c 3b04 	str.w	r3, [ip], #4
 8009432:	f857 3b04 	ldr.w	r3, [r7], #4
 8009436:	ea4f 4a13 	mov.w	sl, r3, lsr #16
 800943a:	f8bc 3000 	ldrh.w	r3, [ip]
 800943e:	42bd      	cmp	r5, r7
 8009440:	fb09 330a 	mla	r3, r9, sl, r3
 8009444:	eb03 4312 	add.w	r3, r3, r2, lsr #16
 8009448:	ea4f 4a13 	mov.w	sl, r3, lsr #16
 800944c:	d8e5      	bhi.n	800941a <__multiply+0xfa>
 800944e:	9a01      	ldr	r2, [sp, #4]
 8009450:	50a3      	str	r3, [r4, r2]
 8009452:	3404      	adds	r4, #4
 8009454:	e79f      	b.n	8009396 <__multiply+0x76>
 8009456:	3e01      	subs	r6, #1
 8009458:	e7a1      	b.n	800939e <__multiply+0x7e>
 800945a:	bf00      	nop
 800945c:	0800a0e6 	.word	0x0800a0e6
 8009460:	0800a0f7 	.word	0x0800a0f7

08009464 <__pow5mult>:
 8009464:	e92d 43f8 	stmdb	sp!, {r3, r4, r5, r6, r7, r8, r9, lr}
 8009468:	4615      	mov	r5, r2
 800946a:	f012 0203 	ands.w	r2, r2, #3
 800946e:	4607      	mov	r7, r0
 8009470:	460e      	mov	r6, r1
 8009472:	d007      	beq.n	8009484 <__pow5mult+0x20>
 8009474:	4c25      	ldr	r4, [pc, #148]	@ (800950c <__pow5mult+0xa8>)
 8009476:	3a01      	subs	r2, #1
 8009478:	2300      	movs	r3, #0
 800947a:	f854 2022 	ldr.w	r2, [r4, r2, lsl #2]
 800947e:	f7ff fea7 	bl	80091d0 <__multadd>
 8009482:	4606      	mov	r6, r0
 8009484:	10ad      	asrs	r5, r5, #2
 8009486:	d03d      	beq.n	8009504 <__pow5mult+0xa0>
 8009488:	69fc      	ldr	r4, [r7, #28]
 800948a:	b97c      	cbnz	r4, 80094ac <__pow5mult+0x48>
 800948c:	2010      	movs	r0, #16
 800948e:	f7ff fd87 	bl	8008fa0 <malloc>
 8009492:	4602      	mov	r2, r0
 8009494:	61f8      	str	r0, [r7, #28]
 8009496:	b928      	cbnz	r0, 80094a4 <__pow5mult+0x40>
 8009498:	f240 11b3 	movw	r1, #435	@ 0x1b3
 800949c:	4b1c      	ldr	r3, [pc, #112]	@ (8009510 <__pow5mult+0xac>)
 800949e:	481d      	ldr	r0, [pc, #116]	@ (8009514 <__pow5mult+0xb0>)
 80094a0:	f000 fa66 	bl	8009970 <__assert_func>
 80094a4:	e9c0 4401 	strd	r4, r4, [r0, #4]
 80094a8:	6004      	str	r4, [r0, #0]
 80094aa:	60c4      	str	r4, [r0, #12]
 80094ac:	f8d7 801c 	ldr.w	r8, [r7, #28]
 80094b0:	f8d8 4008 	ldr.w	r4, [r8, #8]
 80094b4:	b94c      	cbnz	r4, 80094ca <__pow5mult+0x66>
 80094b6:	f240 2171 	movw	r1, #625	@ 0x271
 80094ba:	4638      	mov	r0, r7
 80094bc:	f7ff ff1a 	bl	80092f4 <__i2b>
 80094c0:	2300      	movs	r3, #0
 80094c2:	4604      	mov	r4, r0
 80094c4:	f8c8 0008 	str.w	r0, [r8, #8]
 80094c8:	6003      	str	r3, [r0, #0]
 80094ca:	f04f 0900 	mov.w	r9, #0
 80094ce:	07eb      	lsls	r3, r5, #31
 80094d0:	d50a      	bpl.n	80094e8 <__pow5mult+0x84>
 80094d2:	4631      	mov	r1, r6
 80094d4:	4622      	mov	r2, r4
 80094d6:	4638      	mov	r0, r7
 80094d8:	f7ff ff22 	bl	8009320 <__multiply>
 80094dc:	4680      	mov	r8, r0
 80094de:	4631      	mov	r1, r6
 80094e0:	4638      	mov	r0, r7
 80094e2:	f7ff fe53 	bl	800918c <_Bfree>
 80094e6:	4646      	mov	r6, r8
 80094e8:	106d      	asrs	r5, r5, #1
 80094ea:	d00b      	beq.n	8009504 <__pow5mult+0xa0>
 80094ec:	6820      	ldr	r0, [r4, #0]
 80094ee:	b938      	cbnz	r0, 8009500 <__pow5mult+0x9c>
 80094f0:	4622      	mov	r2, r4
 80094f2:	4621      	mov	r1, r4
 80094f4:	4638      	mov	r0, r7
 80094f6:	f7ff ff13 	bl	8009320 <__multiply>
 80094fa:	6020      	str	r0, [r4, #0]
 80094fc:	f8c0 9000 	str.w	r9, [r0]
 8009500:	4604      	mov	r4, r0
 8009502:	e7e4      	b.n	80094ce <__pow5mult+0x6a>
 8009504:	4630      	mov	r0, r6
 8009506:	e8bd 83f8 	ldmia.w	sp!, {r3, r4, r5, r6, r7, r8, r9, pc}
 800950a:	bf00      	nop
 800950c:	0800a1d4 	.word	0x0800a1d4
 8009510:	0800a077 	.word	0x0800a077
 8009514:	0800a0f7 	.word	0x0800a0f7

08009518 <__lshift>:
 8009518:	e92d 47f0 	stmdb	sp!, {r4, r5, r6, r7, r8, r9, sl, lr}
 800951c:	460c      	mov	r4, r1
 800951e:	4607      	mov	r7, r0
 8009520:	4691      	mov	r9, r2
 8009522:	6923      	ldr	r3, [r4, #16]
 8009524:	6849      	ldr	r1, [r1, #4]
 8009526:	eb03 1862 	add.w	r8, r3, r2, asr #5
 800952a:	68a3      	ldr	r3, [r4, #8]
 800952c:	ea4f 1a62 	mov.w	sl, r2, asr #5
 8009530:	f108 0601 	add.w	r6, r8, #1
 8009534:	42b3      	cmp	r3, r6
 8009536:	db0b      	blt.n	8009550 <__lshift+0x38>
 8009538:	4638      	mov	r0, r7
 800953a:	f7ff fde7 	bl	800910c <_Balloc>
 800953e:	4605      	mov	r5, r0
 8009540:	b948      	cbnz	r0, 8009556 <__lshift+0x3e>
 8009542:	4602      	mov	r2, r0
 8009544:	f44f 71ef 	mov.w	r1, #478	@ 0x1de
 8009548:	4b27      	ldr	r3, [pc, #156]	@ (80095e8 <__lshift+0xd0>)
 800954a:	4828      	ldr	r0, [pc, #160]	@ (80095ec <__lshift+0xd4>)
 800954c:	f000 fa10 	bl	8009970 <__assert_func>
 8009550:	3101      	adds	r1, #1
 8009552:	005b      	lsls	r3, r3, #1
 8009554:	e7ee      	b.n	8009534 <__lshift+0x1c>
 8009556:	2300      	movs	r3, #0
 8009558:	f100 0114 	add.w	r1, r0, #20
 800955c:	f100 0210 	add.w	r2, r0, #16
 8009560:	4618      	mov	r0, r3
 8009562:	4553      	cmp	r3, sl
 8009564:	db33      	blt.n	80095ce <__lshift+0xb6>
 8009566:	6920      	ldr	r0, [r4, #16]
 8009568:	ea2a 7aea 	bic.w	sl, sl, sl, asr #31
 800956c:	f104 0314 	add.w	r3, r4, #20
 8009570:	f019 091f 	ands.w	r9, r9, #31
 8009574:	eb01 018a 	add.w	r1, r1, sl, lsl #2
 8009578:	eb03 0c80 	add.w	ip, r3, r0, lsl #2
 800957c:	d02b      	beq.n	80095d6 <__lshift+0xbe>
 800957e:	468a      	mov	sl, r1
 8009580:	2200      	movs	r2, #0
 8009582:	f1c9 0e20 	rsb	lr, r9, #32
 8009586:	6818      	ldr	r0, [r3, #0]
 8009588:	fa00 f009 	lsl.w	r0, r0, r9
 800958c:	4310      	orrs	r0, r2
 800958e:	f84a 0b04 	str.w	r0, [sl], #4
 8009592:	f853 2b04 	ldr.w	r2, [r3], #4
 8009596:	459c      	cmp	ip, r3
 8009598:	fa22 f20e 	lsr.w	r2, r2, lr
 800959c:	d8f3      	bhi.n	8009586 <__lshift+0x6e>
 800959e:	ebac 0304 	sub.w	r3, ip, r4
 80095a2:	3b15      	subs	r3, #21
 80095a4:	f023 0303 	bic.w	r3, r3, #3
 80095a8:	3304      	adds	r3, #4
 80095aa:	f104 0015 	add.w	r0, r4, #21
 80095ae:	4560      	cmp	r0, ip
 80095b0:	bf88      	it	hi
 80095b2:	2304      	movhi	r3, #4
 80095b4:	50ca      	str	r2, [r1, r3]
 80095b6:	b10a      	cbz	r2, 80095bc <__lshift+0xa4>
 80095b8:	f108 0602 	add.w	r6, r8, #2
 80095bc:	3e01      	subs	r6, #1
 80095be:	4638      	mov	r0, r7
 80095c0:	4621      	mov	r1, r4
 80095c2:	612e      	str	r6, [r5, #16]
 80095c4:	f7ff fde2 	bl	800918c <_Bfree>
 80095c8:	4628      	mov	r0, r5
 80095ca:	e8bd 87f0 	ldmia.w	sp!, {r4, r5, r6, r7, r8, r9, sl, pc}
 80095ce:	f842 0f04 	str.w	r0, [r2, #4]!
 80095d2:	3301      	adds	r3, #1
 80095d4:	e7c5      	b.n	8009562 <__lshift+0x4a>
 80095d6:	3904      	subs	r1, #4
 80095d8:	f853 2b04 	ldr.w	r2, [r3], #4
 80095dc:	459c      	cmp	ip, r3
 80095de:	f841 2f04 	str.w	r2, [r1, #4]!
 80095e2:	d8f9      	bhi.n	80095d8 <__lshift+0xc0>
 80095e4:	e7ea      	b.n	80095bc <__lshift+0xa4>
 80095e6:	bf00      	nop
 80095e8:	0800a0e6 	.word	0x0800a0e6
 80095ec:	0800a0f7 	.word	0x0800a0f7

080095f0 <__mcmp>:
 80095f0:	4603      	mov	r3, r0
 80095f2:	690a      	ldr	r2, [r1, #16]
 80095f4:	6900      	ldr	r0, [r0, #16]
 80095f6:	b530      	push	{r4, r5, lr}
 80095f8:	1a80      	subs	r0, r0, r2
 80095fa:	d10e      	bne.n	800961a <__mcmp+0x2a>
 80095fc:	3314      	adds	r3, #20
 80095fe:	3114      	adds	r1, #20
 8009600:	eb03 0482 	add.w	r4, r3, r2, lsl #2
 8009604:	eb01 0182 	add.w	r1, r1, r2, lsl #2
 8009608:	f854 5d04 	ldr.w	r5, [r4, #-4]!
 800960c:	f851 2d04 	ldr.w	r2, [r1, #-4]!
 8009610:	4295      	cmp	r5, r2
 8009612:	d003      	beq.n	800961c <__mcmp+0x2c>
 8009614:	d205      	bcs.n	8009622 <__mcmp+0x32>
 8009616:	f04f 30ff 	mov.w	r0, #4294967295
 800961a:	bd30      	pop	{r4, r5, pc}
 800961c:	42a3      	cmp	r3, r4
 800961e:	d3f3      	bcc.n	8009608 <__mcmp+0x18>
 8009620:	e7fb      	b.n	800961a <__mcmp+0x2a>
 8009622:	2001      	movs	r0, #1
 8009624:	e7f9      	b.n	800961a <__mcmp+0x2a>
	...

08009628 <__mdiff>:
 8009628:	e92d 4ff7 	stmdb	sp!, {r0, r1, r2, r4, r5, r6, r7, r8, r9, sl, fp, lr}
 800962c:	4689      	mov	r9, r1
 800962e:	4606      	mov	r6, r0
 8009630:	4611      	mov	r1, r2
 8009632:	4648      	mov	r0, r9
 8009634:	4614      	mov	r4, r2
 8009636:	f7ff ffdb 	bl	80095f0 <__mcmp>
 800963a:	1e05      	subs	r5, r0, #0
 800963c:	d112      	bne.n	8009664 <__mdiff+0x3c>
 800963e:	4629      	mov	r1, r5
 8009640:	4630      	mov	r0, r6
 8009642:	f7ff fd63 	bl	800910c <_Balloc>
 8009646:	4602      	mov	r2, r0
 8009648:	b928      	cbnz	r0, 8009656 <__mdiff+0x2e>
 800964a:	f240 2137 	movw	r1, #567	@ 0x237
 800964e:	4b3e      	ldr	r3, [pc, #248]	@ (8009748 <__mdiff+0x120>)
 8009650:	483e      	ldr	r0, [pc, #248]	@ (800974c <__mdiff+0x124>)
 8009652:	f000 f98d 	bl	8009970 <__assert_func>
 8009656:	2301      	movs	r3, #1
 8009658:	e9c0 3504 	strd	r3, r5, [r0, #16]
 800965c:	4610      	mov	r0, r2
 800965e:	b003      	add	sp, #12
 8009660:	e8bd 8ff0 	ldmia.w	sp!, {r4, r5, r6, r7, r8, r9, sl, fp, pc}
 8009664:	bfbc      	itt	lt
 8009666:	464b      	movlt	r3, r9
 8009668:	46a1      	movlt	r9, r4
 800966a:	4630      	mov	r0, r6
 800966c:	f8d9 1004 	ldr.w	r1, [r9, #4]
 8009670:	bfba      	itte	lt
 8009672:	461c      	movlt	r4, r3
 8009674:	2501      	movlt	r5, #1
 8009676:	2500      	movge	r5, #0
 8009678:	f7ff fd48 	bl	800910c <_Balloc>
 800967c:	4602      	mov	r2, r0
 800967e:	b918      	cbnz	r0, 8009688 <__mdiff+0x60>
 8009680:	f240 2145 	movw	r1, #581	@ 0x245
 8009684:	4b30      	ldr	r3, [pc, #192]	@ (8009748 <__mdiff+0x120>)
 8009686:	e7e3      	b.n	8009650 <__mdiff+0x28>
 8009688:	f100 0b14 	add.w	fp, r0, #20
 800968c:	f8d9 7010 	ldr.w	r7, [r9, #16]
 8009690:	f109 0310 	add.w	r3, r9, #16
 8009694:	60c5      	str	r5, [r0, #12]
 8009696:	f04f 0c00 	mov.w	ip, #0
 800969a:	f109 0514 	add.w	r5, r9, #20
 800969e:	46d9      	mov	r9, fp
 80096a0:	6926      	ldr	r6, [r4, #16]
 80096a2:	f104 0e14 	add.w	lr, r4, #20
 80096a6:	eb05 0887 	add.w	r8, r5, r7, lsl #2
 80096aa:	eb0e 0686 	add.w	r6, lr, r6, lsl #2
 80096ae:	9301      	str	r3, [sp, #4]
 80096b0:	9b01      	ldr	r3, [sp, #4]
 80096b2:	f85e 0b04 	ldr.w	r0, [lr], #4
 80096b6:	f853 af04 	ldr.w	sl, [r3, #4]!
 80096ba:	b281      	uxth	r1, r0
 80096bc:	9301      	str	r3, [sp, #4]
 80096be:	fa1f f38a 	uxth.w	r3, sl
 80096c2:	1a5b      	subs	r3, r3, r1
 80096c4:	0c00      	lsrs	r0, r0, #16
 80096c6:	4463      	add	r3, ip
 80096c8:	ebc0 401a 	rsb	r0, r0, sl, lsr #16
 80096cc:	eb00 4023 	add.w	r0, r0, r3, asr #16
 80096d0:	b29b      	uxth	r3, r3
 80096d2:	ea43 4300 	orr.w	r3, r3, r0, lsl #16
 80096d6:	4576      	cmp	r6, lr
 80096d8:	ea4f 4c20 	mov.w	ip, r0, asr #16
 80096dc:	f849 3b04 	str.w	r3, [r9], #4
 80096e0:	d8e6      	bhi.n	80096b0 <__mdiff+0x88>
 80096e2:	1b33      	subs	r3, r6, r4
 80096e4:	3b15      	subs	r3, #21
 80096e6:	f023 0303 	bic.w	r3, r3, #3
 80096ea:	3415      	adds	r4, #21
 80096ec:	3304      	adds	r3, #4
 80096ee:	42a6      	cmp	r6, r4
 80096f0:	bf38      	it	cc
 80096f2:	2304      	movcc	r3, #4
 80096f4:	441d      	add	r5, r3
 80096f6:	445b      	add	r3, fp
 80096f8:	461e      	mov	r6, r3
 80096fa:	462c      	mov	r4, r5
 80096fc:	4544      	cmp	r4, r8
 80096fe:	d30e      	bcc.n	800971e <__mdiff+0xf6>
 8009700:	f108 0103 	add.w	r1, r8, #3
 8009704:	1b49      	subs	r1, r1, r5
 8009706:	f021 0103 	bic.w	r1, r1, #3
 800970a:	3d03      	subs	r5, #3
 800970c:	45a8      	cmp	r8, r5
 800970e:	bf38      	it	cc
 8009710:	2100      	movcc	r1, #0
 8009712:	440b      	add	r3, r1
 8009714:	f853 1d04 	ldr.w	r1, [r3, #-4]!
 8009718:	b199      	cbz	r1, 8009742 <__mdiff+0x11a>
 800971a:	6117      	str	r7, [r2, #16]
 800971c:	e79e      	b.n	800965c <__mdiff+0x34>
 800971e:	46e6      	mov	lr, ip
 8009720:	f854 1b04 	ldr.w	r1, [r4], #4
 8009724:	fa1f fc81 	uxth.w	ip, r1
 8009728:	44f4      	add	ip, lr
 800972a:	0c08      	lsrs	r0, r1, #16
 800972c:	4471      	add	r1, lr
 800972e:	eb00 402c 	add.w	r0, r0, ip, asr #16
 8009732:	b289      	uxth	r1, r1
 8009734:	ea41 4100 	orr.w	r1, r1, r0, lsl #16
 8009738:	ea4f 4c20 	mov.w	ip, r0, asr #16
 800973c:	f846 1b04 	str.w	r1, [r6], #4
 8009740:	e7dc      	b.n	80096fc <__mdiff+0xd4>
 8009742:	3f01      	subs	r7, #1
 8009744:	e7e6      	b.n	8009714 <__mdiff+0xec>
 8009746:	bf00      	nop
 8009748:	0800a0e6 	.word	0x0800a0e6
 800974c:	0800a0f7 	.word	0x0800a0f7

08009750 <__d2b>:
 8009750:	e92d 4373 	stmdb	sp!, {r0, r1, r4, r5, r6, r8, r9, lr}
 8009754:	2101      	movs	r1, #1
 8009756:	4690      	mov	r8, r2
 8009758:	4699      	mov	r9, r3
 800975a:	9e08      	ldr	r6, [sp, #32]
 800975c:	f7ff fcd6 	bl	800910c <_Balloc>
 8009760:	4604      	mov	r4, r0
 8009762:	b930      	cbnz	r0, 8009772 <__d2b+0x22>
 8009764:	4602      	mov	r2, r0
 8009766:	f240 310f 	movw	r1, #783	@ 0x30f
 800976a:	4b23      	ldr	r3, [pc, #140]	@ (80097f8 <__d2b+0xa8>)
 800976c:	4823      	ldr	r0, [pc, #140]	@ (80097fc <__d2b+0xac>)
 800976e:	f000 f8ff 	bl	8009970 <__assert_func>
 8009772:	f3c9 550a 	ubfx	r5, r9, #20, #11
 8009776:	f3c9 0313 	ubfx	r3, r9, #0, #20
 800977a:	b10d      	cbz	r5, 8009780 <__d2b+0x30>
 800977c:	f443 1380 	orr.w	r3, r3, #1048576	@ 0x100000
 8009780:	9301      	str	r3, [sp, #4]
 8009782:	f1b8 0300 	subs.w	r3, r8, #0
 8009786:	d024      	beq.n	80097d2 <__d2b+0x82>
 8009788:	4668      	mov	r0, sp
 800978a:	9300      	str	r3, [sp, #0]
 800978c:	f7ff fd85 	bl	800929a <__lo0bits>
 8009790:	e9dd 1200 	ldrd	r1, r2, [sp]
 8009794:	b1d8      	cbz	r0, 80097ce <__d2b+0x7e>
 8009796:	f1c0 0320 	rsb	r3, r0, #32
 800979a:	fa02 f303 	lsl.w	r3, r2, r3
 800979e:	430b      	orrs	r3, r1
 80097a0:	40c2      	lsrs	r2, r0
 80097a2:	6163      	str	r3, [r4, #20]
 80097a4:	9201      	str	r2, [sp, #4]
 80097a6:	9b01      	ldr	r3, [sp, #4]
 80097a8:	2b00      	cmp	r3, #0
 80097aa:	bf0c      	ite	eq
 80097ac:	2201      	moveq	r2, #1
 80097ae:	2202      	movne	r2, #2
 80097b0:	61a3      	str	r3, [r4, #24]
 80097b2:	6122      	str	r2, [r4, #16]
 80097b4:	b1ad      	cbz	r5, 80097e2 <__d2b+0x92>
 80097b6:	f2a5 4533 	subw	r5, r5, #1075	@ 0x433
 80097ba:	4405      	add	r5, r0
 80097bc:	6035      	str	r5, [r6, #0]
 80097be:	f1c0 0035 	rsb	r0, r0, #53	@ 0x35
 80097c2:	9b09      	ldr	r3, [sp, #36]	@ 0x24
 80097c4:	6018      	str	r0, [r3, #0]
 80097c6:	4620      	mov	r0, r4
 80097c8:	b002      	add	sp, #8
 80097ca:	e8bd 8370 	ldmia.w	sp!, {r4, r5, r6, r8, r9, pc}
 80097ce:	6161      	str	r1, [r4, #20]
 80097d0:	e7e9      	b.n	80097a6 <__d2b+0x56>
 80097d2:	a801      	add	r0, sp, #4
 80097d4:	f7ff fd61 	bl	800929a <__lo0bits>
 80097d8:	9b01      	ldr	r3, [sp, #4]
 80097da:	2201      	movs	r2, #1
 80097dc:	6163      	str	r3, [r4, #20]
 80097de:	3020      	adds	r0, #32
 80097e0:	e7e7      	b.n	80097b2 <__d2b+0x62>
 80097e2:	f2a0 4032 	subw	r0, r0, #1074	@ 0x432
 80097e6:	eb04 0382 	add.w	r3, r4, r2, lsl #2
 80097ea:	6030      	str	r0, [r6, #0]
 80097ec:	6918      	ldr	r0, [r3, #16]
 80097ee:	f7ff fd35 	bl	800925c <__hi0bits>
 80097f2:	ebc0 1042 	rsb	r0, r0, r2, lsl #5
 80097f6:	e7e4      	b.n	80097c2 <__d2b+0x72>
 80097f8:	0800a0e6 	.word	0x0800a0e6
 80097fc:	0800a0f7 	.word	0x0800a0f7

08009800 <__sflush_r>:
 8009800:	f9b1 200c 	ldrsh.w	r2, [r1, #12]
 8009804:	b5f8      	push	{r3, r4, r5, r6, r7, lr}
 8009806:	0716      	lsls	r6, r2, #28
 8009808:	4605      	mov	r5, r0
 800980a:	460c      	mov	r4, r1
 800980c:	d454      	bmi.n	80098b8 <__sflush_r+0xb8>
 800980e:	684b      	ldr	r3, [r1, #4]
 8009810:	2b00      	cmp	r3, #0
 8009812:	dc02      	bgt.n	800981a <__sflush_r+0x1a>
 8009814:	6c0b      	ldr	r3, [r1, #64]	@ 0x40
 8009816:	2b00      	cmp	r3, #0
 8009818:	dd48      	ble.n	80098ac <__sflush_r+0xac>
 800981a:	6ae6      	ldr	r6, [r4, #44]	@ 0x2c
 800981c:	2e00      	cmp	r6, #0
 800981e:	d045      	beq.n	80098ac <__sflush_r+0xac>
 8009820:	2300      	movs	r3, #0
 8009822:	f412 5280 	ands.w	r2, r2, #4096	@ 0x1000
 8009826:	682f      	ldr	r7, [r5, #0]
 8009828:	6a21      	ldr	r1, [r4, #32]
 800982a:	602b      	str	r3, [r5, #0]
 800982c:	d030      	beq.n	8009890 <__sflush_r+0x90>
 800982e:	6d62      	ldr	r2, [r4, #84]	@ 0x54
 8009830:	89a3      	ldrh	r3, [r4, #12]
 8009832:	0759      	lsls	r1, r3, #29
 8009834:	d505      	bpl.n	8009842 <__sflush_r+0x42>
 8009836:	6863      	ldr	r3, [r4, #4]
 8009838:	1ad2      	subs	r2, r2, r3
 800983a:	6b63      	ldr	r3, [r4, #52]	@ 0x34
 800983c:	b10b      	cbz	r3, 8009842 <__sflush_r+0x42>
 800983e:	6c23      	ldr	r3, [r4, #64]	@ 0x40
 8009840:	1ad2      	subs	r2, r2, r3
 8009842:	2300      	movs	r3, #0
 8009844:	4628      	mov	r0, r5
 8009846:	6ae6      	ldr	r6, [r4, #44]	@ 0x2c
 8009848:	6a21      	ldr	r1, [r4, #32]
 800984a:	47b0      	blx	r6
 800984c:	1c43      	adds	r3, r0, #1
 800984e:	89a3      	ldrh	r3, [r4, #12]
 8009850:	d106      	bne.n	8009860 <__sflush_r+0x60>
 8009852:	6829      	ldr	r1, [r5, #0]
 8009854:	291d      	cmp	r1, #29
 8009856:	d82b      	bhi.n	80098b0 <__sflush_r+0xb0>
 8009858:	4a28      	ldr	r2, [pc, #160]	@ (80098fc <__sflush_r+0xfc>)
 800985a:	40ca      	lsrs	r2, r1
 800985c:	07d6      	lsls	r6, r2, #31
 800985e:	d527      	bpl.n	80098b0 <__sflush_r+0xb0>
 8009860:	2200      	movs	r2, #0
 8009862:	6062      	str	r2, [r4, #4]
 8009864:	6922      	ldr	r2, [r4, #16]
 8009866:	04d9      	lsls	r1, r3, #19
 8009868:	6022      	str	r2, [r4, #0]
 800986a:	d504      	bpl.n	8009876 <__sflush_r+0x76>
 800986c:	1c42      	adds	r2, r0, #1
 800986e:	d101      	bne.n	8009874 <__sflush_r+0x74>
 8009870:	682b      	ldr	r3, [r5, #0]
 8009872:	b903      	cbnz	r3, 8009876 <__sflush_r+0x76>
 8009874:	6560      	str	r0, [r4, #84]	@ 0x54
 8009876:	6b61      	ldr	r1, [r4, #52]	@ 0x34
 8009878:	602f      	str	r7, [r5, #0]
 800987a:	b1b9      	cbz	r1, 80098ac <__sflush_r+0xac>
 800987c:	f104 0344 	add.w	r3, r4, #68	@ 0x44
 8009880:	4299      	cmp	r1, r3
 8009882:	d002      	beq.n	800988a <__sflush_r+0x8a>
 8009884:	4628      	mov	r0, r5
 8009886:	f7ff fb43 	bl	8008f10 <_free_r>
 800988a:	2300      	movs	r3, #0
 800988c:	6363      	str	r3, [r4, #52]	@ 0x34
 800988e:	e00d      	b.n	80098ac <__sflush_r+0xac>
 8009890:	2301      	movs	r3, #1
 8009892:	4628      	mov	r0, r5
 8009894:	47b0      	blx	r6
 8009896:	4602      	mov	r2, r0
 8009898:	1c50      	adds	r0, r2, #1
 800989a:	d1c9      	bne.n	8009830 <__sflush_r+0x30>
 800989c:	682b      	ldr	r3, [r5, #0]
 800989e:	2b00      	cmp	r3, #0
 80098a0:	d0c6      	beq.n	8009830 <__sflush_r+0x30>
 80098a2:	2b1d      	cmp	r3, #29
 80098a4:	d001      	beq.n	80098aa <__sflush_r+0xaa>
 80098a6:	2b16      	cmp	r3, #22
 80098a8:	d11d      	bne.n	80098e6 <__sflush_r+0xe6>
 80098aa:	602f      	str	r7, [r5, #0]
 80098ac:	2000      	movs	r0, #0
 80098ae:	e021      	b.n	80098f4 <__sflush_r+0xf4>
 80098b0:	f043 0340 	orr.w	r3, r3, #64	@ 0x40
 80098b4:	b21b      	sxth	r3, r3
 80098b6:	e01a      	b.n	80098ee <__sflush_r+0xee>
 80098b8:	690f      	ldr	r7, [r1, #16]
 80098ba:	2f00      	cmp	r7, #0
 80098bc:	d0f6      	beq.n	80098ac <__sflush_r+0xac>
 80098be:	0793      	lsls	r3, r2, #30
 80098c0:	bf18      	it	ne
 80098c2:	2300      	movne	r3, #0
 80098c4:	680e      	ldr	r6, [r1, #0]
 80098c6:	bf08      	it	eq
 80098c8:	694b      	ldreq	r3, [r1, #20]
 80098ca:	1bf6      	subs	r6, r6, r7
 80098cc:	600f      	str	r7, [r1, #0]
 80098ce:	608b      	str	r3, [r1, #8]
 80098d0:	2e00      	cmp	r6, #0
 80098d2:	ddeb      	ble.n	80098ac <__sflush_r+0xac>
 80098d4:	4633      	mov	r3, r6
 80098d6:	463a      	mov	r2, r7
 80098d8:	4628      	mov	r0, r5
 80098da:	6a21      	ldr	r1, [r4, #32]
 80098dc:	f8d4 c028 	ldr.w	ip, [r4, #40]	@ 0x28
 80098e0:	47e0      	blx	ip
 80098e2:	2800      	cmp	r0, #0
 80098e4:	dc07      	bgt.n	80098f6 <__sflush_r+0xf6>
 80098e6:	f9b4 300c 	ldrsh.w	r3, [r4, #12]
 80098ea:	f043 0340 	orr.w	r3, r3, #64	@ 0x40
 80098ee:	f04f 30ff 	mov.w	r0, #4294967295
 80098f2:	81a3      	strh	r3, [r4, #12]
 80098f4:	bdf8      	pop	{r3, r4, r5, r6, r7, pc}
 80098f6:	4407      	add	r7, r0
 80098f8:	1a36      	subs	r6, r6, r0
 80098fa:	e7e9      	b.n	80098d0 <__sflush_r+0xd0>
 80098fc:	20400001 	.word	0x20400001

08009900 <_fflush_r>:
 8009900:	b538      	push	{r3, r4, r5, lr}
 8009902:	690b      	ldr	r3, [r1, #16]
 8009904:	4605      	mov	r5, r0
 8009906:	460c      	mov	r4, r1
 8009908:	b913      	cbnz	r3, 8009910 <_fflush_r+0x10>
 800990a:	2500      	movs	r5, #0
 800990c:	4628      	mov	r0, r5
 800990e:	bd38      	pop	{r3, r4, r5, pc}
 8009910:	b118      	cbz	r0, 800991a <_fflush_r+0x1a>
 8009912:	6a03      	ldr	r3, [r0, #32]
 8009914:	b90b      	cbnz	r3, 800991a <_fflush_r+0x1a>
 8009916:	f7fe fb89 	bl	800802c <__sinit>
 800991a:	f9b4 300c 	ldrsh.w	r3, [r4, #12]
 800991e:	2b00      	cmp	r3, #0
 8009920:	d0f3      	beq.n	800990a <_fflush_r+0xa>
 8009922:	6e62      	ldr	r2, [r4, #100]	@ 0x64
 8009924:	07d0      	lsls	r0, r2, #31
 8009926:	d404      	bmi.n	8009932 <_fflush_r+0x32>
 8009928:	0599      	lsls	r1, r3, #22
 800992a:	d402      	bmi.n	8009932 <_fflush_r+0x32>
 800992c:	6da0      	ldr	r0, [r4, #88]	@ 0x58
 800992e:	f7fe fc74 	bl	800821a <__retarget_lock_acquire_recursive>
 8009932:	4628      	mov	r0, r5
 8009934:	4621      	mov	r1, r4
 8009936:	f7ff ff63 	bl	8009800 <__sflush_r>
 800993a:	6e63      	ldr	r3, [r4, #100]	@ 0x64
 800993c:	4605      	mov	r5, r0
 800993e:	07da      	lsls	r2, r3, #31
 8009940:	d4e4      	bmi.n	800990c <_fflush_r+0xc>
 8009942:	89a3      	ldrh	r3, [r4, #12]
 8009944:	059b      	lsls	r3, r3, #22
 8009946:	d4e1      	bmi.n	800990c <_fflush_r+0xc>
 8009948:	6da0      	ldr	r0, [r4, #88]	@ 0x58
 800994a:	f7fe fc67 	bl	800821c <__retarget_lock_release_recursive>
 800994e:	e7dd      	b.n	800990c <_fflush_r+0xc>

08009950 <_sbrk_r>:
 8009950:	b538      	push	{r3, r4, r5, lr}
 8009952:	2300      	movs	r3, #0
 8009954:	4d05      	ldr	r5, [pc, #20]	@ (800996c <_sbrk_r+0x1c>)
 8009956:	4604      	mov	r4, r0
 8009958:	4608      	mov	r0, r1
 800995a:	602b      	str	r3, [r5, #0]
 800995c:	f7f9 fac8 	bl	8002ef0 <_sbrk>
 8009960:	1c43      	adds	r3, r0, #1
 8009962:	d102      	bne.n	800996a <_sbrk_r+0x1a>
 8009964:	682b      	ldr	r3, [r5, #0]
 8009966:	b103      	cbz	r3, 800996a <_sbrk_r+0x1a>
 8009968:	6023      	str	r3, [r4, #0]
 800996a:	bd38      	pop	{r3, r4, r5, pc}
 800996c:	20003764 	.word	0x20003764

08009970 <__assert_func>:
 8009970:	b51f      	push	{r0, r1, r2, r3, r4, lr}
 8009972:	4614      	mov	r4, r2
 8009974:	461a      	mov	r2, r3
 8009976:	4b09      	ldr	r3, [pc, #36]	@ (800999c <__assert_func+0x2c>)
 8009978:	4605      	mov	r5, r0
 800997a:	681b      	ldr	r3, [r3, #0]
 800997c:	68d8      	ldr	r0, [r3, #12]
 800997e:	b14c      	cbz	r4, 8009994 <__assert_func+0x24>
 8009980:	4b07      	ldr	r3, [pc, #28]	@ (80099a0 <__assert_func+0x30>)
 8009982:	e9cd 3401 	strd	r3, r4, [sp, #4]
 8009986:	9100      	str	r1, [sp, #0]
 8009988:	462b      	mov	r3, r5
 800998a:	4906      	ldr	r1, [pc, #24]	@ (80099a4 <__assert_func+0x34>)
 800998c:	f000 f842 	bl	8009a14 <fiprintf>
 8009990:	f000 f852 	bl	8009a38 <abort>
 8009994:	4b04      	ldr	r3, [pc, #16]	@ (80099a8 <__assert_func+0x38>)
 8009996:	461c      	mov	r4, r3
 8009998:	e7f3      	b.n	8009982 <__assert_func+0x12>
 800999a:	bf00      	nop
 800999c:	20000028 	.word	0x20000028
 80099a0:	0800a15a 	.word	0x0800a15a
 80099a4:	0800a167 	.word	0x0800a167
 80099a8:	0800a195 	.word	0x0800a195

080099ac <_calloc_r>:
 80099ac:	b570      	push	{r4, r5, r6, lr}
 80099ae:	fba1 5402 	umull	r5, r4, r1, r2
 80099b2:	b934      	cbnz	r4, 80099c2 <_calloc_r+0x16>
 80099b4:	4629      	mov	r1, r5
 80099b6:	f7ff fb1d 	bl	8008ff4 <_malloc_r>
 80099ba:	4606      	mov	r6, r0
 80099bc:	b928      	cbnz	r0, 80099ca <_calloc_r+0x1e>
 80099be:	4630      	mov	r0, r6
 80099c0:	bd70      	pop	{r4, r5, r6, pc}
 80099c2:	220c      	movs	r2, #12
 80099c4:	2600      	movs	r6, #0
 80099c6:	6002      	str	r2, [r0, #0]
 80099c8:	e7f9      	b.n	80099be <_calloc_r+0x12>
 80099ca:	462a      	mov	r2, r5
 80099cc:	4621      	mov	r1, r4
 80099ce:	f7fe fba6 	bl	800811e <memset>
 80099d2:	e7f4      	b.n	80099be <_calloc_r+0x12>

080099d4 <__ascii_mbtowc>:
 80099d4:	b082      	sub	sp, #8
 80099d6:	b901      	cbnz	r1, 80099da <__ascii_mbtowc+0x6>
 80099d8:	a901      	add	r1, sp, #4
 80099da:	b142      	cbz	r2, 80099ee <__ascii_mbtowc+0x1a>
 80099dc:	b14b      	cbz	r3, 80099f2 <__ascii_mbtowc+0x1e>
 80099de:	7813      	ldrb	r3, [r2, #0]
 80099e0:	600b      	str	r3, [r1, #0]
 80099e2:	7812      	ldrb	r2, [r2, #0]
 80099e4:	1e10      	subs	r0, r2, #0
 80099e6:	bf18      	it	ne
 80099e8:	2001      	movne	r0, #1
 80099ea:	b002      	add	sp, #8
 80099ec:	4770      	bx	lr
 80099ee:	4610      	mov	r0, r2
 80099f0:	e7fb      	b.n	80099ea <__ascii_mbtowc+0x16>
 80099f2:	f06f 0001 	mvn.w	r0, #1
 80099f6:	e7f8      	b.n	80099ea <__ascii_mbtowc+0x16>

080099f8 <__ascii_wctomb>:
 80099f8:	4603      	mov	r3, r0
 80099fa:	4608      	mov	r0, r1
 80099fc:	b141      	cbz	r1, 8009a10 <__ascii_wctomb+0x18>
 80099fe:	2aff      	cmp	r2, #255	@ 0xff
 8009a00:	d904      	bls.n	8009a0c <__ascii_wctomb+0x14>
 8009a02:	228a      	movs	r2, #138	@ 0x8a
 8009a04:	f04f 30ff 	mov.w	r0, #4294967295
 8009a08:	601a      	str	r2, [r3, #0]
 8009a0a:	4770      	bx	lr
 8009a0c:	2001      	movs	r0, #1
 8009a0e:	700a      	strb	r2, [r1, #0]
 8009a10:	4770      	bx	lr
	...

08009a14 <fiprintf>:
 8009a14:	b40e      	push	{r1, r2, r3}
 8009a16:	b503      	push	{r0, r1, lr}
 8009a18:	4601      	mov	r1, r0
 8009a1a:	ab03      	add	r3, sp, #12
 8009a1c:	4805      	ldr	r0, [pc, #20]	@ (8009a34 <fiprintf+0x20>)
 8009a1e:	f853 2b04 	ldr.w	r2, [r3], #4
 8009a22:	6800      	ldr	r0, [r0, #0]
 8009a24:	9301      	str	r3, [sp, #4]
 8009a26:	f000 f835 	bl	8009a94 <_vfiprintf_r>
 8009a2a:	b002      	add	sp, #8
 8009a2c:	f85d eb04 	ldr.w	lr, [sp], #4
 8009a30:	b003      	add	sp, #12
 8009a32:	4770      	bx	lr
 8009a34:	20000028 	.word	0x20000028

08009a38 <abort>:
 8009a38:	2006      	movs	r0, #6
 8009a3a:	b508      	push	{r3, lr}
 8009a3c:	f000 f9fe 	bl	8009e3c <raise>
 8009a40:	2001      	movs	r0, #1
 8009a42:	f7f9 fa27 	bl	8002e94 <_exit>

08009a46 <__sfputc_r>:
 8009a46:	6893      	ldr	r3, [r2, #8]
 8009a48:	b410      	push	{r4}
 8009a4a:	3b01      	subs	r3, #1
 8009a4c:	2b00      	cmp	r3, #0
 8009a4e:	6093      	str	r3, [r2, #8]
 8009a50:	da07      	bge.n	8009a62 <__sfputc_r+0x1c>
 8009a52:	6994      	ldr	r4, [r2, #24]
 8009a54:	42a3      	cmp	r3, r4
 8009a56:	db01      	blt.n	8009a5c <__sfputc_r+0x16>
 8009a58:	290a      	cmp	r1, #10
 8009a5a:	d102      	bne.n	8009a62 <__sfputc_r+0x1c>
 8009a5c:	bc10      	pop	{r4}
 8009a5e:	f000 b931 	b.w	8009cc4 <__swbuf_r>
 8009a62:	6813      	ldr	r3, [r2, #0]
 8009a64:	1c58      	adds	r0, r3, #1
 8009a66:	6010      	str	r0, [r2, #0]
 8009a68:	7019      	strb	r1, [r3, #0]
 8009a6a:	4608      	mov	r0, r1
 8009a6c:	bc10      	pop	{r4}
 8009a6e:	4770      	bx	lr

08009a70 <__sfputs_r>:
 8009a70:	b5f8      	push	{r3, r4, r5, r6, r7, lr}
 8009a72:	4606      	mov	r6, r0
 8009a74:	460f      	mov	r7, r1
 8009a76:	4614      	mov	r4, r2
 8009a78:	18d5      	adds	r5, r2, r3
 8009a7a:	42ac      	cmp	r4, r5
 8009a7c:	d101      	bne.n	8009a82 <__sfputs_r+0x12>
 8009a7e:	2000      	movs	r0, #0
 8009a80:	e007      	b.n	8009a92 <__sfputs_r+0x22>
 8009a82:	463a      	mov	r2, r7
 8009a84:	4630      	mov	r0, r6
 8009a86:	f814 1b01 	ldrb.w	r1, [r4], #1
 8009a8a:	f7ff ffdc 	bl	8009a46 <__sfputc_r>
 8009a8e:	1c43      	adds	r3, r0, #1
 8009a90:	d1f3      	bne.n	8009a7a <__sfputs_r+0xa>
 8009a92:	bdf8      	pop	{r3, r4, r5, r6, r7, pc}

08009a94 <_vfiprintf_r>:
 8009a94:	e92d 4ff0 	stmdb	sp!, {r4, r5, r6, r7, r8, r9, sl, fp, lr}
 8009a98:	460d      	mov	r5, r1
 8009a9a:	4614      	mov	r4, r2
 8009a9c:	4698      	mov	r8, r3
 8009a9e:	4606      	mov	r6, r0
 8009aa0:	b09d      	sub	sp, #116	@ 0x74
 8009aa2:	b118      	cbz	r0, 8009aac <_vfiprintf_r+0x18>
 8009aa4:	6a03      	ldr	r3, [r0, #32]
 8009aa6:	b90b      	cbnz	r3, 8009aac <_vfiprintf_r+0x18>
 8009aa8:	f7fe fac0 	bl	800802c <__sinit>
 8009aac:	6e6b      	ldr	r3, [r5, #100]	@ 0x64
 8009aae:	07d9      	lsls	r1, r3, #31
 8009ab0:	d405      	bmi.n	8009abe <_vfiprintf_r+0x2a>
 8009ab2:	89ab      	ldrh	r3, [r5, #12]
 8009ab4:	059a      	lsls	r2, r3, #22
 8009ab6:	d402      	bmi.n	8009abe <_vfiprintf_r+0x2a>
 8009ab8:	6da8      	ldr	r0, [r5, #88]	@ 0x58
 8009aba:	f7fe fbae 	bl	800821a <__retarget_lock_acquire_recursive>
 8009abe:	89ab      	ldrh	r3, [r5, #12]
 8009ac0:	071b      	lsls	r3, r3, #28
 8009ac2:	d501      	bpl.n	8009ac8 <_vfiprintf_r+0x34>
 8009ac4:	692b      	ldr	r3, [r5, #16]
 8009ac6:	b99b      	cbnz	r3, 8009af0 <_vfiprintf_r+0x5c>
 8009ac8:	4629      	mov	r1, r5
 8009aca:	4630      	mov	r0, r6
 8009acc:	f000 f938 	bl	8009d40 <__swsetup_r>
 8009ad0:	b170      	cbz	r0, 8009af0 <_vfiprintf_r+0x5c>
 8009ad2:	6e6b      	ldr	r3, [r5, #100]	@ 0x64
 8009ad4:	07dc      	lsls	r4, r3, #31
 8009ad6:	d504      	bpl.n	8009ae2 <_vfiprintf_r+0x4e>
 8009ad8:	f04f 30ff 	mov.w	r0, #4294967295
 8009adc:	b01d      	add	sp, #116	@ 0x74
 8009ade:	e8bd 8ff0 	ldmia.w	sp!, {r4, r5, r6, r7, r8, r9, sl, fp, pc}
 8009ae2:	89ab      	ldrh	r3, [r5, #12]
 8009ae4:	0598      	lsls	r0, r3, #22
 8009ae6:	d4f7      	bmi.n	8009ad8 <_vfiprintf_r+0x44>
 8009ae8:	6da8      	ldr	r0, [r5, #88]	@ 0x58
 8009aea:	f7fe fb97 	bl	800821c <__retarget_lock_release_recursive>
 8009aee:	e7f3      	b.n	8009ad8 <_vfiprintf_r+0x44>
 8009af0:	2300      	movs	r3, #0
 8009af2:	9309      	str	r3, [sp, #36]	@ 0x24
 8009af4:	2320      	movs	r3, #32
 8009af6:	f88d 3029 	strb.w	r3, [sp, #41]	@ 0x29
 8009afa:	2330      	movs	r3, #48	@ 0x30
 8009afc:	f04f 0901 	mov.w	r9, #1
 8009b00:	f8cd 800c 	str.w	r8, [sp, #12]
 8009b04:	f8df 81a8 	ldr.w	r8, [pc, #424]	@ 8009cb0 <_vfiprintf_r+0x21c>
 8009b08:	f88d 302a 	strb.w	r3, [sp, #42]	@ 0x2a
 8009b0c:	4623      	mov	r3, r4
 8009b0e:	469a      	mov	sl, r3
 8009b10:	f813 2b01 	ldrb.w	r2, [r3], #1
 8009b14:	b10a      	cbz	r2, 8009b1a <_vfiprintf_r+0x86>
 8009b16:	2a25      	cmp	r2, #37	@ 0x25
 8009b18:	d1f9      	bne.n	8009b0e <_vfiprintf_r+0x7a>
 8009b1a:	ebba 0b04 	subs.w	fp, sl, r4
 8009b1e:	d00b      	beq.n	8009b38 <_vfiprintf_r+0xa4>
 8009b20:	465b      	mov	r3, fp
 8009b22:	4622      	mov	r2, r4
 8009b24:	4629      	mov	r1, r5
 8009b26:	4630      	mov	r0, r6
 8009b28:	f7ff ffa2 	bl	8009a70 <__sfputs_r>
 8009b2c:	3001      	adds	r0, #1
 8009b2e:	f000 80a7 	beq.w	8009c80 <_vfiprintf_r+0x1ec>
 8009b32:	9a09      	ldr	r2, [sp, #36]	@ 0x24
 8009b34:	445a      	add	r2, fp
 8009b36:	9209      	str	r2, [sp, #36]	@ 0x24
 8009b38:	f89a 3000 	ldrb.w	r3, [sl]
 8009b3c:	2b00      	cmp	r3, #0
 8009b3e:	f000 809f 	beq.w	8009c80 <_vfiprintf_r+0x1ec>
 8009b42:	2300      	movs	r3, #0
 8009b44:	f04f 32ff 	mov.w	r2, #4294967295
 8009b48:	e9cd 2305 	strd	r2, r3, [sp, #20]
 8009b4c:	f10a 0a01 	add.w	sl, sl, #1
 8009b50:	9304      	str	r3, [sp, #16]
 8009b52:	9307      	str	r3, [sp, #28]
 8009b54:	f88d 3053 	strb.w	r3, [sp, #83]	@ 0x53
 8009b58:	931a      	str	r3, [sp, #104]	@ 0x68
 8009b5a:	4654      	mov	r4, sl
 8009b5c:	2205      	movs	r2, #5
 8009b5e:	f814 1b01 	ldrb.w	r1, [r4], #1
 8009b62:	4853      	ldr	r0, [pc, #332]	@ (8009cb0 <_vfiprintf_r+0x21c>)
 8009b64:	f7fe fb5b 	bl	800821e <memchr>
 8009b68:	9a04      	ldr	r2, [sp, #16]
 8009b6a:	b9d8      	cbnz	r0, 8009ba4 <_vfiprintf_r+0x110>
 8009b6c:	06d1      	lsls	r1, r2, #27
 8009b6e:	bf44      	itt	mi
 8009b70:	2320      	movmi	r3, #32
 8009b72:	f88d 3053 	strbmi.w	r3, [sp, #83]	@ 0x53
 8009b76:	0713      	lsls	r3, r2, #28
 8009b78:	bf44      	itt	mi
 8009b7a:	232b      	movmi	r3, #43	@ 0x2b
 8009b7c:	f88d 3053 	strbmi.w	r3, [sp, #83]	@ 0x53
 8009b80:	f89a 3000 	ldrb.w	r3, [sl]
 8009b84:	2b2a      	cmp	r3, #42	@ 0x2a
 8009b86:	d015      	beq.n	8009bb4 <_vfiprintf_r+0x120>
 8009b88:	4654      	mov	r4, sl
 8009b8a:	2000      	movs	r0, #0
 8009b8c:	f04f 0c0a 	mov.w	ip, #10
 8009b90:	9a07      	ldr	r2, [sp, #28]
 8009b92:	4621      	mov	r1, r4
 8009b94:	f811 3b01 	ldrb.w	r3, [r1], #1
 8009b98:	3b30      	subs	r3, #48	@ 0x30
 8009b9a:	2b09      	cmp	r3, #9
 8009b9c:	d94b      	bls.n	8009c36 <_vfiprintf_r+0x1a2>
 8009b9e:	b1b0      	cbz	r0, 8009bce <_vfiprintf_r+0x13a>
 8009ba0:	9207      	str	r2, [sp, #28]
 8009ba2:	e014      	b.n	8009bce <_vfiprintf_r+0x13a>
 8009ba4:	eba0 0308 	sub.w	r3, r0, r8
 8009ba8:	fa09 f303 	lsl.w	r3, r9, r3
 8009bac:	4313      	orrs	r3, r2
 8009bae:	46a2      	mov	sl, r4
 8009bb0:	9304      	str	r3, [sp, #16]
 8009bb2:	e7d2      	b.n	8009b5a <_vfiprintf_r+0xc6>
 8009bb4:	9b03      	ldr	r3, [sp, #12]
 8009bb6:	1d19      	adds	r1, r3, #4
 8009bb8:	681b      	ldr	r3, [r3, #0]
 8009bba:	9103      	str	r1, [sp, #12]
 8009bbc:	2b00      	cmp	r3, #0
 8009bbe:	bfbb      	ittet	lt
 8009bc0:	425b      	neglt	r3, r3
 8009bc2:	f042 0202 	orrlt.w	r2, r2, #2
 8009bc6:	9307      	strge	r3, [sp, #28]
 8009bc8:	9307      	strlt	r3, [sp, #28]
 8009bca:	bfb8      	it	lt
 8009bcc:	9204      	strlt	r2, [sp, #16]
 8009bce:	7823      	ldrb	r3, [r4, #0]
 8009bd0:	2b2e      	cmp	r3, #46	@ 0x2e
 8009bd2:	d10a      	bne.n	8009bea <_vfiprintf_r+0x156>
 8009bd4:	7863      	ldrb	r3, [r4, #1]
 8009bd6:	2b2a      	cmp	r3, #42	@ 0x2a
 8009bd8:	d132      	bne.n	8009c40 <_vfiprintf_r+0x1ac>
 8009bda:	9b03      	ldr	r3, [sp, #12]
 8009bdc:	3402      	adds	r4, #2
 8009bde:	1d1a      	adds	r2, r3, #4
 8009be0:	681b      	ldr	r3, [r3, #0]
 8009be2:	9203      	str	r2, [sp, #12]
 8009be4:	ea43 73e3 	orr.w	r3, r3, r3, asr #31
 8009be8:	9305      	str	r3, [sp, #20]
 8009bea:	f8df a0c8 	ldr.w	sl, [pc, #200]	@ 8009cb4 <_vfiprintf_r+0x220>
 8009bee:	2203      	movs	r2, #3
 8009bf0:	4650      	mov	r0, sl
 8009bf2:	7821      	ldrb	r1, [r4, #0]
 8009bf4:	f7fe fb13 	bl	800821e <memchr>
 8009bf8:	b138      	cbz	r0, 8009c0a <_vfiprintf_r+0x176>
 8009bfa:	2240      	movs	r2, #64	@ 0x40
 8009bfc:	9b04      	ldr	r3, [sp, #16]
 8009bfe:	eba0 000a 	sub.w	r0, r0, sl
 8009c02:	4082      	lsls	r2, r0
 8009c04:	4313      	orrs	r3, r2
 8009c06:	3401      	adds	r4, #1
 8009c08:	9304      	str	r3, [sp, #16]
 8009c0a:	f814 1b01 	ldrb.w	r1, [r4], #1
 8009c0e:	2206      	movs	r2, #6
 8009c10:	4829      	ldr	r0, [pc, #164]	@ (8009cb8 <_vfiprintf_r+0x224>)
 8009c12:	f88d 1028 	strb.w	r1, [sp, #40]	@ 0x28
 8009c16:	f7fe fb02 	bl	800821e <memchr>
 8009c1a:	2800      	cmp	r0, #0
 8009c1c:	d03f      	beq.n	8009c9e <_vfiprintf_r+0x20a>
 8009c1e:	4b27      	ldr	r3, [pc, #156]	@ (8009cbc <_vfiprintf_r+0x228>)
 8009c20:	bb1b      	cbnz	r3, 8009c6a <_vfiprintf_r+0x1d6>
 8009c22:	9b03      	ldr	r3, [sp, #12]
 8009c24:	3307      	adds	r3, #7
 8009c26:	f023 0307 	bic.w	r3, r3, #7
 8009c2a:	3308      	adds	r3, #8
 8009c2c:	9303      	str	r3, [sp, #12]
 8009c2e:	9b09      	ldr	r3, [sp, #36]	@ 0x24
 8009c30:	443b      	add	r3, r7
 8009c32:	9309      	str	r3, [sp, #36]	@ 0x24
 8009c34:	e76a      	b.n	8009b0c <_vfiprintf_r+0x78>
 8009c36:	460c      	mov	r4, r1
 8009c38:	2001      	movs	r0, #1
 8009c3a:	fb0c 3202 	mla	r2, ip, r2, r3
 8009c3e:	e7a8      	b.n	8009b92 <_vfiprintf_r+0xfe>
 8009c40:	2300      	movs	r3, #0
 8009c42:	f04f 0c0a 	mov.w	ip, #10
 8009c46:	4619      	mov	r1, r3
 8009c48:	3401      	adds	r4, #1
 8009c4a:	9305      	str	r3, [sp, #20]
 8009c4c:	4620      	mov	r0, r4
 8009c4e:	f810 2b01 	ldrb.w	r2, [r0], #1
 8009c52:	3a30      	subs	r2, #48	@ 0x30
 8009c54:	2a09      	cmp	r2, #9
 8009c56:	d903      	bls.n	8009c60 <_vfiprintf_r+0x1cc>
 8009c58:	2b00      	cmp	r3, #0
 8009c5a:	d0c6      	beq.n	8009bea <_vfiprintf_r+0x156>
 8009c5c:	9105      	str	r1, [sp, #20]
 8009c5e:	e7c4      	b.n	8009bea <_vfiprintf_r+0x156>
 8009c60:	4604      	mov	r4, r0
 8009c62:	2301      	movs	r3, #1
 8009c64:	fb0c 2101 	mla	r1, ip, r1, r2
 8009c68:	e7f0      	b.n	8009c4c <_vfiprintf_r+0x1b8>
 8009c6a:	ab03      	add	r3, sp, #12
 8009c6c:	9300      	str	r3, [sp, #0]
 8009c6e:	462a      	mov	r2, r5
 8009c70:	4630      	mov	r0, r6
 8009c72:	4b13      	ldr	r3, [pc, #76]	@ (8009cc0 <_vfiprintf_r+0x22c>)
 8009c74:	a904      	add	r1, sp, #16
 8009c76:	f7fd fd91 	bl	800779c <_printf_float>
 8009c7a:	4607      	mov	r7, r0
 8009c7c:	1c78      	adds	r0, r7, #1
 8009c7e:	d1d6      	bne.n	8009c2e <_vfiprintf_r+0x19a>
 8009c80:	6e6b      	ldr	r3, [r5, #100]	@ 0x64
 8009c82:	07d9      	lsls	r1, r3, #31
 8009c84:	d405      	bmi.n	8009c92 <_vfiprintf_r+0x1fe>
 8009c86:	89ab      	ldrh	r3, [r5, #12]
 8009c88:	059a      	lsls	r2, r3, #22
 8009c8a:	d402      	bmi.n	8009c92 <_vfiprintf_r+0x1fe>
 8009c8c:	6da8      	ldr	r0, [r5, #88]	@ 0x58
 8009c8e:	f7fe fac5 	bl	800821c <__retarget_lock_release_recursive>
 8009c92:	89ab      	ldrh	r3, [r5, #12]
 8009c94:	065b      	lsls	r3, r3, #25
 8009c96:	f53f af1f 	bmi.w	8009ad8 <_vfiprintf_r+0x44>
 8009c9a:	9809      	ldr	r0, [sp, #36]	@ 0x24
 8009c9c:	e71e      	b.n	8009adc <_vfiprintf_r+0x48>
 8009c9e:	ab03      	add	r3, sp, #12
 8009ca0:	9300      	str	r3, [sp, #0]
 8009ca2:	462a      	mov	r2, r5
 8009ca4:	4630      	mov	r0, r6
 8009ca6:	4b06      	ldr	r3, [pc, #24]	@ (8009cc0 <_vfiprintf_r+0x22c>)
 8009ca8:	a904      	add	r1, sp, #16
 8009caa:	f7fe f815 	bl	8007cd8 <_printf_i>
 8009cae:	e7e4      	b.n	8009c7a <_vfiprintf_r+0x1e6>
 8009cb0:	0800a196 	.word	0x0800a196
 8009cb4:	0800a19c 	.word	0x0800a19c
 8009cb8:	0800a1a0 	.word	0x0800a1a0
 8009cbc:	0800779d 	.word	0x0800779d
 8009cc0:	08009a71 	.word	0x08009a71

08009cc4 <__swbuf_r>:
 8009cc4:	b5f8      	push	{r3, r4, r5, r6, r7, lr}
 8009cc6:	460e      	mov	r6, r1
 8009cc8:	4614      	mov	r4, r2
 8009cca:	4605      	mov	r5, r0
 8009ccc:	b118      	cbz	r0, 8009cd6 <__swbuf_r+0x12>
 8009cce:	6a03      	ldr	r3, [r0, #32]
 8009cd0:	b90b      	cbnz	r3, 8009cd6 <__swbuf_r+0x12>
 8009cd2:	f7fe f9ab 	bl	800802c <__sinit>
 8009cd6:	69a3      	ldr	r3, [r4, #24]
 8009cd8:	60a3      	str	r3, [r4, #8]
 8009cda:	89a3      	ldrh	r3, [r4, #12]
 8009cdc:	071a      	lsls	r2, r3, #28
 8009cde:	d501      	bpl.n	8009ce4 <__swbuf_r+0x20>
 8009ce0:	6923      	ldr	r3, [r4, #16]
 8009ce2:	b943      	cbnz	r3, 8009cf6 <__swbuf_r+0x32>
 8009ce4:	4621      	mov	r1, r4
 8009ce6:	4628      	mov	r0, r5
 8009ce8:	f000 f82a 	bl	8009d40 <__swsetup_r>
 8009cec:	b118      	cbz	r0, 8009cf6 <__swbuf_r+0x32>
 8009cee:	f04f 37ff 	mov.w	r7, #4294967295
 8009cf2:	4638      	mov	r0, r7
 8009cf4:	bdf8      	pop	{r3, r4, r5, r6, r7, pc}
 8009cf6:	6823      	ldr	r3, [r4, #0]
 8009cf8:	6922      	ldr	r2, [r4, #16]
 8009cfa:	b2f6      	uxtb	r6, r6
 8009cfc:	1a98      	subs	r0, r3, r2
 8009cfe:	6963      	ldr	r3, [r4, #20]
 8009d00:	4637      	mov	r7, r6
 8009d02:	4283      	cmp	r3, r0
 8009d04:	dc05      	bgt.n	8009d12 <__swbuf_r+0x4e>
 8009d06:	4621      	mov	r1, r4
 8009d08:	4628      	mov	r0, r5
 8009d0a:	f7ff fdf9 	bl	8009900 <_fflush_r>
 8009d0e:	2800      	cmp	r0, #0
 8009d10:	d1ed      	bne.n	8009cee <__swbuf_r+0x2a>
 8009d12:	68a3      	ldr	r3, [r4, #8]
 8009d14:	3b01      	subs	r3, #1
 8009d16:	60a3      	str	r3, [r4, #8]
 8009d18:	6823      	ldr	r3, [r4, #0]
 8009d1a:	1c5a      	adds	r2, r3, #1
 8009d1c:	6022      	str	r2, [r4, #0]
 8009d1e:	701e      	strb	r6, [r3, #0]
 8009d20:	6962      	ldr	r2, [r4, #20]
 8009d22:	1c43      	adds	r3, r0, #1
 8009d24:	429a      	cmp	r2, r3
 8009d26:	d004      	beq.n	8009d32 <__swbuf_r+0x6e>
 8009d28:	89a3      	ldrh	r3, [r4, #12]
 8009d2a:	07db      	lsls	r3, r3, #31
 8009d2c:	d5e1      	bpl.n	8009cf2 <__swbuf_r+0x2e>
 8009d2e:	2e0a      	cmp	r6, #10
 8009d30:	d1df      	bne.n	8009cf2 <__swbuf_r+0x2e>
 8009d32:	4621      	mov	r1, r4
 8009d34:	4628      	mov	r0, r5
 8009d36:	f7ff fde3 	bl	8009900 <_fflush_r>
 8009d3a:	2800      	cmp	r0, #0
 8009d3c:	d0d9      	beq.n	8009cf2 <__swbuf_r+0x2e>
 8009d3e:	e7d6      	b.n	8009cee <__swbuf_r+0x2a>

08009d40 <__swsetup_r>:
 8009d40:	b538      	push	{r3, r4, r5, lr}
 8009d42:	4b29      	ldr	r3, [pc, #164]	@ (8009de8 <__swsetup_r+0xa8>)
 8009d44:	4605      	mov	r5, r0
 8009d46:	6818      	ldr	r0, [r3, #0]
 8009d48:	460c      	mov	r4, r1
 8009d4a:	b118      	cbz	r0, 8009d54 <__swsetup_r+0x14>
 8009d4c:	6a03      	ldr	r3, [r0, #32]
 8009d4e:	b90b      	cbnz	r3, 8009d54 <__swsetup_r+0x14>
 8009d50:	f7fe f96c 	bl	800802c <__sinit>
 8009d54:	f9b4 300c 	ldrsh.w	r3, [r4, #12]
 8009d58:	0719      	lsls	r1, r3, #28
 8009d5a:	d422      	bmi.n	8009da2 <__swsetup_r+0x62>
 8009d5c:	06da      	lsls	r2, r3, #27
 8009d5e:	d407      	bmi.n	8009d70 <__swsetup_r+0x30>
 8009d60:	2209      	movs	r2, #9
 8009d62:	602a      	str	r2, [r5, #0]
 8009d64:	f043 0340 	orr.w	r3, r3, #64	@ 0x40
 8009d68:	f04f 30ff 	mov.w	r0, #4294967295
 8009d6c:	81a3      	strh	r3, [r4, #12]
 8009d6e:	e033      	b.n	8009dd8 <__swsetup_r+0x98>
 8009d70:	0758      	lsls	r0, r3, #29
 8009d72:	d512      	bpl.n	8009d9a <__swsetup_r+0x5a>
 8009d74:	6b61      	ldr	r1, [r4, #52]	@ 0x34
 8009d76:	b141      	cbz	r1, 8009d8a <__swsetup_r+0x4a>
 8009d78:	f104 0344 	add.w	r3, r4, #68	@ 0x44
 8009d7c:	4299      	cmp	r1, r3
 8009d7e:	d002      	beq.n	8009d86 <__swsetup_r+0x46>
 8009d80:	4628      	mov	r0, r5
 8009d82:	f7ff f8c5 	bl	8008f10 <_free_r>
 8009d86:	2300      	movs	r3, #0
 8009d88:	6363      	str	r3, [r4, #52]	@ 0x34
 8009d8a:	89a3      	ldrh	r3, [r4, #12]
 8009d8c:	f023 0324 	bic.w	r3, r3, #36	@ 0x24
 8009d90:	81a3      	strh	r3, [r4, #12]
 8009d92:	2300      	movs	r3, #0
 8009d94:	6063      	str	r3, [r4, #4]
 8009d96:	6923      	ldr	r3, [r4, #16]
 8009d98:	6023      	str	r3, [r4, #0]
 8009d9a:	89a3      	ldrh	r3, [r4, #12]
 8009d9c:	f043 0308 	orr.w	r3, r3, #8
 8009da0:	81a3      	strh	r3, [r4, #12]
 8009da2:	6923      	ldr	r3, [r4, #16]
 8009da4:	b94b      	cbnz	r3, 8009dba <__swsetup_r+0x7a>
 8009da6:	89a3      	ldrh	r3, [r4, #12]
 8009da8:	f403 7320 	and.w	r3, r3, #640	@ 0x280
 8009dac:	f5b3 7f00 	cmp.w	r3, #512	@ 0x200
 8009db0:	d003      	beq.n	8009dba <__swsetup_r+0x7a>
 8009db2:	4621      	mov	r1, r4
 8009db4:	4628      	mov	r0, r5
 8009db6:	f000 f882 	bl	8009ebe <__smakebuf_r>
 8009dba:	f9b4 300c 	ldrsh.w	r3, [r4, #12]
 8009dbe:	f013 0201 	ands.w	r2, r3, #1
 8009dc2:	d00a      	beq.n	8009dda <__swsetup_r+0x9a>
 8009dc4:	2200      	movs	r2, #0
 8009dc6:	60a2      	str	r2, [r4, #8]
 8009dc8:	6962      	ldr	r2, [r4, #20]
 8009dca:	4252      	negs	r2, r2
 8009dcc:	61a2      	str	r2, [r4, #24]
 8009dce:	6922      	ldr	r2, [r4, #16]
 8009dd0:	b942      	cbnz	r2, 8009de4 <__swsetup_r+0xa4>
 8009dd2:	f013 0080 	ands.w	r0, r3, #128	@ 0x80
 8009dd6:	d1c5      	bne.n	8009d64 <__swsetup_r+0x24>
 8009dd8:	bd38      	pop	{r3, r4, r5, pc}
 8009dda:	0799      	lsls	r1, r3, #30
 8009ddc:	bf58      	it	pl
 8009dde:	6962      	ldrpl	r2, [r4, #20]
 8009de0:	60a2      	str	r2, [r4, #8]
 8009de2:	e7f4      	b.n	8009dce <__swsetup_r+0x8e>
 8009de4:	2000      	movs	r0, #0
 8009de6:	e7f7      	b.n	8009dd8 <__swsetup_r+0x98>
 8009de8:	20000028 	.word	0x20000028

08009dec <_raise_r>:
 8009dec:	291f      	cmp	r1, #31
 8009dee:	b538      	push	{r3, r4, r5, lr}
 8009df0:	4605      	mov	r5, r0
 8009df2:	460c      	mov	r4, r1
 8009df4:	d904      	bls.n	8009e00 <_raise_r+0x14>
 8009df6:	2316      	movs	r3, #22
 8009df8:	6003      	str	r3, [r0, #0]
 8009dfa:	f04f 30ff 	mov.w	r0, #4294967295
 8009dfe:	bd38      	pop	{r3, r4, r5, pc}
 8009e00:	6bc2      	ldr	r2, [r0, #60]	@ 0x3c
 8009e02:	b112      	cbz	r2, 8009e0a <_raise_r+0x1e>
 8009e04:	f852 3021 	ldr.w	r3, [r2, r1, lsl #2]
 8009e08:	b94b      	cbnz	r3, 8009e1e <_raise_r+0x32>
 8009e0a:	4628      	mov	r0, r5
 8009e0c:	f000 f830 	bl	8009e70 <_getpid_r>
 8009e10:	4622      	mov	r2, r4
 8009e12:	4601      	mov	r1, r0
 8009e14:	4628      	mov	r0, r5
 8009e16:	e8bd 4038 	ldmia.w	sp!, {r3, r4, r5, lr}
 8009e1a:	f000 b817 	b.w	8009e4c <_kill_r>
 8009e1e:	2b01      	cmp	r3, #1
 8009e20:	d00a      	beq.n	8009e38 <_raise_r+0x4c>
 8009e22:	1c59      	adds	r1, r3, #1
 8009e24:	d103      	bne.n	8009e2e <_raise_r+0x42>
 8009e26:	2316      	movs	r3, #22
 8009e28:	6003      	str	r3, [r0, #0]
 8009e2a:	2001      	movs	r0, #1
 8009e2c:	e7e7      	b.n	8009dfe <_raise_r+0x12>
 8009e2e:	2100      	movs	r1, #0
 8009e30:	4620      	mov	r0, r4
 8009e32:	f842 1024 	str.w	r1, [r2, r4, lsl #2]
 8009e36:	4798      	blx	r3
 8009e38:	2000      	movs	r0, #0
 8009e3a:	e7e0      	b.n	8009dfe <_raise_r+0x12>

08009e3c <raise>:
 8009e3c:	4b02      	ldr	r3, [pc, #8]	@ (8009e48 <raise+0xc>)
 8009e3e:	4601      	mov	r1, r0
 8009e40:	6818      	ldr	r0, [r3, #0]
 8009e42:	f7ff bfd3 	b.w	8009dec <_raise_r>
 8009e46:	bf00      	nop
 8009e48:	20000028 	.word	0x20000028

08009e4c <_kill_r>:
 8009e4c:	b538      	push	{r3, r4, r5, lr}
 8009e4e:	2300      	movs	r3, #0
 8009e50:	4d06      	ldr	r5, [pc, #24]	@ (8009e6c <_kill_r+0x20>)
 8009e52:	4604      	mov	r4, r0
 8009e54:	4608      	mov	r0, r1
 8009e56:	4611      	mov	r1, r2
 8009e58:	602b      	str	r3, [r5, #0]
 8009e5a:	f7f9 f813 	bl	8002e84 <_kill>
 8009e5e:	1c43      	adds	r3, r0, #1
 8009e60:	d102      	bne.n	8009e68 <_kill_r+0x1c>
 8009e62:	682b      	ldr	r3, [r5, #0]
 8009e64:	b103      	cbz	r3, 8009e68 <_kill_r+0x1c>
 8009e66:	6023      	str	r3, [r4, #0]
 8009e68:	bd38      	pop	{r3, r4, r5, pc}
 8009e6a:	bf00      	nop
 8009e6c:	20003764 	.word	0x20003764

08009e70 <_getpid_r>:
 8009e70:	f7f9 b806 	b.w	8002e80 <_getpid>

08009e74 <__swhatbuf_r>:
 8009e74:	b570      	push	{r4, r5, r6, lr}
 8009e76:	460c      	mov	r4, r1
 8009e78:	f9b1 100e 	ldrsh.w	r1, [r1, #14]
 8009e7c:	4615      	mov	r5, r2
 8009e7e:	2900      	cmp	r1, #0
 8009e80:	461e      	mov	r6, r3
 8009e82:	b096      	sub	sp, #88	@ 0x58
 8009e84:	da0c      	bge.n	8009ea0 <__swhatbuf_r+0x2c>
 8009e86:	89a3      	ldrh	r3, [r4, #12]
 8009e88:	2100      	movs	r1, #0
 8009e8a:	f013 0f80 	tst.w	r3, #128	@ 0x80
 8009e8e:	bf14      	ite	ne
 8009e90:	2340      	movne	r3, #64	@ 0x40
 8009e92:	f44f 6380 	moveq.w	r3, #1024	@ 0x400
 8009e96:	2000      	movs	r0, #0
 8009e98:	6031      	str	r1, [r6, #0]
 8009e9a:	602b      	str	r3, [r5, #0]
 8009e9c:	b016      	add	sp, #88	@ 0x58
 8009e9e:	bd70      	pop	{r4, r5, r6, pc}
 8009ea0:	466a      	mov	r2, sp
 8009ea2:	f000 f849 	bl	8009f38 <_fstat_r>
 8009ea6:	2800      	cmp	r0, #0
 8009ea8:	dbed      	blt.n	8009e86 <__swhatbuf_r+0x12>
 8009eaa:	9901      	ldr	r1, [sp, #4]
 8009eac:	f401 4170 	and.w	r1, r1, #61440	@ 0xf000
 8009eb0:	f5a1 5300 	sub.w	r3, r1, #8192	@ 0x2000
 8009eb4:	4259      	negs	r1, r3
 8009eb6:	4159      	adcs	r1, r3
 8009eb8:	f44f 6380 	mov.w	r3, #1024	@ 0x400
 8009ebc:	e7eb      	b.n	8009e96 <__swhatbuf_r+0x22>

08009ebe <__smakebuf_r>:
 8009ebe:	898b      	ldrh	r3, [r1, #12]
 8009ec0:	b5f7      	push	{r0, r1, r2, r4, r5, r6, r7, lr}
 8009ec2:	079d      	lsls	r5, r3, #30
 8009ec4:	4606      	mov	r6, r0
 8009ec6:	460c      	mov	r4, r1
 8009ec8:	d507      	bpl.n	8009eda <__smakebuf_r+0x1c>
 8009eca:	f104 0347 	add.w	r3, r4, #71	@ 0x47
 8009ece:	6023      	str	r3, [r4, #0]
 8009ed0:	6123      	str	r3, [r4, #16]
 8009ed2:	2301      	movs	r3, #1
 8009ed4:	6163      	str	r3, [r4, #20]
 8009ed6:	b003      	add	sp, #12
 8009ed8:	bdf0      	pop	{r4, r5, r6, r7, pc}
 8009eda:	466a      	mov	r2, sp
 8009edc:	ab01      	add	r3, sp, #4
 8009ede:	f7ff ffc9 	bl	8009e74 <__swhatbuf_r>
 8009ee2:	9f00      	ldr	r7, [sp, #0]
 8009ee4:	4605      	mov	r5, r0
 8009ee6:	4639      	mov	r1, r7
 8009ee8:	4630      	mov	r0, r6
 8009eea:	f7ff f883 	bl	8008ff4 <_malloc_r>
 8009eee:	b948      	cbnz	r0, 8009f04 <__smakebuf_r+0x46>
 8009ef0:	f9b4 300c 	ldrsh.w	r3, [r4, #12]
 8009ef4:	059a      	lsls	r2, r3, #22
 8009ef6:	d4ee      	bmi.n	8009ed6 <__smakebuf_r+0x18>
 8009ef8:	f023 0303 	bic.w	r3, r3, #3
 8009efc:	f043 0302 	orr.w	r3, r3, #2
 8009f00:	81a3      	strh	r3, [r4, #12]
 8009f02:	e7e2      	b.n	8009eca <__smakebuf_r+0xc>
 8009f04:	89a3      	ldrh	r3, [r4, #12]
 8009f06:	e9c4 0704 	strd	r0, r7, [r4, #16]
 8009f0a:	f043 0380 	orr.w	r3, r3, #128	@ 0x80
 8009f0e:	81a3      	strh	r3, [r4, #12]
 8009f10:	9b01      	ldr	r3, [sp, #4]
 8009f12:	6020      	str	r0, [r4, #0]
 8009f14:	b15b      	cbz	r3, 8009f2e <__smakebuf_r+0x70>
 8009f16:	4630      	mov	r0, r6
 8009f18:	f9b4 100e 	ldrsh.w	r1, [r4, #14]
 8009f1c:	f000 f81e 	bl	8009f5c <_isatty_r>
 8009f20:	b128      	cbz	r0, 8009f2e <__smakebuf_r+0x70>
 8009f22:	89a3      	ldrh	r3, [r4, #12]
 8009f24:	f023 0303 	bic.w	r3, r3, #3
 8009f28:	f043 0301 	orr.w	r3, r3, #1
 8009f2c:	81a3      	strh	r3, [r4, #12]
 8009f2e:	89a3      	ldrh	r3, [r4, #12]
 8009f30:	431d      	orrs	r5, r3
 8009f32:	81a5      	strh	r5, [r4, #12]
 8009f34:	e7cf      	b.n	8009ed6 <__smakebuf_r+0x18>
	...

08009f38 <_fstat_r>:
 8009f38:	b538      	push	{r3, r4, r5, lr}
 8009f3a:	2300      	movs	r3, #0
 8009f3c:	4d06      	ldr	r5, [pc, #24]	@ (8009f58 <_fstat_r+0x20>)
 8009f3e:	4604      	mov	r4, r0
 8009f40:	4608      	mov	r0, r1
 8009f42:	4611      	mov	r1, r2
 8009f44:	602b      	str	r3, [r5, #0]
 8009f46:	f7f8 ffca 	bl	8002ede <_fstat>
 8009f4a:	1c43      	adds	r3, r0, #1
 8009f4c:	d102      	bne.n	8009f54 <_fstat_r+0x1c>
 8009f4e:	682b      	ldr	r3, [r5, #0]
 8009f50:	b103      	cbz	r3, 8009f54 <_fstat_r+0x1c>
 8009f52:	6023      	str	r3, [r4, #0]
 8009f54:	bd38      	pop	{r3, r4, r5, pc}
 8009f56:	bf00      	nop
 8009f58:	20003764 	.word	0x20003764

08009f5c <_isatty_r>:
 8009f5c:	b538      	push	{r3, r4, r5, lr}
 8009f5e:	2300      	movs	r3, #0
 8009f60:	4d05      	ldr	r5, [pc, #20]	@ (8009f78 <_isatty_r+0x1c>)
 8009f62:	4604      	mov	r4, r0
 8009f64:	4608      	mov	r0, r1
 8009f66:	602b      	str	r3, [r5, #0]
 8009f68:	f7f8 ffbe 	bl	8002ee8 <_isatty>
 8009f6c:	1c43      	adds	r3, r0, #1
 8009f6e:	d102      	bne.n	8009f76 <_isatty_r+0x1a>
 8009f70:	682b      	ldr	r3, [r5, #0]
 8009f72:	b103      	cbz	r3, 8009f76 <_isatty_r+0x1a>
 8009f74:	6023      	str	r3, [r4, #0]
 8009f76:	bd38      	pop	{r3, r4, r5, pc}
 8009f78:	20003764 	.word	0x20003764

08009f7c <_init>:
 8009f7c:	b5f8      	push	{r3, r4, r5, r6, r7, lr}
 8009f7e:	bf00      	nop
 8009f80:	bcf8      	pop	{r3, r4, r5, r6, r7}
 8009f82:	bc08      	pop	{r3}
 8009f84:	469e      	mov	lr, r3
 8009f86:	4770      	bx	lr

08009f88 <_fini>:
 8009f88:	b5f8      	push	{r3, r4, r5, r6, r7, lr}
 8009f8a:	bf00      	nop
 8009f8c:	bcf8      	pop	{r3, r4, r5, r6, r7}
 8009f8e:	bc08      	pop	{r3}
 8009f90:	469e      	mov	lr, r3
 8009f92:	4770      	bx	lr
